
/home/jw/Desktop/sifive-standalone-project/src/debug/hello.elf:     file format elf32-littleriscv
/home/jw/Desktop/sifive-standalone-project/src/debug/hello.elf
architecture: riscv:rv32, flags 0x00000112:
EXEC_P, HAS_SYMS, D_PAGED
start address 0x20010000

Program Header:
    LOAD off    0x00001000 vaddr 0x20010000 paddr 0x20010000 align 2**12
         filesz 0x0000100c memsz 0x0000100c flags rwx
    LOAD off    0x00009000 vaddr 0x80000000 paddr 0x20017148 align 2**12
         filesz 0x00000ac4 memsz 0x00000ac4 flags rw-
     TLS off    0x00000000 vaddr 0x00000000 paddr 0x00000000 align 2**2
         filesz 0x00000000 memsz 0x00000000 flags ---
    LOAD off    0x00000ac8 vaddr 0x80000ac8 paddr 0x80000ac8 align 2**12
         filesz 0x00000000 memsz 0x00000ca8 flags rw-
    LOAD off    0x00000114 vaddr 0x00000000 paddr 0x00000000 align 2**12
         filesz 0x00000000 memsz 0x00000000 flags ---
    LOAD off    0x00002080 vaddr 0x20011080 paddr 0x20011080 align 2**12
         filesz 0x000060c4 memsz 0x000060c4 flags r-x
    LOAD off    0x00000114 vaddr 0x00000000 paddr 0x00000000 align 2**12
         filesz 0x00000000 memsz 0x00000000 flags ---

Sections:
Idx Name              Size      VMA       LMA       File off  Algn  Flags
  0 .init             000002c4  20010000  20010000  00001000  2**4  CONTENTS, ALLOC, LOAD, READONLY, CODE
  1 .init_array       0000000c  200102c8  200102c8  000012c8  2**3  CONTENTS, ALLOC, LOAD, DATA
  2 .ctors            0000007a  200102d4  200102d4  000012d4  2**1  CONTENTS, ALLOC, LOAD, READONLY, CODE
  3 .rodata           00000cbc  20010350  20010350  00001350  2**3  CONTENTS, ALLOC, LOAD, READONLY, DATA
  4 .text             000060c4  20011080  20011080  00002080  2**7  CONTENTS, ALLOC, LOAD, READONLY, CODE
  5 .data             00000ac4  80000000  20017148  00009000  2**3  CONTENTS, ALLOC, LOAD, DATA
  6 .bss              000000a4  80000ac8  80000ac8  00009ac8  2**3  ALLOC
  7 .stack            00000400  80000b70  80000b70  00009ac8  2**4  ALLOC
  8 .heap             00000800  80000f70  80000f70  00009ac8  2**3  ALLOC
  9 .debug_info       0001f7a8  00000000  00000000  00009ac4  2**0  CONTENTS, READONLY, DEBUGGING, OCTETS
 10 .debug_abbrev     00002865  00000000  00000000  0002926c  2**0  CONTENTS, READONLY, DEBUGGING, OCTETS
 11 .debug_aranges    00000b50  00000000  00000000  0002bad8  2**3  CONTENTS, READONLY, DEBUGGING, OCTETS
 12 .debug_ranges     00000970  00000000  00000000  0002c628  2**3  CONTENTS, READONLY, DEBUGGING, OCTETS
 13 .debug_line       0000a0c9  00000000  00000000  0002cf98  2**0  CONTENTS, READONLY, DEBUGGING, OCTETS
 14 .debug_str        00004a2d  00000000  00000000  00037061  2**0  CONTENTS, READONLY, DEBUGGING, OCTETS
 15 .comment          00000030  00000000  00000000  0003ba8e  2**0  CONTENTS, READONLY
 16 .riscv.attributes 0000002f  00000000  00000000  0003babe  2**0  CONTENTS, READONLY
 17 .debug_frame      00002d88  00000000  00000000  0003baf0  2**2  CONTENTS, READONLY, DEBUGGING, OCTETS
SYMBOL TABLE:
20010000 l    d  .init	00000000 .init
200102c8 l    d  .init_array	00000000 .init_array
200102d4 l    d  .ctors	00000000 .ctors
20010350 l    d  .rodata	00000000 .rodata
20011080 l    d  .text	00000000 .text
80000000 l    d  .data	00000000 .data
80000ac8 l    d  .bss	00000000 .bss
80000b70 l    d  .stack	00000000 .stack
80000f70 l    d  .heap	00000000 .heap
00000000 l    d  .debug_info	00000000 .debug_info
00000000 l    d  .debug_abbrev	00000000 .debug_abbrev
00000000 l    d  .debug_aranges	00000000 .debug_aranges
00000000 l    d  .debug_ranges	00000000 .debug_ranges
00000000 l    d  .debug_line	00000000 .debug_line
00000000 l    d  .debug_str	00000000 .debug_str
00000000 l    d  .comment	00000000 .comment
00000000 l    d  .riscv.attributes	00000000 .riscv.attributes
00000000 l    d  .debug_frame	00000000 .debug_frame
00000000 l    df *ABS*	00000000 scrub.o
200100c0 l     F .init	00000000 __metal_memory_scrub
2001012e l       .init	00000000 skip_scrub
00000000 l    df *ABS*	00000000 synchronize_harts.c
00000000 l    df *ABS*	00000000 crt0.o
20010240 l       .init	00000000 _skip_init
20010498 l       .rodata	00000000 argv
2001049c l       .rodata	00000000 envp
200104a0 l       .rodata	00000000 name
00000000 l    df *ABS*	00000000 tty.c
00000000 l    df *ABS*	00000000 sifive_fe310-g000_pll.c
2001549e l     F .text	0000001a __metal_driver_sifive_fe310_g000_pll_pllsel0
200154b8 l     F .text	0000001a __metal_driver_sifive_fe310_g000_pll_pllref
200154d2 l     F .text	00000016 __metal_driver_sifive_fe310_g000_pll_divider_base
200154e8 l     F .text	00000014 __metal_driver_sifive_fe310_g000_pll_divider_offset
200154fc l     F .text	00000012 __metal_driver_sifive_fe310_g000_pll_config_base
2001550e l     F .text	00000010 __metal_driver_sifive_fe310_g000_pll_config_offset
2001551e l     F .text	00000016 __metal_driver_sifive_fe310_g000_pll_init_rate
20015534 l     F .text	00000012 __metal_driver_sifive_fe310_g000_prci_base
20015546 l     F .text	00000016 __metal_driver_sifive_fe310_g000_prci_vtable
2001069c l     O .rodata	00000880 pll_configs
2001555c l     F .text	0000004e get_pll_config_freq
200157be l     F .text	000000ac find_closest_config
2001586a l     F .text	000001b0 configure_pll
00000000 l    df *ABS*	00000000 hello.c
00000000 l    df *ABS*	00000000 findfp.c
2001154c l     F .text	00000068 std
00000000 l    df *ABS*	00000000 nano-vfprintf.c
20011a8c l     F .text	0000002a __sfputc_r
00000000 l    df *ABS*	00000000 nano-vfprintf_i.c
00000000 l    df *ABS*	00000000 riscv_clint0.c
200128b4 l     F .text	0000002a __metal_driver_sifive_clint0_control_base
200128de l     F .text	00000028 __metal_driver_sifive_clint0_num_interrupts
20012906 l     F .text	0000003c __metal_driver_sifive_clint0_interrupt_parents
20012942 l     F .text	00000030 __metal_driver_sifive_clint0_interrupt_lines
20012aa2 l     F .text	00000036 _get_cpu_intc
00000000 l    df *ABS*	00000000 riscv_cpu.c
20012fe2 l     F .text	00000024 __metal_driver_cpu_hartid
20013006 l     F .text	0000002a __metal_driver_cpu_timebase
20013030 l     F .text	0000002a __metal_driver_cpu_interrupt_controller
2001305a l     F .text	00000024 __metal_driver_cpu_buserror
00000000 l    df *ABS*	00000000 riscv_plic0.c
200149ee l     F .text	0000002a __metal_driver_sifive_plic0_control_base
20014a18 l     F .text	0000002a __metal_driver_sifive_plic0_num_interrupts
20014a42 l     F .text	00000028 __metal_driver_sifive_plic0_max_priority
20014a6a l     F .text	00000028 __metal_driver_sifive_plic0_interrupt_parents
20014a92 l     F .text	00000022 __metal_driver_sifive_plic0_interrupt_lines
20014ab4 l     F .text	0000001e __metal_driver_sifive_plic0_context_ids
00000000 l    df *ABS*	00000000 sifive_gpio0.c
20015bf8 l     F .text	00000026 __metal_driver_sifive_gpio0_base
20015c1e l     F .text	0000002a __metal_driver_sifive_gpio0_interrupt_parent
20015c48 l     F .text	0000035e __metal_driver_sifive_gpio0_interrupt_lines
00000000 l    df *ABS*	00000000 sifive_uart0.c
20016656 l     F .text	00000040 __metal_driver_sifive_uart0_control_base
20016696 l     F .text	00000048 __metal_driver_sifive_uart0_interrupt_parent
200166de l     F .text	0000003c __metal_driver_sifive_uart0_interrupt_line
2001671a l     F .text	00000048 __metal_driver_sifive_uart0_clock
20016762 l     F .text	00000040 __metal_driver_sifive_uart0_pinmux
200167a2 l     F .text	0000003c __metal_driver_sifive_uart0_pinmux_output_selector
200167de l     F .text	00000040 __metal_driver_sifive_uart0_pinmux_source_selector
20016bbe l     F .text	000000da pre_rate_change_callback_func
20016c98 l     F .text	00000030 post_rate_change_callback_func
00000000 l    df *ABS*	00000000 impure.c
80000000 l     O .data	00000060 impure_data
00000000 l    df *ABS*	00000000 sifive_fe310-g000_hfrosc.c
200152ae l     F .text	0000001a __metal_driver_sifive_fe310_g000_hfrosc_ref
200152c8 l     F .text	00000016 __metal_driver_sifive_fe310_g000_hfrosc_config_base
200152de l     F .text	00000014 __metal_driver_sifive_fe310_g000_hfrosc_config_offset
200152f2 l     F .text	00000016 __metal_driver_sifive_fe310_g000_prci_vtable
00000000 l    df *ABS*	00000000 sifive_fe310-g000_hfxosc.c
200153ae l     F .text	0000001a __metal_driver_sifive_fe310_g000_hfxosc_ref
200153c8 l     F .text	00000016 __metal_driver_sifive_fe310_g000_hfxosc_config_base
200153de l     F .text	00000014 __metal_driver_sifive_fe310_g000_hfxosc_config_offset
200153f2 l     F .text	00000016 __metal_driver_sifive_fe310_g000_prci_vtable
00000000 l    df *ABS*	00000000 sifive_fe310-g000_prci.c
20015b80 l     F .text	00000012 __metal_driver_sifive_fe310_g000_prci_base
00000000 l    df *ABS*	00000000 fixed-clock.c
20017080 l     F .text	00000070 __metal_driver_fixed_clock_rate
00000000 l    df *ABS*	00000000 printf.c
00000000 l    df *ABS*	00000000 puts.c
00000000 l    df *ABS*	00000000 wbuf.c
00000000 l    df *ABS*	00000000 wsetup.c
00000000 l    df *ABS*	00000000 fflush.c
00000000 l    df *ABS*	00000000 fwalk.c
00000000 l    df *ABS*	00000000 makebuf.c
00000000 l    df *ABS*	00000000 nano-mallocr.c
00000000 l    df *ABS*	00000000 nano-mallocr.c
00000000 l    df *ABS*	00000000 sbrkr.c
00000000 l    df *ABS*	00000000 stdio.c
00000000 l    df *ABS*	00000000 writer.c
00000000 l    df *ABS*	00000000 closer.c
00000000 l    df *ABS*	00000000 fstatr.c
00000000 l    df *ABS*	00000000 isattyr.c
00000000 l    df *ABS*	00000000 lseekr.c
00000000 l    df *ABS*	00000000 memchr.c
00000000 l    df *ABS*	00000000 mlock.c
00000000 l    df *ABS*	00000000 readr.c
00000000 l    df *ABS*	00000000 sys_close.c
00000000 l    df *ABS*	00000000 sys_fstat.c
00000000 l    df *ABS*	00000000 sys_isatty.c
00000000 l    df *ABS*	00000000 sys_lseek.c
00000000 l    df *ABS*	00000000 sys_read.c
00000000 l    df *ABS*	00000000 sys_sbrk.c
80000aa4 l     O .data	00000004 __brk
00000000 l    df *ABS*	00000000 sys_write.c
00000000 l    df *ABS*	00000000 atexit.c
00000000 l    df *ABS*	00000000 errno.c
00000000 l    df *ABS*	00000000 exit.c
00000000 l    df *ABS*	00000000 fini.c
00000000 l    df *ABS*	00000000 init.c
00000000 l    df *ABS*	00000000 __atexit.c
80000ae0 l     O .bss	0000008c _global_atexit0
00000000 l    df *ABS*	00000000 __call_atexit.c
00000000 l    df *ABS*	00000000 init.c
80000ad8 l     O .bss	00000004 init_done.1
80000adc l     O .bss	00000004 fini_done.0
00000000 l    df *ABS*	00000000 uart.c
00000000 l    df *ABS*	00000000 clock.c
00000000 l    df *ABS*	00000000 cpu.c
00000000 l    df *ABS*	00000000 shutdown.c
00000000 l    df *ABS*	00000000 vector.o
20017000 l       .text	00000000 IRQ_0
20017004 l       .text	00000000 IRQ_1
20017008 l       .text	00000000 IRQ_2
2001700c l       .text	00000000 IRQ_3
20017010 l       .text	00000000 IRQ_4
20017014 l       .text	00000000 IRQ_5
20017018 l       .text	00000000 IRQ_6
2001701c l       .text	00000000 IRQ_7
20017020 l       .text	00000000 IRQ_8
20017024 l       .text	00000000 IRQ_9
20017028 l       .text	00000000 IRQ_10
2001702c l       .text	00000000 IRQ_11
20017030 l       .text	00000000 IRQ_12
20017034 l       .text	00000000 IRQ_13
20017038 l       .text	00000000 IRQ_14
2001703c l       .text	00000000 IRQ_15
20017040 l       .text	00000000 IRQ_LC0
20017044 l       .text	00000000 IRQ_LC1
20017048 l       .text	00000000 IRQ_LC2
2001704c l       .text	00000000 IRQ_LC3
20017050 l       .text	00000000 IRQ_LC4
20017054 l       .text	00000000 IRQ_LC5
20017058 l       .text	00000000 IRQ_LC6
2001705c l       .text	00000000 IRQ_LC7
20017060 l       .text	00000000 IRQ_LC8
20017064 l       .text	00000000 IRQ_LC9
20017068 l       .text	00000000 IRQ_LC10
2001706c l       .text	00000000 IRQ_LC11
20017070 l       .text	00000000 IRQ_LC12
20017074 l       .text	00000000 IRQ_LC13
20017078 l       .text	00000000 IRQ_LC14
2001707c l       .text	00000000 IRQ_LC15
00000000 l    df *ABS*	00000000 sys_exit.c
00000000 l    df *ABS*	00000000 inline.c
00000000 l    df *ABS*	00000000 
200102d4 l       .init_array	00000000 metal_constructors_end
200102d8 l       .init_array	00000000 __fini_array_end
200102d8 l       .init_array	00000000 metal_destructors_end
200102d8 l       .init_array	00000000 metal_destructors_start
200102d8 l       .init_array	00000000 __fini_array_start
200102c8 l       .init_array	00000000 __init_array_end
200102c8 l       .init_array	00000000 __preinit_array_end
200102c8 l       .init_array	00000000 __init_array_start
200102c8 l       .init_array	00000000 metal_constructors_start
200102c8 l       .init_array	00000000 __preinit_array_start
20010fa4 g     O .rodata	00000040 __metal_driver_vtable_sifive_uart0
20011f04 g     F .text	0000002e _isatty_r
200138d0  w    F .text	00000096 metal_lc4_interrupt_vector_handler
200110f2 g     F .text	000000da _puts_r
20011f32 g     F .text	00000032 _lseek_r
20016e30 g     F .text	00000026 metal_clock_get_rate_hz
20016b1e g     F .text	000000a0 __metal_driver_sifive_uart0_set_baud_rate
20012c7e g     F .text	00000058 __metal_driver_riscv_clint0_set_vector_mode
20016972 g     F .text	0000004a __metal_driver_sifive_uart0_set_tx_watermark
2001383a  w    F .text	00000096 metal_lc3_interrupt_vector_handler
200140e2 g     F .text	00000058 __metal_valid_interrupt_id
200110b4 g     F .text	0000003e printf
200102d0 g     O .init_array	00000004 _use_hfxosc_ptr
2001455e g     F .text	0000001c __metal_driver_riscv_cpu_controller_get_vector_mode
800012a0 g       .data	00000000 __global_pointer$
200102d4 g     F .ctors	00000024 metal_tty_init
20016ddc g     F .text	00000054 _metal_clock_append_to_callbacks
20014b0e g     F .text	00000046 __metal_plic0_complete_interrupt
20014326 g     F .text	000001e0 __metal_driver_riscv_cpu_controller_interrupt_register
200102cc g     O .init_array	00000004 _metal_sifive_fe310_g000_pll_init_ptr
20011e38 g     F .text	00000036 __sseek
20011602 g     F .text	0000006a __sinit
200111d8 g     F .text	000000c0 __swbuf_r
80000ac8 g       .data	00000000 __tls_base
200115be g     F .text	00000044 __sfmoreglue
20011f80 g     F .text	00000002 __malloc_unlock
20016f2c g     F .text	0000002e metal_cpu_get
80000a38 g     O .data	00000020 __metal_dt_serial_10013000
20016230 g     F .text	0000004a __metal_driver_sifive_gpio0_disable_io
200104ac g     O .rodata	00000064 __metal_driver_vtable_riscv_clint0
80000b6c g       .bss	00000000 metal_segment_bss_target_end
20012972 g     F .text	0000009a __metal_clint0_mtime_get
20014962 g     F .text	0000002e __metal_driver_cpu_get_instruction_length
00000001 g       *ABS*	00000000 __metal_chicken_bit
20016a36 g     F .text	00000030 __metal_driver_sifive_uart0_get_rx_watermark
20015fe6 g     F .text	00000046 __metal_driver_sifive_gpio0_disable_input
200124e2 g     F .text	0000000a __errno
08000000 g       .rodata	00000000 metal_segment_itim_target_start
20016942 g     F .text	00000030 __metal_driver_sifive_uart0_txready
200168d0 g     F .text	0000003a __metal_driver_sifive_uart0_rx_interrupt_enable
20010142 g     F .init	0000000e __metal_synchronize_harts
80000ac8 g       .data	00000000 metal_segment_bss_target_start
20012a0c g     F .text	00000096 __metal_driver_riscv_clint0_mtimecmp_set
20011ed4 g     F .text	00000030 _fstat_r
20016480 g     F .text	00000188 __metal_driver_sifive_gpio0_clear_int
80000ad0 g     O .bss	00000004 errno
2001564e g     F .text	00000170 __metal_driver_sifive_fe310_g000_pll_get_rate_hz
00000400 g       *ABS*	00000000 __stack_size
20016ea2 g     F .text	00000032 metal_clock_register_pre_rate_change_callback
20013bbe  w    F .text	00000096 metal_lc9_interrupt_vector_handler
200100cc  w    F .init	00000000 __metal_before_start
200127de  w    F .text	00000014 metal_init_run
80000a58 g     O .data	00000020 __metal_dt_serial_10023000
20010638 g     O .rodata	00000064 __metal_driver_vtable_riscv_plic0
200105f4 g     O .rodata	00000044 __metal_driver_vtable_cpu
20012886 g     F .text	0000002e metal_uart_set_baud_rate
20016cc8 g     F .text	000000d2 __metal_driver_sifive_uart0_init
00000000 g       *ABS*	00000000 __metal_eccscrub_bit
200145ea g     F .text	00000070 __metal_driver_cpu_mcycle_get
20010f1c g     O .rodata	0000000c __metal_driver_vtable_sifive_fe310_g000_pll
80000f70 g       .heap	00000000 metal_segment_heap_target_start
200115b4 g     F .text	0000000a _cleanup_r
80000ab4 g     O .data	00000008 __metal_dt_cpu_0
20013b28  w    F .text	00000096 metal_lc8_interrupt_vector_handler
20015a1a g     F .text	00000166 __metal_driver_sifive_fe310_g000_pll_set_rate_hz
20015212 g     F .text	00000074 __metal_driver_riscv_plic0_affinity_set_threshold
200111cc g     F .text	0000000c puts
20013e16  w    F .text	00000096 metal_lc13_interrupt_vector_handler
200131ec g     F .text	00000018 __metal_default_exception_handler
20012352 g     F .text	00000026 _fstat
20012fae g     F .text	00000034 __metal_driver_riscv_clint0_set_interrupt
2001457a g     F .text	00000054 __metal_driver_riscv_cpu_controller_set_vector_mode
2001307e g     F .text	00000030 __metal_driver_cpu_get
20010590 g     O .rodata	00000064 __metal_driver_vtable_riscv_cpu_intc
200130e0 g     F .text	00000018 __metal_interrupt_global_disable
20015286 g     F .text	00000028 __metal_driver_riscv_plic0_affinity_get_threshold
20013a92  w    F .text	00000096 metal_lc7_interrupt_vector_handler
20013c54  w    F .text	00000096 metal_lc10_interrupt_vector_handler
20011d8c g     F .text	0000002e _sbrk_r
20015032 g     F .text	00000050 __metal_driver_riscv_plic0_disable
200141f6 g     F .text	0000004e __metal_exception_register
200126ee g     F .text	00000078 metal_init
200122fe g     F .text	00000032 _read_r
2001477c g     F .text	0000001a __metal_driver_cpu_timer_controller_interrupt
200160c8 g     F .text	00000040 __metal_driver_sifive_gpio0_enable_output
80000000 g       .rodata	00000000 metal_segment_lim_target_end
200132dc g     F .text	00000068 __metal_default_sw_handler
20016ed4 g     F .text	00000032 metal_clock_register_post_rate_change_callback
8000006c g     O .data	0000000c __metal_dt_clock_2
2001681e g     F .text	00000020 __metal_driver_sifive_uart0_interrupt_controller
20012378 g     F .text	00000020 _isatty
2001618e g     F .text	00000040 __metal_driver_sifive_gpio0_output_toggle
2001685e g     F .text	0000003a __metal_driver_sifive_uart0_tx_interrupt_enable
20011004 g     O .rodata	00000008 __metal_driver_vtable_fixed_clock
20010fe8 g     O .rodata	00000004 _global_impure_ptr
20013344  w    F .text	00000092 metal_timer_interrupt_vector_handler
2001254c g     F .text	0000005e __libc_init_array
20016108 g     F .text	00000040 __metal_driver_sifive_gpio0_output_set
20013cea  w    F .text	00000096 metal_lc11_interrupt_vector_handler
2001547c g     F .text	00000022 __metal_driver_sifive_fe310_g000_hfxosc_set_rate_hz
20014506 g     F .text	0000002c __metal_driver_riscv_cpu_controller_interrupt_enable
200123ec g     F .text	0000007e _sbrk
20016082 g     F .text	00000046 __metal_driver_sifive_gpio0_disable_output
20016d9a g     F .text	00000042 _metal_clock_call_all_callbacks
200102a2 g     F .init	00000002 _init
20013142 g     F .text	0000001a __metal_interrupt_timer_disable
2001627a g     F .text	00000206 __metal_driver_sifive_gpio0_config_int
2001483a g     F .text	00000062 __metal_driver_cpu_clear_sw_ipi
20010f68 g     O .rodata	0000003c __metal_driver_vtable_sifive_gpio0
20016898 g     F .text	00000038 __metal_driver_sifive_uart0_tx_interrupt_disable
200161ce g     F .text	00000062 __metal_driver_sifive_gpio0_enable_io
20012516 g     F .text	00000036 __libc_fini_array
80000a90 g     O .data	0000000c __metal_dt_clock_4
20016608 g     F .text	00000020 __metal_driver_gpio_interrupt_controller
20012766 g     F .text	00000078 metal_fini
200147c4 g     F .text	00000014 __metal_driver_cpu_get_sw_interrupt_id
200149ce g     F .text	00000020 __metal_driver_cpu_get_buserror
80000000 g       .data	00000000 metal_segment_data_target_start
20013194 g     F .text	0000002c __metal_interrupt_local_enable
20012f7a g     F .text	00000034 __metal_driver_riscv_clint0_clear_interrupt
20012806 g     F .text	00000026 metal_tty_putc
20014d0c g     F .text	00000018 __metal_plic0_default_handler
2001246a  w    F .text	0000006e write
00000000 g       *ABS*	00000000 __tbss_size
80000060 g     O .data	0000000c __metal_dt_clock_0
00000800 g       *ABS*	00000000 __heap_size
20015082 g     F .text	00000030 __metal_driver_riscv_plic0_set_threshold
200133d6 g     F .text	00000016 __metal_default_beu_handler
200103a4 g     O .rodata	00000020 __sf_fake_stderr
20013178 g     F .text	0000001c __metal_interrupt_external_disable
2001683e g     F .text	00000020 __metal_driver_sifive_uart0_get_interrupt_id
200145ce g     F .text	0000001c __metal_driver_riscv_cpu_controller_command_request
20014244 g     F .text	000000e2 __metal_driver_riscv_cpu_controller_interrupt_init
20011ab6 g     F .text	00000042 __sfputs_r
2001491c g     F .text	00000046 __metal_driver_cpu_exception_register
200130f8 g     F .text	00000018 __metal_interrupt_software_enable
2001370e  w    F .text	00000096 metal_lc1_interrupt_vector_handler
20011f64 g     F .text	0000001a memchr
20011912 g     F .text	000000a2 _free_r
80000ad4 g     O .bss	00000004 _global_atexit
20014bd4 g     F .text	00000062 __metal_driver_riscv_plic0_set_priority
20013fd8 g     F .text	00000058 __metal_controller_interrupt_vector_mode
20012626 g     F .text	000000c8 __call_exitprocs
80000f70 g       .stack	00000000 _sp
200102c8 g     O .init_array	00000004 _metal_tty_init_ptr
20010150 g     F .init	00000000 _start
20015308 g     F .text	00000084 __metal_driver_sifive_fe310_g000_hfrosc_get_rate_hz
20012398 g     F .text	0000002a _lseek
200148fc g     F .text	00000020 __metal_driver_cpu_controller_interrupt
20014990 g     F .text	0000001e __metal_driver_cpu_get_exception_pc
2001315c g     F .text	0000001c __metal_interrupt_external_enable
200125aa g     F .text	0000007c __register_exitproc
20016a66 g     F .text	00000042 __metal_driver_sifive_uart0_putc
20014dc8 g     F .text	00000158 __metal_driver_riscv_plic0_init
20014fe2 g     F .text	00000050 __metal_driver_riscv_plic0_enable
20016056 g     F .text	0000002c __metal_driver_sifive_gpio0_output
200139fc  w    F .text	00000096 metal_lc6_interrupt_vector_handler
200130ae g     F .text	0000001a __metal_myhart_id
20016628 g     F .text	0000002e __metal_driver_gpio_get_interrupt_id
2001324a  w    F .text	00000092 metal_software_interrupt_vector_handler
20014532 g     F .text	0000002c __metal_driver_riscv_cpu_controller_interrupt_disable
20011ea6 g     F .text	0000002e _close_r
20016afe g     F .text	00000020 __metal_driver_sifive_uart0_get_baud_rate
20012b60 g     F .text	000000da __metal_driver_riscv_clint0_register
80000aac g     O .data	00000008 __metal_dt_clint_2000000
20011298 g     F .text	0000010a __swsetup_r
2001166c g     F .text	0000009c __sfp
20016e56 g     F .text	0000004c metal_clock_set_rate_hz
20011dba g     F .text	00000030 __sread
20015fa6 g     F .text	00000040 __metal_driver_sifive_gpio0_enable_input
200102a4  w    F .init	00000000 secondary_main
2001321c  w    F .text	0000002e metal_interrupt_vector_handler
20011f7e g     F .text	00000002 __malloc_lock
2001690a g     F .text	00000038 __metal_driver_sifive_uart0_rx_interrupt_disable
200114e8 g     F .text	00000064 _fflush_r
20014b9a g     F .text	0000003a __metal_plic0_get_threshold
20015b92 g     F .text	0000002e __metal_driver_sifive_fe310_g000_prci_get_reg
200103c4 g     O .rodata	00000020 __sf_fake_stdin
2001413a g     F .text	000000bc __metal_local_interrupt_enable
20012e3a g     F .text	00000140 __metal_driver_riscv_clint0_command_request
2001186a g     F .text	000000a8 memset
20013966  w    F .text	00000096 metal_lc5_interrupt_vector_handler
20011080 g     F .text	00000034 main
80000ac8 g       .data	00000000 metal_segment_data_target_end
200169ec g     F .text	0000004a __metal_driver_sifive_uart0_set_rx_watermark
20010fec g     O .rodata	00000008 __metal_driver_vtable_sifive_fe310_g000_hfrosc
200147d8 g     F .text	00000062 __metal_driver_cpu_set_sw_ipi
2001489c g     F .text	00000060 __metal_driver_cpu_get_msip
20016f74 g     F .text	0000000e metal_shutdown
08000000 g       .rodata	00000000 metal_segment_itim_target_end
200149ae g     F .text	00000020 __metal_driver_cpu_set_exception_pc
20014ad2 g     F .text	0000003c __metal_plic0_claim_interrupt
200169bc g     F .text	00000030 __metal_driver_sifive_uart0_get_tx_watermark
20011e6e g     F .text	00000006 __sclose
20013d80  w    F .text	00000096 metal_lc12_interrupt_vector_handler
2001008a g     F .init	00000000 metal_mem_scrub
200119b4 g     F .text	000000d8 _malloc_r
20012c62 g     F .text	0000001c __metal_driver_riscv_clint0_get_vector_mode
80000ac0 g     O .data	00000004 __metal_dt_prci_10008000
2001465a g     F .text	00000046 __metal_driver_cpu_timebase_get
20015176 g     F .text	0000009c __metal_driver_riscv_plic0_affinity_disable
20010000 g       .init	00000000 _enter
20016f5a g     F .text	0000001a metal_cpu_get_current_hartid
20015408 g     F .text	00000074 __metal_driver_sifive_fe310_g000_hfxosc_get_rate_hz
20017000 g       .text	00000000 __metal_vector_table
20011010 g       *ABS*	00000000 metal_segment_itim_source_start
80000aa8  w    O .data	00000004 __metal_cpu_table
80000090 g     O .data	000003d0 __metal_dt_cpu_0_interrupt_controller
200102a2 g     F .init	00000002 _fini
200110b4 g     F .text	0000003e iprintf
80000000 g       .rodata	00000000 metal_segment_lim_target_start
20014c36 g     F .text	00000034 __metal_driver_riscv_plic0_get_priority
20010324 g     F .ctors	0000002a use_hfxosc
200130c8 g     F .text	00000018 __metal_interrupt_global_enable
200124d8 g     F .text	0000000a atexit
20011e74 g     F .text	00000032 _write_r
20013128 g     F .text	0000001a __metal_interrupt_timer_enable
20016aa8 g     F .text	00000056 __metal_driver_sifive_uart0_getc
20012d88 g     F .text	000000b2 __metal_driver_riscv_clint0_disable
20011f82 g     F .text	0000010c _printf_common
80000aa0 g     O .data	00000004 _impure_ptr
20014706 g     F .text	00000076 __metal_driver_cpu_mtimecmp_set
200113a2 g     F .text	00000146 __sflush_r
200150b2 g     F .text	00000028 __metal_driver_riscv_plic0_get_threshold
200155aa g     F .text	000000a4 __metal_driver_sifive_fe310_g000_pll_init
80000078 g     O .data	0000000c __metal_dt_clock_5
20015bc0 g     F .text	00000038 __metal_driver_sifive_fe310_g000_prci_set_reg
200170f0 g     F .text	0000001e __metal_driver_fixed_clock_get_rate_hz
20012cd6 g     F .text	000000b2 __metal_driver_riscv_clint0_enable
20017148 g       *ABS*	00000000 metal_segment_data_source_start
20010134 g       .init	00000000 early_trap_vector
80001770 g       .heap	00000000 metal_segment_heap_target_end
20014030 g     F .text	000000b2 __metal_controller_interrupt_vector
80000a84 g     O .data	0000000c __metal_dt_clock_1
80000460 g     O .data	000005d8 __metal_dt_interrupt_controller_c000000
20011772 g     F .text	0000005c __swhatbuf_r
20016148 g     F .text	00000046 __metal_driver_sifive_gpio0_output_clear
200133ec g     F .text	00000066 __metal_default_timer_handler
2001246a g     F .text	0000006e _write
20014d24 g     F .text	000000a4 __metal_plic0_handler
200137a4  w    F .text	00000096 metal_lc2_interrupt_vector_handler
20013f42  w    F .text	00000096 metal_lc15_interrupt_vector_handler
20016f06 g     F .text	00000026 metal_cpu_interrupt_controller
20011dea g     F .text	0000004e __swrite
200124ec g     F .text	0000002a exit
20011af8 g     F .text	00000294 _vfiprintf_r
20011708 g     F .text	0000006a _fwalk_reent
2001710e g     F .text	00000022 __metal_driver_fixed_clock_set_rate_hz
20011010 g       *ABS*	00000000 metal_segment_lim_source_start
200103e4 g     O .rodata	00000020 __sf_fake_stdout
80000abc g     O .data	00000004 __metal_dt_gpio_10012000
20013204 g     F .text	00000018 __metal_default_interrupt_handler
20012858 g     F .text	0000002e metal_uart_putc
200123c2 g     F .text	0000002a _read
200127f2  w    F .text	00000014 metal_fini_run
2001602c g     F .text	0000002a __metal_driver_sifive_gpio0_input
20013480 g     F .text	0000017e __metal_exception_handler
20013678  w    F .text	00000096 metal_lc0_interrupt_vector_handler
20017130 g     F .text	00000014 _exit
200146a0 g     F .text	00000066 __metal_driver_cpu_mtime_get
200117ce g     F .text	0000009c __smakebuf_r
20012c3a g     F .text	00000028 __metal_driver_riscv_clint0_vector_register
2001208e g     F .text	00000270 _printf_i
80000acc g     O .bss	00000004 __malloc_sbrk_start
20013eac  w    F .text	00000096 metal_lc14_interrupt_vector_handler
20010ff4 g     O .rodata	00000008 __metal_driver_vtable_sifive_fe310_g000_hfxosc
20012ad8 g     F .text	00000088 __metal_driver_riscv_clint0_init
80000ac8 g     O .bss	00000004 __malloc_free_list
200102f8 g     F .ctors	0000002c metal_sifive_fe310_g000_pll_init
20011af8 g     F .text	00000294 _vfprintf_r
20014796 g     F .text	00000014 __metal_driver_cpu_get_timer_interrupt_id
20014c6a g     F .text	000000a2 __metal_plic0_enable
20010088  w      .init	00000000 __register_frame_info
2001538c g     F .text	00000022 __metal_driver_sifive_fe310_g000_hfrosc_set_rate_hz
200147aa g     F .text	0000001a __metal_driver_cpu_sw_controller_interrupt
200131c0 g     F .text	0000002c __metal_interrupt_local_disable
20013110 g     F .text	00000018 __metal_interrupt_software_disable
2001282c g     F .text	0000002c metal_uart_init
80000a78 g     O .data	0000000c __metal_dt_clock_3
80000084 g     O .data	0000000c __metal_dt_clock_6
20014b54 g     F .text	00000046 __metal_plic0_set_threshold
200150da g     F .text	0000009c __metal_driver_riscv_plic0_affinity_enable
20012330 g     F .text	00000022 _close
20010ffc g     O .rodata	00000008 __metal_driver_vtable_sifive_fe310_g000_prci
00000000 g       *ABS*	00000000 __metal_boot_hart
20014f20 g     F .text	000000c2 __metal_driver_riscv_plic0_register



Disassembly of section .init:

20010000 <_enter>:
_enter():
/home/jw/Desktop/sifive-standalone-project/freedom-metal/src/entry.S:31
    auipc a0, %pcrel_hi(__global_pointer__)
    addi a0, a0, %pcrel_lo(1b)
    ld   gp, 0(a0)
    add  gp, gp, a0
#else
    la gp, __global_pointer$
20010000:	5fff1197          	auipc	gp,0x5fff1
20010004:	2a018193          	addi	gp,gp,672 # 800012a0 <__global_pointer$>
/home/jw/Desktop/sifive-standalone-project/freedom-metal/src/entry.S:36
#endif
.option pop

    /* trap over the chicken bit register clearing, aloe & fe310 dont have it */
    la t0, 1f
20010008:	00000297          	auipc	t0,0x0
2001000c:	01828293          	addi	t0,t0,24 # 20010020 <_enter+0x20>
/home/jw/Desktop/sifive-standalone-project/freedom-metal/src/entry.S:37
    csrw mtvec, t0
20010010:	30529073          	csrw	mtvec,t0
/home/jw/Desktop/sifive-standalone-project/freedom-metal/src/entry.S:39
    /* chicken bit is enable if core are sifive series. */
    la t0, __metal_chicken_bit
20010014:	00100293          	li	t0,1
/home/jw/Desktop/sifive-standalone-project/freedom-metal/src/entry.S:40
    beqz t0, 1f
20010018:	00028463          	beqz	t0,20010020 <_enter+0x20>
/home/jw/Desktop/sifive-standalone-project/freedom-metal/src/entry.S:42
    /* If set, always clear the feature disable register for all cores series */
    csrwi 0x7C1, 0
2001001c:	7c105073          	csrwi	0x7c1,0
/home/jw/Desktop/sifive-standalone-project/freedom-metal/src/entry.S:47
.align 4
1:
    /* Set up a simple trap vector to catch anything that goes wrong early in
     * the boot process. */
    la t0, early_trap_vector
20010020:	00000297          	auipc	t0,0x0
20010024:	11428293          	addi	t0,t0,276 # 20010134 <early_trap_vector>
/home/jw/Desktop/sifive-standalone-project/freedom-metal/src/entry.S:48
    csrw mtvec, t0
20010028:	30529073          	csrw	mtvec,t0
/home/jw/Desktop/sifive-standalone-project/freedom-metal/src/entry.S:56
     * C, so here we set up a C environment. First we set up a stack pointer,
     * which is left as a weak reference in order to allow initialization
     * routines that do not need a stack to be set up to transparently be
     * called. */
    .weak __metal_stack_pointer
    la sp, __metal_stack_pointer
2001002c:	00000113          	li	sp,0
/home/jw/Desktop/sifive-standalone-project/freedom-metal/src/entry.S:63
   /* The METAL is designed for a bare-metal environment and therefore is expected
    * to define its own stack pointer. We also align the stack pointer here
    * because the only RISC-V ABI that's currently defined, mandates 16-byte
    * stack alignment. */

    bne sp, zero, 1f
20010030:	00011463          	bnez	sp,20010038 <_enter+0x38>
/home/jw/Desktop/sifive-standalone-project/freedom-metal/src/entry.S:67
#ifdef __riscv_cmodel_compact
    lla.gprel sp, _sp
#else
    la sp, _sp
20010034:	cd018113          	addi	sp,gp,-816 # 80000f70 <_sp>
/home/jw/Desktop/sifive-standalone-project/freedom-metal/src/entry.S:71
#endif
1:
    /* Increment by hartid number of stack sizes */
    csrr a0, mhartid
20010038:	f1402573          	csrr	a0,mhartid
/home/jw/Desktop/sifive-standalone-project/freedom-metal/src/entry.S:72
    li t0, 0
2001003c:	4281                	li	t0,0
/home/jw/Desktop/sifive-standalone-project/freedom-metal/src/entry.S:73
    la t1, __stack_size
2001003e:	40000313          	li	t1,1024
/home/jw/Desktop/sifive-standalone-project/freedom-metal/src/entry.S:75
1:
    andi sp, sp, -16
20010042:	ff017113          	andi	sp,sp,-16
/home/jw/Desktop/sifive-standalone-project/freedom-metal/src/entry.S:76
    beq t0, a0, 1f
20010046:	00a28563          	beq	t0,a0,20010050 <_enter+0x50>
/home/jw/Desktop/sifive-standalone-project/freedom-metal/src/entry.S:77
    add sp, sp, t1
2001004a:	911a                	add	sp,sp,t1
/home/jw/Desktop/sifive-standalone-project/freedom-metal/src/entry.S:78
    addi t0, t0, 1
2001004c:	0285                	addi	t0,t0,1
/home/jw/Desktop/sifive-standalone-project/freedom-metal/src/entry.S:79
    j 1b
2001004e:	bfd5                	j	20010042 <_enter+0x42>
/home/jw/Desktop/sifive-standalone-project/freedom-metal/src/entry.S:88
     * just skip over the call entirely.   Note that __metal_initialize isn't
     * actually a full C function, as it doesn't end up with the .bss or .data
     * segments having been initialized.  This is done to avoid putting a
     * burden on systems that can be initialized without having a C environment
     * set up. */
    la ra, __metal_before_start
20010050:	00000097          	auipc	ra,0x0
20010054:	07c08093          	addi	ra,ra,124 # 200100cc <__metal_before_start>
/home/jw/Desktop/sifive-standalone-project/freedom-metal/src/entry.S:89
    beqz ra, 1f
20010058:	00008363          	beqz	ra,2001005e <_enter+0x5e>
/home/jw/Desktop/sifive-standalone-project/freedom-metal/src/entry.S:90
    jalr ra
2001005c:	9082                	jalr	ra
/home/jw/Desktop/sifive-standalone-project/freedom-metal/src/entry.S:96
1:

    /* At this point we can enter the C runtime's startup file.  The arguments
     * to this function are designed to match those provided to the SEE, just
     * so we don't have to write another ABI. */
    csrr a0, mhartid
2001005e:	f1402573          	csrr	a0,mhartid
/home/jw/Desktop/sifive-standalone-project/freedom-metal/src/entry.S:97
    li a1, 0
20010062:	4581                	li	a1,0
/home/jw/Desktop/sifive-standalone-project/freedom-metal/src/entry.S:98
    li a2, 0
20010064:	4601                	li	a2,0
/home/jw/Desktop/sifive-standalone-project/freedom-metal/src/entry.S:99
    call _start
20010066:	20ed                	jal	20010150 <_start>
/home/jw/Desktop/sifive-standalone-project/freedom-metal/src/entry.S:104

    /* If we've made it back here then there's probably something wrong.  We
     * allow the METAL to register a handler here. */
    .weak __metal_after_main
    la ra, __metal_after_main
20010068:	00000093          	li	ra,0
/home/jw/Desktop/sifive-standalone-project/freedom-metal/src/entry.S:105
    beqz ra, 1f
2001006c:	00008363          	beqz	ra,20010072 <_enter+0x72>
/home/jw/Desktop/sifive-standalone-project/freedom-metal/src/entry.S:106
    jalr ra
20010070:	9082                	jalr	ra
/home/jw/Desktop/sifive-standalone-project/freedom-metal/src/entry.S:111
1:

    /* If that handler returns then there's not a whole lot we can do.  Just
     * try to make some noise. */
     la t0, 1f
20010072:	00000297          	auipc	t0,0x0
20010076:	00c28293          	addi	t0,t0,12 # 2001007e <_enter+0x7e>
/home/jw/Desktop/sifive-standalone-project/freedom-metal/src/entry.S:112
     csrw mtvec, t0
2001007a:	30529073          	csrw	mtvec,t0
/home/jw/Desktop/sifive-standalone-project/freedom-metal/src/entry.S:114
1:
     lw t1, 0(x0)
2001007e:	00002303          	lw	t1,0(zero) # 0 <__metal_boot_hart>
/home/jw/Desktop/sifive-standalone-project/freedom-metal/src/entry.S:115
     j 1b
20010082:	bff5                	j	2001007e <_enter+0x7e>
20010084:	0000                	unimp
	...

20010088 <__register_frame_info>:
__register_frame_info():
/home/jw/Desktop/sifive-standalone-project/freedom-metal/src/entry.S:128
 * going to leave this in for now.  At least it's fairly cheap :) */
.weak __register_frame_info
.section .text.metal.init.__register_frame_info
__register_frame_info:
    .cfi_startproc
    ret
20010088:	8082                	ret

2001008a <metal_mem_scrub>:
metal_mem_scrub():
/home/jw/Desktop/sifive-standalone-project/freedom-metal/src/scrub.S:24
.type metal_mem_scrub, @function
metal_mem_scrub:

    /* Disable machine interrupts,
    restore previous mstatus value at exit */
    li      a3, 8
2001008a:	46a1                	li	a3,8
/home/jw/Desktop/sifive-standalone-project/freedom-metal/src/scrub.S:25
    csrrc   t1, mstatus, a3
2001008c:	3006b373          	csrrc	t1,mstatus,a3
/home/jw/Desktop/sifive-standalone-project/freedom-metal/src/scrub.S:28

#if __riscv_xlen == 32
    addi    t0, x0, 4
20010090:	4291                	li	t0,4
/home/jw/Desktop/sifive-standalone-project/freedom-metal/src/scrub.S:30
1:
    blt     a1, t0, 2f
20010092:	0055c563          	blt	a1,t0,2001009c <metal_mem_scrub+0x12>
/home/jw/Desktop/sifive-standalone-project/freedom-metal/src/scrub.S:31
    andi    a2, a0, 3
20010096:	00357613          	andi	a2,a0,3
/home/jw/Desktop/sifive-standalone-project/freedom-metal/src/scrub.S:32
    beqz    a2, 3f
2001009a:	ca11                	beqz	a2,200100ae <metal_mem_scrub+0x24>
/home/jw/Desktop/sifive-standalone-project/freedom-metal/src/scrub.S:34
2:
    sb      x0, 0(a0)
2001009c:	00050023          	sb	zero,0(a0)
/home/jw/Desktop/sifive-standalone-project/freedom-metal/src/scrub.S:35
    addi    a0, a0, 1
200100a0:	0505                	addi	a0,a0,1
/home/jw/Desktop/sifive-standalone-project/freedom-metal/src/scrub.S:36
    addi    a1, a1, -1
200100a2:	15fd                	addi	a1,a1,-1
/home/jw/Desktop/sifive-standalone-project/freedom-metal/src/scrub.S:37
    bgtz    a1, 1b
200100a4:	feb047e3          	bgtz	a1,20010092 <metal_mem_scrub+0x8>
/home/jw/Desktop/sifive-standalone-project/freedom-metal/src/scrub.S:38
    csrw    mstatus, t1
200100a8:	30031073          	csrw	mstatus,t1
/home/jw/Desktop/sifive-standalone-project/freedom-metal/src/scrub.S:39
    ret
200100ac:	8082                	ret
/home/jw/Desktop/sifive-standalone-project/freedom-metal/src/scrub.S:41
3:
    sw      x0, 0(a0)
200100ae:	00052023          	sw	zero,0(a0)
/home/jw/Desktop/sifive-standalone-project/freedom-metal/src/scrub.S:42
    addi    a0, a0, 4
200100b2:	0511                	addi	a0,a0,4
/home/jw/Desktop/sifive-standalone-project/freedom-metal/src/scrub.S:43
    addi    a1, a1, -4
200100b4:	15f1                	addi	a1,a1,-4
/home/jw/Desktop/sifive-standalone-project/freedom-metal/src/scrub.S:44
    bgtz    a1, 1b
200100b6:	fcb04ee3          	bgtz	a1,20010092 <metal_mem_scrub+0x8>
/home/jw/Desktop/sifive-standalone-project/freedom-metal/src/scrub.S:45
    csrw    mstatus, t1
200100ba:	30031073          	csrw	mstatus,t1
/home/jw/Desktop/sifive-standalone-project/freedom-metal/src/scrub.S:46
    ret
200100be:	8082                	ret

200100c0 <__metal_memory_scrub>:
__metal_memory_scrub():
/home/jw/Desktop/sifive-standalone-project/freedom-metal/src/scrub.S:74
.type __metal_memory_scrub, @function
__metal_memory_scrub:
/* Zero out specified memory regions */
1:
#if __riscv_xlen == 32
    sw      x0, 0(t1)
200100c0:	00032023          	sw	zero,0(t1)
/home/jw/Desktop/sifive-standalone-project/freedom-metal/src/scrub.S:75
    addi    t1, t1, 4
200100c4:	0311                	addi	t1,t1,4
/home/jw/Desktop/sifive-standalone-project/freedom-metal/src/scrub.S:76
    blt     t1, t2, 1b
200100c6:	fe734de3          	blt	t1,t2,200100c0 <__metal_memory_scrub>
/home/jw/Desktop/sifive-standalone-project/freedom-metal/src/scrub.S:82
#else
    sd      x0, 0(t1)
    addi    t1, t1, 8
    blt     t1, t2, 1b
#endif
    ret
200100ca:	8082                	ret

200100cc <__metal_before_start>:
__metal_before_start():
/home/jw/Desktop/sifive-standalone-project/freedom-metal/src/scrub.S:93
.weak __metal_eccscrub_bit
.weak __metal_before_start
.type __metal_before_start, @function
__metal_before_start:
    /* Save caller ra */
    mv      s0, ra
200100cc:	8406                	mv	s0,ra
/home/jw/Desktop/sifive-standalone-project/freedom-metal/src/scrub.S:95

    la      t0, __metal_eccscrub_bit
200100ce:	dfff0297          	auipc	t0,0xdfff0
200100d2:	f3228293          	addi	t0,t0,-206 # 0 <__metal_boot_hart>
/home/jw/Desktop/sifive-standalone-project/freedom-metal/src/scrub.S:96
    beqz    t0, skip_scrub
200100d6:	04028c63          	beqz	t0,2001012e <skip_scrub>
/home/jw/Desktop/sifive-standalone-project/freedom-metal/src/scrub.S:98

    la      t0, __metal_boot_hart
200100da:	dfff0297          	auipc	t0,0xdfff0
200100de:	f2628293          	addi	t0,t0,-218 # 0 <__metal_boot_hart>
/home/jw/Desktop/sifive-standalone-project/freedom-metal/src/scrub.S:99
    csrr    a5, mhartid
200100e2:	f14027f3          	csrr	a5,mhartid
/home/jw/Desktop/sifive-standalone-project/freedom-metal/src/scrub.S:102

    /* Disable machine interrupts to be safe */
    li      a3, 8
200100e6:	46a1                	li	a3,8
/home/jw/Desktop/sifive-standalone-project/freedom-metal/src/scrub.S:103
    csrc    mstatus, a3
200100e8:	3006b073          	csrc	mstatus,a3
/home/jw/Desktop/sifive-standalone-project/freedom-metal/src/scrub.S:106

    /* Zero out per hart stack */
    mv      t1, sp
200100ec:	830a                	mv	t1,sp
/home/jw/Desktop/sifive-standalone-project/freedom-metal/src/scrub.S:107
    la      t2, __stack_size
200100ee:	dfff0397          	auipc	t2,0xdfff0
200100f2:	31238393          	addi	t2,t2,786 # 400 <__stack_size>
/home/jw/Desktop/sifive-standalone-project/freedom-metal/src/scrub.S:108
    add     t2, t2, sp
200100f6:	938a                	add	t2,t2,sp
/home/jw/Desktop/sifive-standalone-project/freedom-metal/src/scrub.S:109
    beq     t1, t2, 1f
200100f8:	00730363          	beq	t1,t2,200100fe <__metal_before_start+0x32>
/home/jw/Desktop/sifive-standalone-project/freedom-metal/src/scrub.S:110
    jal     __metal_memory_scrub
200100fc:	37d1                	jal	200100c0 <__metal_memory_scrub>
/home/jw/Desktop/sifive-standalone-project/freedom-metal/src/scrub.S:112
1:
    bne     a5, t0, skip_scrub
200100fe:	02579863          	bne	a5,t0,2001012e <skip_scrub>
/home/jw/Desktop/sifive-standalone-project/freedom-metal/src/scrub.S:119
    /* Zero out data segment */
#ifdef __riscv_cmodel_compact
    lla.gprel t1, metal_segment_data_target_start
    lla.gprel t2, metal_segment_data_target_end
#else
    la      t1, metal_segment_data_target_start
20010102:	5fff0317          	auipc	t1,0x5fff0
20010106:	efe30313          	addi	t1,t1,-258 # 80000000 <impure_data>
/home/jw/Desktop/sifive-standalone-project/freedom-metal/src/scrub.S:120
    la      t2, metal_segment_data_target_end
2001010a:	5fff1397          	auipc	t2,0x5fff1
2001010e:	9be38393          	addi	t2,t2,-1602 # 80000ac8 <__malloc_free_list>
/home/jw/Desktop/sifive-standalone-project/freedom-metal/src/scrub.S:122
#endif
    beq     t1, t2, 1f
20010112:	00730363          	beq	t1,t2,20010118 <__metal_before_start+0x4c>
/home/jw/Desktop/sifive-standalone-project/freedom-metal/src/scrub.S:123
    jal     __metal_memory_scrub
20010116:	376d                	jal	200100c0 <__metal_memory_scrub>
/home/jw/Desktop/sifive-standalone-project/freedom-metal/src/scrub.S:130
    /* Zero out itim memory */
#ifdef __riscv_cmodel_compact
    la.got.gprel t1, metal_segment_itim_target_start
    la.got.gprel t2, metal_segment_itim_target_end
#else
    la      t1, metal_segment_itim_target_start
20010118:	e7ff0317          	auipc	t1,0xe7ff0
2001011c:	ee830313          	addi	t1,t1,-280 # 8000000 <metal_segment_itim_target_end>
/home/jw/Desktop/sifive-standalone-project/freedom-metal/src/scrub.S:131
    la      t2, metal_segment_itim_target_end
20010120:	e7ff0397          	auipc	t2,0xe7ff0
20010124:	ee038393          	addi	t2,t2,-288 # 8000000 <metal_segment_itim_target_end>
/home/jw/Desktop/sifive-standalone-project/freedom-metal/src/scrub.S:133
#endif
    beq     t1, t2, skip_scrub
20010128:	00730363          	beq	t1,t2,2001012e <skip_scrub>
/home/jw/Desktop/sifive-standalone-project/freedom-metal/src/scrub.S:134
    jal     __metal_memory_scrub
2001012c:	3f51                	jal	200100c0 <__metal_memory_scrub>

2001012e <skip_scrub>:
skip_scrub():
/home/jw/Desktop/sifive-standalone-project/freedom-metal/src/scrub.S:138

skip_scrub:
    /* Restore caller ra */
    mv      ra, s0
2001012e:	80a2                	mv	ra,s0
/home/jw/Desktop/sifive-standalone-project/freedom-metal/src/scrub.S:139
    ret
20010130:	8082                	ret
	...

20010134 <early_trap_vector>:
early_trap_vector():
/home/jw/Desktop/sifive-standalone-project/freedom-metal/src/trap.S:64
.section .text.metal.init.trapvec
.global early_trap_vector
.align 2
early_trap_vector:
    .cfi_startproc
    csrr t0, mcause
20010134:	342022f3          	csrr	t0,mcause
/home/jw/Desktop/sifive-standalone-project/freedom-metal/src/trap.S:65
    csrr t1, mepc
20010138:	34102373          	csrr	t1,mepc
/home/jw/Desktop/sifive-standalone-project/freedom-metal/src/trap.S:66
    csrr t2, mtval
2001013c:	343023f3          	csrr	t2,mtval
/home/jw/Desktop/sifive-standalone-project/freedom-metal/src/trap.S:67
    j early_trap_vector
20010140:	bfd5                	j	20010134 <early_trap_vector>

20010142 <__metal_synchronize_harts>:
__metal_synchronize_harts():
/home/jw/Desktop/sifive-standalone-project/freedom-metal/src/synchronize_harts.c:19
/*
 * _synchronize_harts() is called by crt0.S to cause harts > 0 to wait for
 * hart 0 to finish copying the datat section, zeroing the BSS, and running
 * the libc contstructors.
 */
__attribute__((section(".init"))) void __metal_synchronize_harts() {
20010142:	1141                	addi	sp,sp,-16
20010144:	c622                	sw	s0,12(sp)
20010146:	0800                	addi	s0,sp,16
/home/jw/Desktop/sifive-standalone-project/freedom-metal/src/synchronize_harts.c:66
        while (METAL_MSIP(msip_base, hart) == 1)
            ;
    }

#endif /* __METAL_DT_MAX_HARTS > 1 */
}
20010148:	0001                	nop
2001014a:	4432                	lw	s0,12(sp)
2001014c:	0141                	addi	sp,sp,16
2001014e:	8082                	ret

20010150 <_start>:
_start():
/home/jw/Desktop/sifive-standalone-project/freedom-metal/gloss/crt0.S:36
.cfi_startproc
.cfi_undefined ra

  /* This is a bit funky: it's not usually sane for _start to return, but in
   * this case we actually want to in order to signal an error to the METAL. */
  mv s0, ra
20010150:	8406                	mv	s0,ra
/home/jw/Desktop/sifive-standalone-project/freedom-metal/gloss/crt0.S:51
  auipc a0, %pcrel_hi(__global_pointer__)
  addi a0, a0, %pcrel_lo(1b)
  ld   gp, 0(a0)
  add  gp, gp, a0
#else
  la gp, __global_pointer$
20010152:	5fff1197          	auipc	gp,0x5fff1
20010156:	14e18193          	addi	gp,gp,334 # 800012a0 <__global_pointer$>
/home/jw/Desktop/sifive-standalone-project/freedom-metal/gloss/crt0.S:58
.option pop

  /* Stack pointer is expected to be initialized before _start */

  /* If we're not hart 0, skip the initialization work */
  la t0, __metal_boot_hart
2001015a:	00000293          	li	t0,0
/home/jw/Desktop/sifive-standalone-project/freedom-metal/gloss/crt0.S:59
  bne a0, t0, _skip_init
2001015e:	0e551163          	bne	a0,t0,20010240 <_skip_init>
/home/jw/Desktop/sifive-standalone-project/freedom-metal/gloss/crt0.S:73
#ifdef __riscv_cmodel_compact
  la.got.gprel t0, metal_segment_data_source_start
  lla.gprel t1, metal_segment_data_target_start
  lla.gprel t2, metal_segment_data_target_end
#else
  la t0, metal_segment_data_source_start
20010162:	00007297          	auipc	t0,0x7
20010166:	fe628293          	addi	t0,t0,-26 # 20017148 <metal_segment_data_source_start>
/home/jw/Desktop/sifive-standalone-project/freedom-metal/gloss/crt0.S:74
  la t1, metal_segment_data_target_start
2001016a:	5fff0317          	auipc	t1,0x5fff0
2001016e:	e9630313          	addi	t1,t1,-362 # 80000000 <impure_data>
/home/jw/Desktop/sifive-standalone-project/freedom-metal/gloss/crt0.S:75
  la t2, metal_segment_data_target_end
20010172:	5fff1397          	auipc	t2,0x5fff1
20010176:	95638393          	addi	t2,t2,-1706 # 80000ac8 <__malloc_free_list>
/home/jw/Desktop/sifive-standalone-project/freedom-metal/gloss/crt0.S:78
#endif

  beq t0, t1, 2f
2001017a:	00628c63          	beq	t0,t1,20010192 <_start+0x42>
/home/jw/Desktop/sifive-standalone-project/freedom-metal/gloss/crt0.S:79
  bge t1, t2, 2f
2001017e:	00735a63          	bge	t1,t2,20010192 <_start+0x42>
/home/jw/Desktop/sifive-standalone-project/freedom-metal/gloss/crt0.S:83

1:
#if __riscv_xlen == 32
  lw   a0, 0(t0)
20010182:	0002a503          	lw	a0,0(t0)
/home/jw/Desktop/sifive-standalone-project/freedom-metal/gloss/crt0.S:84
  addi t0, t0, 4
20010186:	0291                	addi	t0,t0,4
/home/jw/Desktop/sifive-standalone-project/freedom-metal/gloss/crt0.S:85
  sw   a0, 0(t1)
20010188:	00a32023          	sw	a0,0(t1)
/home/jw/Desktop/sifive-standalone-project/freedom-metal/gloss/crt0.S:86
  addi t1, t1, 4
2001018c:	0311                	addi	t1,t1,4
/home/jw/Desktop/sifive-standalone-project/freedom-metal/gloss/crt0.S:87
  blt  t1, t2, 1b
2001018e:	fe734ae3          	blt	t1,t2,20010182 <_start+0x32>
/home/jw/Desktop/sifive-standalone-project/freedom-metal/gloss/crt0.S:103
#ifdef __riscv_cmodel_compact
  la.got.gprel t0, metal_segment_itim_source_start
  la.got.gprel t1, metal_segment_itim_target_start
  la.got.gprel t2, metal_segment_itim_target_end
#else
  la t0, metal_segment_itim_source_start
20010192:	00001297          	auipc	t0,0x1
20010196:	e7e28293          	addi	t0,t0,-386 # 20011010 <metal_segment_itim_source_start>
/home/jw/Desktop/sifive-standalone-project/freedom-metal/gloss/crt0.S:104
  la t1, metal_segment_itim_target_start
2001019a:	e7ff0317          	auipc	t1,0xe7ff0
2001019e:	e6630313          	addi	t1,t1,-410 # 8000000 <metal_segment_itim_target_end>
/home/jw/Desktop/sifive-standalone-project/freedom-metal/gloss/crt0.S:105
  la t2, metal_segment_itim_target_end
200101a2:	e7ff0397          	auipc	t2,0xe7ff0
200101a6:	e5e38393          	addi	t2,t2,-418 # 8000000 <metal_segment_itim_target_end>
/home/jw/Desktop/sifive-standalone-project/freedom-metal/gloss/crt0.S:108
#endif

  beq t0, t1, 2f
200101aa:	00628c63          	beq	t0,t1,200101c2 <_start+0x72>
/home/jw/Desktop/sifive-standalone-project/freedom-metal/gloss/crt0.S:109
  bge t1, t2, 2f
200101ae:	00735a63          	bge	t1,t2,200101c2 <_start+0x72>
/home/jw/Desktop/sifive-standalone-project/freedom-metal/gloss/crt0.S:113

1:
#if __riscv_xlen == 32
  lw   a0, 0(t0)
200101b2:	0002a503          	lw	a0,0(t0)
/home/jw/Desktop/sifive-standalone-project/freedom-metal/gloss/crt0.S:114
  addi t0, t0, 4
200101b6:	0291                	addi	t0,t0,4
/home/jw/Desktop/sifive-standalone-project/freedom-metal/gloss/crt0.S:115
  sw   a0, 0(t1)
200101b8:	00a32023          	sw	a0,0(t1)
/home/jw/Desktop/sifive-standalone-project/freedom-metal/gloss/crt0.S:116
  addi t1, t1, 4
200101bc:	0311                	addi	t1,t1,4
/home/jw/Desktop/sifive-standalone-project/freedom-metal/gloss/crt0.S:117
  blt  t1, t2, 1b
200101be:	fe734ae3          	blt	t1,t2,200101b2 <_start+0x62>
/home/jw/Desktop/sifive-standalone-project/freedom-metal/gloss/crt0.S:129
#endif
2:

  /* Fence all subsequent instruction fetches until after the ITIM writes
     complete */
  fence.i
200101c2:	0000100f          	fence.i
/home/jw/Desktop/sifive-standalone-project/freedom-metal/gloss/crt0.S:139
#ifdef __riscv_cmodel_compact
  la.got.gprel t0, metal_segment_lim_source_start
  lla.gprel t1, metal_segment_lim_target_start
  lla.gprel t2, metal_segment_lim_target_end
#else
  la t0, metal_segment_lim_source_start
200101c6:	00001297          	auipc	t0,0x1
200101ca:	e4a28293          	addi	t0,t0,-438 # 20011010 <metal_segment_itim_source_start>
/home/jw/Desktop/sifive-standalone-project/freedom-metal/gloss/crt0.S:140
  la t1, metal_segment_lim_target_start
200101ce:	5fff0317          	auipc	t1,0x5fff0
200101d2:	e3230313          	addi	t1,t1,-462 # 80000000 <impure_data>
/home/jw/Desktop/sifive-standalone-project/freedom-metal/gloss/crt0.S:141
  la t2, metal_segment_lim_target_end
200101d6:	5fff0397          	auipc	t2,0x5fff0
200101da:	e2a38393          	addi	t2,t2,-470 # 80000000 <impure_data>
/home/jw/Desktop/sifive-standalone-project/freedom-metal/gloss/crt0.S:144
#endif

  beq t0, t1, 2f
200101de:	00628c63          	beq	t0,t1,200101f6 <_start+0xa6>
/home/jw/Desktop/sifive-standalone-project/freedom-metal/gloss/crt0.S:145
  bge t1, t2, 2f
200101e2:	00735a63          	bge	t1,t2,200101f6 <_start+0xa6>
/home/jw/Desktop/sifive-standalone-project/freedom-metal/gloss/crt0.S:149

1:
#if __riscv_xlen == 32
  lw   a0, 0(t0)
200101e6:	0002a503          	lw	a0,0(t0)
/home/jw/Desktop/sifive-standalone-project/freedom-metal/gloss/crt0.S:150
  addi t0, t0, 4
200101ea:	0291                	addi	t0,t0,4
/home/jw/Desktop/sifive-standalone-project/freedom-metal/gloss/crt0.S:151
  sw   a0, 0(t1)
200101ec:	00a32023          	sw	a0,0(t1)
/home/jw/Desktop/sifive-standalone-project/freedom-metal/gloss/crt0.S:152
  addi t1, t1, 4
200101f0:	0311                	addi	t1,t1,4
/home/jw/Desktop/sifive-standalone-project/freedom-metal/gloss/crt0.S:153
  blt  t1, t2, 1b
200101f2:	fe734ae3          	blt	t1,t2,200101e6 <_start+0x96>
/home/jw/Desktop/sifive-standalone-project/freedom-metal/gloss/crt0.S:165
#endif
2:

  /* Fence all subsequent instruction fetches until after the LIM writes
     complete */
  fence.i
200101f6:	0000100f          	fence.i
/home/jw/Desktop/sifive-standalone-project/freedom-metal/gloss/crt0.S:172
  /* Zero the BSS segment. */
#ifdef __riscv_cmodel_compact
  lla.gprel t1, metal_segment_bss_target_start
  lla.gprel t2, metal_segment_bss_target_end
#else
  la t1, metal_segment_bss_target_start
200101fa:	5fff1317          	auipc	t1,0x5fff1
200101fe:	8ce30313          	addi	t1,t1,-1842 # 80000ac8 <__malloc_free_list>
/home/jw/Desktop/sifive-standalone-project/freedom-metal/gloss/crt0.S:173
  la t2, metal_segment_bss_target_end
20010202:	8cc18393          	addi	t2,gp,-1844 # 80000b6c <metal_segment_bss_target_end>
/home/jw/Desktop/sifive-standalone-project/freedom-metal/gloss/crt0.S:176
#endif

  bge t1, t2, 2f
20010206:	00735763          	bge	t1,t2,20010214 <_start+0xc4>
/home/jw/Desktop/sifive-standalone-project/freedom-metal/gloss/crt0.S:180

1:
#if __riscv_xlen == 32
  sw   x0, 0(t1)
2001020a:	00032023          	sw	zero,0(t1)
/home/jw/Desktop/sifive-standalone-project/freedom-metal/gloss/crt0.S:181
  addi t1, t1, 4
2001020e:	0311                	addi	t1,t1,4
/home/jw/Desktop/sifive-standalone-project/freedom-metal/gloss/crt0.S:182
  blt  t1, t2, 1b
20010210:	fe734de3          	blt	t1,t2,2001020a <_start+0xba>
/home/jw/Desktop/sifive-standalone-project/freedom-metal/gloss/crt0.S:195
  /* Set TLS pointer */
  .weak __tls_base	
#ifdef __riscv_cmodel_compact
  lla.gprel tp, __tls_base
#else
  la tp, __tls_base
20010214:	5fff1217          	auipc	tp,0x5fff1
20010218:	8b420213          	addi	tp,tp,-1868 # 80000ac8 <__malloc_free_list>
/home/jw/Desktop/sifive-standalone-project/freedom-metal/gloss/crt0.S:201
#endif

  /* At this point we're in an environment that can execute C code.  The first
   * thing to do is to make the callback to the parent environment if it's been
   * requested to do so. */
  beqz a2, 1f
2001021c:	c211                	beqz	a2,20010220 <_start+0xd0>
/home/jw/Desktop/sifive-standalone-project/freedom-metal/gloss/crt0.S:202
  jalr a2
2001021e:	9602                	jalr	a2
/home/jw/Desktop/sifive-standalone-project/freedom-metal/gloss/crt0.S:206
1:

  /* The RISC-V port only uses new-style constructors and destructors. */
  la a0, __libc_fini_array
20010220:	00002517          	auipc	a0,0x2
20010224:	2f650513          	addi	a0,a0,758 # 20012516 <__libc_fini_array>
/home/jw/Desktop/sifive-standalone-project/freedom-metal/gloss/crt0.S:207
  call atexit
20010228:	2b0020ef          	jal	ra,200124d8 <atexit>
/home/jw/Desktop/sifive-standalone-project/freedom-metal/gloss/crt0.S:208
  call __libc_init_array
2001022c:	320020ef          	jal	ra,2001254c <__libc_init_array>
/home/jw/Desktop/sifive-standalone-project/freedom-metal/gloss/crt0.S:212

  /* Register metal_fini_run as a destructor and call metal_init_run to
   * run and setup Metal constructors */
  la a0, metal_fini_run
20010230:	00002517          	auipc	a0,0x2
20010234:	5c250513          	addi	a0,a0,1474 # 200127f2 <metal_fini_run>
/home/jw/Desktop/sifive-standalone-project/freedom-metal/gloss/crt0.S:213
  call atexit
20010238:	2a0020ef          	jal	ra,200124d8 <atexit>
/home/jw/Desktop/sifive-standalone-project/freedom-metal/gloss/crt0.S:214
  call metal_init_run
2001023c:	5a2020ef          	jal	ra,200127de <metal_init_run>

20010240 <_skip_init>:
_skip_init():
/home/jw/Desktop/sifive-standalone-project/freedom-metal/gloss/crt0.S:220

_skip_init:

  /* Synchronize harts so that secondary harts wait until hart 0 finishes
     initializing */
  call __metal_synchronize_harts
20010240:	3709                	jal	20010142 <__metal_synchronize_harts>
/home/jw/Desktop/sifive-standalone-project/freedom-metal/gloss/crt0.S:223

  /* Disable and clear all interrupt sources */
  li   a3, -1
20010242:	56fd                	li	a3,-1
/home/jw/Desktop/sifive-standalone-project/freedom-metal/gloss/crt0.S:224
  csrc mie, a3
20010244:	3046b073          	csrc	mie,a3
/home/jw/Desktop/sifive-standalone-project/freedom-metal/gloss/crt0.S:225
  csrc mip, a3
20010248:	3446b073          	csrc	mip,a3
/home/jw/Desktop/sifive-standalone-project/freedom-metal/gloss/crt0.S:229

  /* The delegation CSRs exist if user mode interrupts (N extension) or
   * supervisor mode (S extension) are supported */
  csrr a5, misa
2001024c:	301027f3          	csrr	a5,misa
/home/jw/Desktop/sifive-standalone-project/freedom-metal/gloss/crt0.S:230
  lui  a4, 0x42
20010250:	00042737          	lui	a4,0x42
/home/jw/Desktop/sifive-standalone-project/freedom-metal/gloss/crt0.S:231
  and  a4, a4, a5
20010254:	8f7d                	and	a4,a4,a5
/home/jw/Desktop/sifive-standalone-project/freedom-metal/gloss/crt0.S:232
  beqz a4, 1f
20010256:	c709                	beqz	a4,20010260 <_skip_init+0x20>
/home/jw/Desktop/sifive-standalone-project/freedom-metal/gloss/crt0.S:233
  csrc mideleg, a3
20010258:	3036b073          	csrc	mideleg,a3
/home/jw/Desktop/sifive-standalone-project/freedom-metal/gloss/crt0.S:234
  csrc medeleg, a3
2001025c:	3026b073          	csrc	medeleg,a3
/home/jw/Desktop/sifive-standalone-project/freedom-metal/gloss/crt0.S:238
1:

  /* The satp CSR exists if supervisor mode (S extension) is supported */
  lui  a4, 0x40
20010260:	00040737          	lui	a4,0x40
/home/jw/Desktop/sifive-standalone-project/freedom-metal/gloss/crt0.S:239
  and  a4, a4, a5
20010264:	8f7d                	and	a4,a4,a5
/home/jw/Desktop/sifive-standalone-project/freedom-metal/gloss/crt0.S:240
  beqz a4, 1f
20010266:	c319                	beqz	a4,2001026c <_skip_init+0x2c>
/home/jw/Desktop/sifive-standalone-project/freedom-metal/gloss/crt0.S:241
  csrc satp, a3
20010268:	1806b073          	csrc	satp,a3
/home/jw/Desktop/sifive-standalone-project/freedom-metal/gloss/crt0.S:245
1:

  /* Check RISC-V isa and enable FS bits if Floating Point architecture. */
  li   a4, 0x10028
2001026c:	6741                	lui	a4,0x10
2001026e:	02870713          	addi	a4,a4,40 # 10028 <__heap_size+0xf828>
/home/jw/Desktop/sifive-standalone-project/freedom-metal/gloss/crt0.S:246
  and  a5, a5, a4
20010272:	8ff9                	and	a5,a5,a4
/home/jw/Desktop/sifive-standalone-project/freedom-metal/gloss/crt0.S:247
  beqz a5, 1f
20010274:	cb89                	beqz	a5,20010286 <_skip_init+0x46>
/home/jw/Desktop/sifive-standalone-project/freedom-metal/gloss/crt0.S:248
  csrr a5, mstatus
20010276:	300027f3          	csrr	a5,mstatus
/home/jw/Desktop/sifive-standalone-project/freedom-metal/gloss/crt0.S:249
  lui  a4, 0x2
2001027a:	6709                	lui	a4,0x2
/home/jw/Desktop/sifive-standalone-project/freedom-metal/gloss/crt0.S:250
  or   a5, a5, a4
2001027c:	8fd9                	or	a5,a5,a4
/home/jw/Desktop/sifive-standalone-project/freedom-metal/gloss/crt0.S:251
  csrw mstatus, a5
2001027e:	30079073          	csrw	mstatus,a5
/home/jw/Desktop/sifive-standalone-project/freedom-metal/gloss/crt0.S:252
  csrwi fcsr, 0
20010282:	00305073          	csrwi	fcsr,0
/home/jw/Desktop/sifive-standalone-project/freedom-metal/gloss/crt0.S:273
#endif

  /* This is a C runtime, so main() is defined to have some arguments.  Since
   * there's nothing sane the METAL can pass we don't bother with that but
   * instead just setup as close to a NOP as we can. */
  li a0, 1     /* argc=1 */
20010286:	4505                	li	a0,1
/home/jw/Desktop/sifive-standalone-project/freedom-metal/gloss/crt0.S:274
  la a1, argv  /* argv = {"libgloss", NULL} */
20010288:	00000597          	auipc	a1,0x0
2001028c:	21058593          	addi	a1,a1,528 # 20010498 <argv>
/home/jw/Desktop/sifive-standalone-project/freedom-metal/gloss/crt0.S:275
  la a2, envp  /* envp = {NULL} */
20010290:	00000617          	auipc	a2,0x0
20010294:	20c60613          	addi	a2,a2,524 # 2001049c <envp>
/home/jw/Desktop/sifive-standalone-project/freedom-metal/gloss/crt0.S:276
  call secondary_main
20010298:	2031                	jal	200102a4 <secondary_main>
/home/jw/Desktop/sifive-standalone-project/freedom-metal/gloss/crt0.S:282

  /* Call exit to handle libc's cleanup routines.  Under normal contains this
   * shouldn't even get called, but I'm still not using a tail call here
   * because returning to the METAL is the right thing to do in pathological
   * situations. */
  call exit
2001029a:	252020ef          	jal	ra,200124ec <exit>
/home/jw/Desktop/sifive-standalone-project/freedom-metal/gloss/crt0.S:287

  /* And here's where we return.  Again, it's a bit odd but the METAL defines
   * this as a bad idea (ie, as opposed to leaving it undefined) and at this
   * point it's really the only thing left to do. */
  mv ra, s0
2001029e:	80a2                	mv	ra,s0
/home/jw/Desktop/sifive-standalone-project/freedom-metal/gloss/crt0.S:288
  ret
200102a0:	8082                	ret

200102a2 <_fini>:
_init():
/home/jw/Desktop/sifive-standalone-project/freedom-metal/gloss/crt0.S:300
.type   _init, @function
.global _fini
.type   _fini, @function
_init:
_fini:
  ret
200102a2:	8082                	ret

200102a4 <secondary_main>:
secondary_main():
/home/jw/Desktop/sifive-standalone-project/freedom-metal/gloss/crt0.S:310
 * Users can redefine secondary_main themselves to run code on secondary harts */
.weak   secondary_main
.type   secondary_main, @function

secondary_main:
  addi sp, sp, -16
200102a4:	1141                	addi	sp,sp,-16
/home/jw/Desktop/sifive-standalone-project/freedom-metal/gloss/crt0.S:312
#if __riscv_xlen == 32
  sw ra, 4(sp)
200102a6:	c206                	sw	ra,4(sp)
/home/jw/Desktop/sifive-standalone-project/freedom-metal/gloss/crt0.S:316
#else
  sd ra, 8(sp)
#endif
  csrr t0, mhartid
200102a8:	f14022f3          	csrr	t0,mhartid
/home/jw/Desktop/sifive-standalone-project/freedom-metal/gloss/crt0.S:317
  la t1, __metal_boot_hart
200102ac:	00000313          	li	t1,0
/home/jw/Desktop/sifive-standalone-project/freedom-metal/gloss/crt0.S:318
  beq t0, t1, 2f
200102b0:	00628563          	beq	t0,t1,200102ba <secondary_main+0x16>
/home/jw/Desktop/sifive-standalone-project/freedom-metal/gloss/crt0.S:320
1:
  wfi
200102b4:	10500073          	wfi
/home/jw/Desktop/sifive-standalone-project/freedom-metal/gloss/crt0.S:321
  j 1b
200102b8:	bff5                	j	200102b4 <secondary_main+0x10>
/home/jw/Desktop/sifive-standalone-project/freedom-metal/gloss/crt0.S:323
2:
  call main
200102ba:	5c7000ef          	jal	ra,20011080 <main>
/home/jw/Desktop/sifive-standalone-project/freedom-metal/gloss/crt0.S:325
#if __riscv_xlen == 32
  lw ra, 4(sp)
200102be:	4092                	lw	ra,4(sp)
/home/jw/Desktop/sifive-standalone-project/freedom-metal/gloss/crt0.S:329
#else
  ld ra, 8(sp)
#endif
  addi sp, sp, 16
200102c0:	0141                	addi	sp,sp,16
/home/jw/Desktop/sifive-standalone-project/freedom-metal/gloss/crt0.S:330
  ret
200102c2:	8082                	ret

Disassembly of section .ctors:

200102d4 <metal_tty_init>:
metal_tty_init():
/home/jw/Desktop/sifive-standalone-project/freedom-metal/src/tty.c:28

#ifndef __METAL_DT_STDOUT_UART_BAUD
#define __METAL_DT_STDOUT_UART_BAUD 115200
#endif

METAL_CONSTRUCTOR(metal_tty_init) {
200102d4:	1141                	addi	sp,sp,-16
200102d6:	c606                	sw	ra,12(sp)
200102d8:	c422                	sw	s0,8(sp)
200102da:	0800                	addi	s0,sp,16
/home/jw/Desktop/sifive-standalone-project/freedom-metal/src/tty.c:29
    metal_uart_init(__METAL_DT_STDOUT_UART_HANDLE, __METAL_DT_STDOUT_UART_BAUD);
200102dc:	67f1                	lui	a5,0x1c
200102de:	20078593          	addi	a1,a5,512 # 1c200 <__heap_size+0x1ba00>
200102e2:	800017b7          	lui	a5,0x80001
200102e6:	a3878513          	addi	a0,a5,-1480 # 80000a38 <metal_segment_heap_target_end+0xfffff2c8>
200102ea:	542020ef          	jal	ra,2001282c <metal_uart_init>
/home/jw/Desktop/sifive-standalone-project/freedom-metal/src/tty.c:30
}
200102ee:	0001                	nop
200102f0:	40b2                	lw	ra,12(sp)
200102f2:	4422                	lw	s0,8(sp)
200102f4:	0141                	addi	sp,sp,16
200102f6:	8082                	ret

200102f8 <metal_sifive_fe310_g000_pll_init>:
metal_sifive_fe310_g000_pll_init():
/home/jw/Desktop/sifive-standalone-project/freedom-metal/src/drivers/sifive_fe310-g000_pll.c:151
    return pll_input_rate * config->multiplier / config->divisor;
}

#ifdef __METAL_DT_SIFIVE_FE310_G000_PLL_HANDLE

METAL_CONSTRUCTOR(metal_sifive_fe310_g000_pll_init) {
200102f8:	1101                	addi	sp,sp,-32
200102fa:	ce06                	sw	ra,28(sp)
200102fc:	cc22                	sw	s0,24(sp)
200102fe:	1000                	addi	s0,sp,32
/home/jw/Desktop/sifive-standalone-project/freedom-metal/src/drivers/sifive_fe310-g000_pll.c:152
    long init_rate = __metal_driver_sifive_fe310_g000_pll_init_rate();
20010300:	21e050ef          	jal	ra,2001551e <__metal_driver_sifive_fe310_g000_pll_init_rate>
20010304:	fea42623          	sw	a0,-20(s0)
/home/jw/Desktop/sifive-standalone-project/freedom-metal/src/drivers/sifive_fe310-g000_pll.c:154
    /* If the PLL init_rate is zero, don't initialize the PLL */
    if (init_rate != 0)
20010308:	fec42783          	lw	a5,-20(s0)
2001030c:	c799                	beqz	a5,2001031a <metal_sifive_fe310_g000_pll_init+0x22>
/home/jw/Desktop/sifive-standalone-project/freedom-metal/src/drivers/sifive_fe310-g000_pll.c:155
        __metal_driver_sifive_fe310_g000_pll_init(
2001030e:	800017b7          	lui	a5,0x80001
20010312:	a9078513          	addi	a0,a5,-1392 # 80000a90 <metal_segment_heap_target_end+0xfffff320>
20010316:	294050ef          	jal	ra,200155aa <__metal_driver_sifive_fe310_g000_pll_init>
/home/jw/Desktop/sifive-standalone-project/freedom-metal/src/drivers/sifive_fe310-g000_pll.c:157
            __METAL_DT_SIFIVE_FE310_G000_PLL_HANDLE);
}
2001031a:	0001                	nop
2001031c:	40f2                	lw	ra,28(sp)
2001031e:	4462                	lw	s0,24(sp)
20010320:	6105                	addi	sp,sp,32
20010322:	8082                	ret

20010324 <use_hfxosc>:
use_hfxosc():
/home/jw/Desktop/sifive-standalone-project/freedom-metal/src/drivers/sifive_fe310-g000_pll.c:389

    return __metal_driver_sifive_fe310_g000_pll_get_rate_hz(clock);
}

#ifdef __METAL_DT_SIFIVE_FE310_G000_PLL_HANDLE
METAL_CONSTRUCTOR(use_hfxosc) {
20010324:	1101                	addi	sp,sp,-32
20010326:	ce06                	sw	ra,28(sp)
20010328:	cc22                	sw	s0,24(sp)
2001032a:	1000                	addi	s0,sp,32
/home/jw/Desktop/sifive-standalone-project/freedom-metal/src/drivers/sifive_fe310-g000_pll.c:390
    long init_rate = __metal_driver_sifive_fe310_g000_pll_init_rate();
2001032c:	1f2050ef          	jal	ra,2001551e <__metal_driver_sifive_fe310_g000_pll_init_rate>
20010330:	fea42623          	sw	a0,-20(s0)
/home/jw/Desktop/sifive-standalone-project/freedom-metal/src/drivers/sifive_fe310-g000_pll.c:391
    metal_clock_set_rate_hz(&__METAL_DT_SIFIVE_FE310_G000_PLL_HANDLE->clock,
20010334:	fec42583          	lw	a1,-20(s0)
20010338:	800017b7          	lui	a5,0x80001
2001033c:	a9078513          	addi	a0,a5,-1392 # 80000a90 <metal_segment_heap_target_end+0xfffff320>
20010340:	317060ef          	jal	ra,20016e56 <metal_clock_set_rate_hz>
/home/jw/Desktop/sifive-standalone-project/freedom-metal/src/drivers/sifive_fe310-g000_pll.c:393
                            init_rate);
}
20010344:	0001                	nop
20010346:	40f2                	lw	ra,28(sp)
20010348:	4462                	lw	s0,24(sp)
2001034a:	6105                	addi	sp,sp,32
2001034c:	8082                	ret

Disassembly of section .text:

20011080 <main>:
main():
/home/jw/Desktop/sifive-standalone-project/src/hello.c:8

#include <stdio.h>
#include <string.h>
#include <stdlib.h>

int main() {
20011080:	1141                	addi	sp,sp,-16
20011082:	c606                	sw	ra,12(sp)
20011084:	c422                	sw	s0,8(sp)
20011086:	0800                	addi	s0,sp,16
/home/jw/Desktop/sifive-standalone-project/src/hello.c:29
    // strcpy(dest, "Today is a great day!");
    // printf("Test 2: %s \n", dest);
    // strcpy(dest, "Hello, world! Today is a great day!");
    // printf("Test 3: %s \n", dest);

    printf("David says , \" Programming is fun ! \". \n");
20011088:	200107b7          	lui	a5,0x20010
2001108c:	35078513          	addi	a0,a5,848 # 20010350 <use_hfxosc+0x2c>
20011090:	2a35                	jal	200111cc <puts>
/home/jw/Desktop/sifive-standalone-project/src/hello.c:30
    printf("Good day !\n");
20011092:	200107b7          	lui	a5,0x20010
20011096:	37878513          	addi	a0,a5,888 # 20010378 <use_hfxosc+0x54>
2001109a:	2a0d                	jal	200111cc <puts>
/home/jw/Desktop/sifive-standalone-project/src/hello.c:44
    // unsigned long t6;       // unsigned long int
    // unsigned short t7;      // unsigned short int

    // size_t sz = sizeof(some_var);

    printf("Size of char data type = %d\n", sizeof(t1));
2001109c:	4585                	li	a1,1
2001109e:	200107b7          	lui	a5,0x20010
200110a2:	38478513          	addi	a0,a5,900 # 20010384 <use_hfxosc+0x60>
200110a6:	2039                	jal	200110b4 <iprintf>
/home/jw/Desktop/sifive-standalone-project/src/hello.c:47


    return 0;
200110a8:	4781                	li	a5,0
/home/jw/Desktop/sifive-standalone-project/src/hello.c:48
}
200110aa:	853e                	mv	a0,a5
200110ac:	40b2                	lw	ra,12(sp)
200110ae:	4422                	lw	s0,8(sp)
200110b0:	0141                	addi	sp,sp,16
200110b2:	8082                	ret

200110b4 <iprintf>:
printf():
200110b4:	715d                	addi	sp,sp,-80
200110b6:	d422                	sw	s0,40(sp)
200110b8:	d606                	sw	ra,44(sp)
200110ba:	842a                	mv	s0,a0
200110bc:	da2e                	sw	a1,52(sp)
200110be:	dc32                	sw	a2,56(sp)
200110c0:	de36                	sw	a3,60(sp)
200110c2:	c0ba                	sw	a4,64(sp)
200110c4:	c2be                	sw	a5,68(sp)
200110c6:	c4c2                	sw	a6,72(sp)
200110c8:	c6c6                	sw	a7,76(sp)
200110ca:	5fff0517          	auipc	a0,0x5fff0
200110ce:	9d652503          	lw	a0,-1578(a0) # 80000aa0 <_impure_ptr>
200110d2:	c511                	beqz	a0,200110de <iprintf+0x2a>
200110d4:	4d1c                	lw	a5,24(a0)
200110d6:	e781                	bnez	a5,200110de <iprintf+0x2a>
200110d8:	c62a                	sw	a0,12(sp)
200110da:	2325                	jal	20011602 <__sinit>
200110dc:	4532                	lw	a0,12(sp)
200110de:	450c                	lw	a1,8(a0)
200110e0:	1854                	addi	a3,sp,52
200110e2:	8622                	mv	a2,s0
200110e4:	ce36                	sw	a3,28(sp)
200110e6:	213000ef          	jal	ra,20011af8 <_vfiprintf_r>
200110ea:	50b2                	lw	ra,44(sp)
200110ec:	5422                	lw	s0,40(sp)
200110ee:	6161                	addi	sp,sp,80
200110f0:	8082                	ret

200110f2 <_puts_r>:
_puts_r():
200110f2:	1101                	addi	sp,sp,-32
200110f4:	ca26                	sw	s1,20(sp)
200110f6:	c84a                	sw	s2,16(sp)
200110f8:	ce06                	sw	ra,28(sp)
200110fa:	cc22                	sw	s0,24(sp)
200110fc:	c64e                	sw	s3,12(sp)
200110fe:	c452                	sw	s4,8(sp)
20011100:	84aa                	mv	s1,a0
20011102:	892e                	mv	s2,a1
20011104:	c501                	beqz	a0,2001110c <_puts_r+0x1a>
20011106:	4d1c                	lw	a5,24(a0)
20011108:	e391                	bnez	a5,2001110c <_puts_r+0x1a>
2001110a:	29e5                	jal	20011602 <__sinit>
2001110c:	4c9c                	lw	a5,24(s1)
2001110e:	4480                	lw	s0,8(s1)
20011110:	e399                	bnez	a5,20011116 <_puts_r+0x24>
20011112:	8526                	mv	a0,s1
20011114:	21fd                	jal	20011602 <__sinit>
20011116:	fffff797          	auipc	a5,0xfffff
2001111a:	2ae78793          	addi	a5,a5,686 # 200103c4 <__sf_fake_stdin>
2001111e:	02f41c63          	bne	s0,a5,20011156 <_puts_r+0x64>
20011122:	40c0                	lw	s0,4(s1)
20011124:	00c45783          	lhu	a5,12(s0)
20011128:	8ba1                	andi	a5,a5,8
2001112a:	c7b1                	beqz	a5,20011176 <_puts_r+0x84>
2001112c:	481c                	lw	a5,16(s0)
2001112e:	c7a1                	beqz	a5,20011176 <_puts_r+0x84>
20011130:	59fd                	li	s3,-1
20011132:	4a29                	li	s4,10
20011134:	441c                	lw	a5,8(s0)
20011136:	00094583          	lbu	a1,0(s2)
2001113a:	17fd                	addi	a5,a5,-1
2001113c:	e9b1                	bnez	a1,20011190 <_puts_r+0x9e>
2001113e:	c41c                	sw	a5,8(s0)
20011140:	0607de63          	bgez	a5,200111bc <_puts_r+0xca>
20011144:	8622                	mv	a2,s0
20011146:	45a9                	li	a1,10
20011148:	8526                	mv	a0,s1
2001114a:	2079                	jal	200111d8 <__swbuf_r>
2001114c:	57fd                	li	a5,-1
2001114e:	02f50863          	beq	a0,a5,2001117e <_puts_r+0x8c>
20011152:	4529                	li	a0,10
20011154:	a035                	j	20011180 <_puts_r+0x8e>
20011156:	fffff797          	auipc	a5,0xfffff
2001115a:	28e78793          	addi	a5,a5,654 # 200103e4 <__sf_fake_stdout>
2001115e:	00f41463          	bne	s0,a5,20011166 <_puts_r+0x74>
20011162:	4480                	lw	s0,8(s1)
20011164:	b7c1                	j	20011124 <_puts_r+0x32>
20011166:	fffff797          	auipc	a5,0xfffff
2001116a:	23e78793          	addi	a5,a5,574 # 200103a4 <__sf_fake_stderr>
2001116e:	faf41be3          	bne	s0,a5,20011124 <_puts_r+0x32>
20011172:	44c0                	lw	s0,12(s1)
20011174:	bf45                	j	20011124 <_puts_r+0x32>
20011176:	85a2                	mv	a1,s0
20011178:	8526                	mv	a0,s1
2001117a:	2a39                	jal	20011298 <__swsetup_r>
2001117c:	d955                	beqz	a0,20011130 <_puts_r+0x3e>
2001117e:	557d                	li	a0,-1
20011180:	40f2                	lw	ra,28(sp)
20011182:	4462                	lw	s0,24(sp)
20011184:	44d2                	lw	s1,20(sp)
20011186:	4942                	lw	s2,16(sp)
20011188:	49b2                	lw	s3,12(sp)
2001118a:	4a22                	lw	s4,8(sp)
2001118c:	6105                	addi	sp,sp,32
2001118e:	8082                	ret
20011190:	c41c                	sw	a5,8(s0)
20011192:	0905                	addi	s2,s2,1
20011194:	0007d763          	bgez	a5,200111a2 <_puts_r+0xb0>
20011198:	4c18                	lw	a4,24(s0)
2001119a:	00e7cb63          	blt	a5,a4,200111b0 <_puts_r+0xbe>
2001119e:	01458963          	beq	a1,s4,200111b0 <_puts_r+0xbe>
200111a2:	401c                	lw	a5,0(s0)
200111a4:	00178713          	addi	a4,a5,1
200111a8:	c018                	sw	a4,0(s0)
200111aa:	00b78023          	sb	a1,0(a5)
200111ae:	b759                	j	20011134 <_puts_r+0x42>
200111b0:	8622                	mv	a2,s0
200111b2:	8526                	mv	a0,s1
200111b4:	2015                	jal	200111d8 <__swbuf_r>
200111b6:	f7351fe3          	bne	a0,s3,20011134 <_puts_r+0x42>
200111ba:	b7d1                	j	2001117e <_puts_r+0x8c>
200111bc:	401c                	lw	a5,0(s0)
200111be:	00178713          	addi	a4,a5,1
200111c2:	c018                	sw	a4,0(s0)
200111c4:	4729                	li	a4,10
200111c6:	00e78023          	sb	a4,0(a5)
200111ca:	b761                	j	20011152 <_puts_r+0x60>

200111cc <puts>:
puts():
200111cc:	85aa                	mv	a1,a0
200111ce:	5fff0517          	auipc	a0,0x5fff0
200111d2:	8d252503          	lw	a0,-1838(a0) # 80000aa0 <_impure_ptr>
200111d6:	bf31                	j	200110f2 <_puts_r>

200111d8 <__swbuf_r>:
__swbuf_r():
200111d8:	1101                	addi	sp,sp,-32
200111da:	cc22                	sw	s0,24(sp)
200111dc:	ca26                	sw	s1,20(sp)
200111de:	c84a                	sw	s2,16(sp)
200111e0:	ce06                	sw	ra,28(sp)
200111e2:	c64e                	sw	s3,12(sp)
200111e4:	84aa                	mv	s1,a0
200111e6:	892e                	mv	s2,a1
200111e8:	8432                	mv	s0,a2
200111ea:	c501                	beqz	a0,200111f2 <__swbuf_r+0x1a>
200111ec:	4d1c                	lw	a5,24(a0)
200111ee:	e391                	bnez	a5,200111f2 <__swbuf_r+0x1a>
200111f0:	2909                	jal	20011602 <__sinit>
200111f2:	fffff797          	auipc	a5,0xfffff
200111f6:	1d278793          	addi	a5,a5,466 # 200103c4 <__sf_fake_stdin>
200111fa:	06f41963          	bne	s0,a5,2001126c <__swbuf_r+0x94>
200111fe:	40c0                	lw	s0,4(s1)
20011200:	4c1c                	lw	a5,24(s0)
20011202:	c41c                	sw	a5,8(s0)
20011204:	00c45783          	lhu	a5,12(s0)
20011208:	8ba1                	andi	a5,a5,8
2001120a:	c3c9                	beqz	a5,2001128c <__swbuf_r+0xb4>
2001120c:	481c                	lw	a5,16(s0)
2001120e:	cfbd                	beqz	a5,2001128c <__swbuf_r+0xb4>
20011210:	481c                	lw	a5,16(s0)
20011212:	4008                	lw	a0,0(s0)
20011214:	0ff97993          	zext.b	s3,s2
20011218:	0ff97913          	zext.b	s2,s2
2001121c:	8d1d                	sub	a0,a0,a5
2001121e:	485c                	lw	a5,20(s0)
20011220:	00f54663          	blt	a0,a5,2001122c <__swbuf_r+0x54>
20011224:	85a2                	mv	a1,s0
20011226:	8526                	mv	a0,s1
20011228:	24c1                	jal	200114e8 <_fflush_r>
2001122a:	e52d                	bnez	a0,20011294 <__swbuf_r+0xbc>
2001122c:	441c                	lw	a5,8(s0)
2001122e:	0505                	addi	a0,a0,1
20011230:	17fd                	addi	a5,a5,-1
20011232:	c41c                	sw	a5,8(s0)
20011234:	401c                	lw	a5,0(s0)
20011236:	00178713          	addi	a4,a5,1
2001123a:	c018                	sw	a4,0(s0)
2001123c:	01378023          	sb	s3,0(a5)
20011240:	485c                	lw	a5,20(s0)
20011242:	00a78963          	beq	a5,a0,20011254 <__swbuf_r+0x7c>
20011246:	00c45783          	lhu	a5,12(s0)
2001124a:	8b85                	andi	a5,a5,1
2001124c:	cb81                	beqz	a5,2001125c <__swbuf_r+0x84>
2001124e:	47a9                	li	a5,10
20011250:	00f91663          	bne	s2,a5,2001125c <__swbuf_r+0x84>
20011254:	85a2                	mv	a1,s0
20011256:	8526                	mv	a0,s1
20011258:	2c41                	jal	200114e8 <_fflush_r>
2001125a:	ed0d                	bnez	a0,20011294 <__swbuf_r+0xbc>
2001125c:	40f2                	lw	ra,28(sp)
2001125e:	4462                	lw	s0,24(sp)
20011260:	44d2                	lw	s1,20(sp)
20011262:	49b2                	lw	s3,12(sp)
20011264:	854a                	mv	a0,s2
20011266:	4942                	lw	s2,16(sp)
20011268:	6105                	addi	sp,sp,32
2001126a:	8082                	ret
2001126c:	fffff797          	auipc	a5,0xfffff
20011270:	17878793          	addi	a5,a5,376 # 200103e4 <__sf_fake_stdout>
20011274:	00f41463          	bne	s0,a5,2001127c <__swbuf_r+0xa4>
20011278:	4480                	lw	s0,8(s1)
2001127a:	b759                	j	20011200 <__swbuf_r+0x28>
2001127c:	fffff797          	auipc	a5,0xfffff
20011280:	12878793          	addi	a5,a5,296 # 200103a4 <__sf_fake_stderr>
20011284:	f6f41ee3          	bne	s0,a5,20011200 <__swbuf_r+0x28>
20011288:	44c0                	lw	s0,12(s1)
2001128a:	bf9d                	j	20011200 <__swbuf_r+0x28>
2001128c:	85a2                	mv	a1,s0
2001128e:	8526                	mv	a0,s1
20011290:	2021                	jal	20011298 <__swsetup_r>
20011292:	dd3d                	beqz	a0,20011210 <__swbuf_r+0x38>
20011294:	597d                	li	s2,-1
20011296:	b7d9                	j	2001125c <__swbuf_r+0x84>

20011298 <__swsetup_r>:
__swsetup_r():
20011298:	1141                	addi	sp,sp,-16
2001129a:	c422                	sw	s0,8(sp)
2001129c:	c226                	sw	s1,4(sp)
2001129e:	c04a                	sw	s2,0(sp)
200112a0:	c606                	sw	ra,12(sp)
200112a2:	5ffef497          	auipc	s1,0x5ffef
200112a6:	7fe4a483          	lw	s1,2046(s1) # 80000aa0 <_impure_ptr>
200112aa:	892a                	mv	s2,a0
200112ac:	842e                	mv	s0,a1
200112ae:	c489                	beqz	s1,200112b8 <__swsetup_r+0x20>
200112b0:	4c9c                	lw	a5,24(s1)
200112b2:	e399                	bnez	a5,200112b8 <__swsetup_r+0x20>
200112b4:	8526                	mv	a0,s1
200112b6:	26b1                	jal	20011602 <__sinit>
200112b8:	fffff797          	auipc	a5,0xfffff
200112bc:	10c78793          	addi	a5,a5,268 # 200103c4 <__sf_fake_stdin>
200112c0:	02f41763          	bne	s0,a5,200112ee <__swsetup_r+0x56>
200112c4:	40c0                	lw	s0,4(s1)
200112c6:	00c41783          	lh	a5,12(s0)
200112ca:	01079713          	slli	a4,a5,0x10
200112ce:	0087f693          	andi	a3,a5,8
200112d2:	8341                	srli	a4,a4,0x10
200112d4:	eaad                	bnez	a3,20011346 <__swsetup_r+0xae>
200112d6:	01077693          	andi	a3,a4,16
200112da:	ea95                	bnez	a3,2001130e <__swsetup_r+0x76>
200112dc:	4725                	li	a4,9
200112de:	00e92023          	sw	a4,0(s2)
200112e2:	0407e793          	ori	a5,a5,64
200112e6:	00f41623          	sh	a5,12(s0)
200112ea:	557d                	li	a0,-1
200112ec:	a871                	j	20011388 <__swsetup_r+0xf0>
200112ee:	fffff797          	auipc	a5,0xfffff
200112f2:	0f678793          	addi	a5,a5,246 # 200103e4 <__sf_fake_stdout>
200112f6:	00f41463          	bne	s0,a5,200112fe <__swsetup_r+0x66>
200112fa:	4480                	lw	s0,8(s1)
200112fc:	b7e9                	j	200112c6 <__swsetup_r+0x2e>
200112fe:	fffff797          	auipc	a5,0xfffff
20011302:	0a678793          	addi	a5,a5,166 # 200103a4 <__sf_fake_stderr>
20011306:	fcf410e3          	bne	s0,a5,200112c6 <__swsetup_r+0x2e>
2001130a:	44c0                	lw	s0,12(s1)
2001130c:	bf6d                	j	200112c6 <__swsetup_r+0x2e>
2001130e:	8b11                	andi	a4,a4,4
20011310:	c70d                	beqz	a4,2001133a <__swsetup_r+0xa2>
20011312:	584c                	lw	a1,52(s0)
20011314:	c989                	beqz	a1,20011326 <__swsetup_r+0x8e>
20011316:	04440793          	addi	a5,s0,68
2001131a:	00f58463          	beq	a1,a5,20011322 <__swsetup_r+0x8a>
2001131e:	854a                	mv	a0,s2
20011320:	2bcd                	jal	20011912 <_free_r>
20011322:	02042a23          	sw	zero,52(s0)
20011326:	00c45783          	lhu	a5,12(s0)
2001132a:	00042223          	sw	zero,4(s0)
2001132e:	fdb7f793          	andi	a5,a5,-37
20011332:	00f41623          	sh	a5,12(s0)
20011336:	481c                	lw	a5,16(s0)
20011338:	c01c                	sw	a5,0(s0)
2001133a:	00c45783          	lhu	a5,12(s0)
2001133e:	0087e793          	ori	a5,a5,8
20011342:	00f41623          	sh	a5,12(s0)
20011346:	481c                	lw	a5,16(s0)
20011348:	ef81                	bnez	a5,20011360 <__swsetup_r+0xc8>
2001134a:	00c45783          	lhu	a5,12(s0)
2001134e:	20000713          	li	a4,512
20011352:	2807f793          	andi	a5,a5,640
20011356:	00e78563          	beq	a5,a4,20011360 <__swsetup_r+0xc8>
2001135a:	85a2                	mv	a1,s0
2001135c:	854a                	mv	a0,s2
2001135e:	2985                	jal	200117ce <__smakebuf_r>
20011360:	00c41783          	lh	a5,12(s0)
20011364:	01079713          	slli	a4,a5,0x10
20011368:	0017f693          	andi	a3,a5,1
2001136c:	8341                	srli	a4,a4,0x10
2001136e:	c29d                	beqz	a3,20011394 <__swsetup_r+0xfc>
20011370:	4854                	lw	a3,20(s0)
20011372:	00042423          	sw	zero,8(s0)
20011376:	40d006b3          	neg	a3,a3
2001137a:	cc14                	sw	a3,24(s0)
2001137c:	4814                	lw	a3,16(s0)
2001137e:	4501                	li	a0,0
20011380:	e681                	bnez	a3,20011388 <__swsetup_r+0xf0>
20011382:	08077713          	andi	a4,a4,128
20011386:	ff31                	bnez	a4,200112e2 <__swsetup_r+0x4a>
20011388:	40b2                	lw	ra,12(sp)
2001138a:	4422                	lw	s0,8(sp)
2001138c:	4492                	lw	s1,4(sp)
2001138e:	4902                	lw	s2,0(sp)
20011390:	0141                	addi	sp,sp,16
20011392:	8082                	ret
20011394:	00277693          	andi	a3,a4,2
20011398:	4601                	li	a2,0
2001139a:	e291                	bnez	a3,2001139e <__swsetup_r+0x106>
2001139c:	4850                	lw	a2,20(s0)
2001139e:	c410                	sw	a2,8(s0)
200113a0:	bff1                	j	2001137c <__swsetup_r+0xe4>

200113a2 <__sflush_r>:
__sflush_r():
200113a2:	00c5d783          	lhu	a5,12(a1)
200113a6:	1101                	addi	sp,sp,-32
200113a8:	cc22                	sw	s0,24(sp)
200113aa:	ca26                	sw	s1,20(sp)
200113ac:	ce06                	sw	ra,28(sp)
200113ae:	c84a                	sw	s2,16(sp)
200113b0:	c64e                	sw	s3,12(sp)
200113b2:	0087f713          	andi	a4,a5,8
200113b6:	84aa                	mv	s1,a0
200113b8:	842e                	mv	s0,a1
200113ba:	e375                	bnez	a4,2001149e <__sflush_r+0xfc>
200113bc:	41d8                	lw	a4,4(a1)
200113be:	00e04763          	bgtz	a4,200113cc <__sflush_r+0x2a>
200113c2:	41b8                	lw	a4,64(a1)
200113c4:	00e04463          	bgtz	a4,200113cc <__sflush_r+0x2a>
200113c8:	4501                	li	a0,0
200113ca:	a875                	j	20011486 <__sflush_r+0xe4>
200113cc:	5458                	lw	a4,44(s0)
200113ce:	df6d                	beqz	a4,200113c8 <__sflush_r+0x26>
200113d0:	6685                	lui	a3,0x1
200113d2:	0004a903          	lw	s2,0(s1)
200113d6:	8ff5                	and	a5,a5,a3
200113d8:	0004a023          	sw	zero,0(s1)
200113dc:	cfa5                	beqz	a5,20011454 <__sflush_r+0xb2>
200113de:	4868                	lw	a0,84(s0)
200113e0:	00c45783          	lhu	a5,12(s0)
200113e4:	8b91                	andi	a5,a5,4
200113e6:	c799                	beqz	a5,200113f4 <__sflush_r+0x52>
200113e8:	405c                	lw	a5,4(s0)
200113ea:	8d1d                	sub	a0,a0,a5
200113ec:	585c                	lw	a5,52(s0)
200113ee:	c399                	beqz	a5,200113f4 <__sflush_r+0x52>
200113f0:	403c                	lw	a5,64(s0)
200113f2:	8d1d                	sub	a0,a0,a5
200113f4:	545c                	lw	a5,44(s0)
200113f6:	500c                	lw	a1,32(s0)
200113f8:	862a                	mv	a2,a0
200113fa:	4681                	li	a3,0
200113fc:	8526                	mv	a0,s1
200113fe:	9782                	jalr	a5
20011400:	57fd                	li	a5,-1
20011402:	00c45703          	lhu	a4,12(s0)
20011406:	00f51d63          	bne	a0,a5,20011420 <__sflush_r+0x7e>
2001140a:	4094                	lw	a3,0(s1)
2001140c:	47f5                	li	a5,29
2001140e:	08d7e363          	bltu	a5,a3,20011494 <__sflush_r+0xf2>
20011412:	204007b7          	lui	a5,0x20400
20011416:	0785                	addi	a5,a5,1
20011418:	00d7d7b3          	srl	a5,a5,a3
2001141c:	8b85                	andi	a5,a5,1
2001141e:	cbbd                	beqz	a5,20011494 <__sflush_r+0xf2>
20011420:	481c                	lw	a5,16(s0)
20011422:	00042223          	sw	zero,4(s0)
20011426:	c01c                	sw	a5,0(s0)
20011428:	6785                	lui	a5,0x1
2001142a:	8f7d                	and	a4,a4,a5
2001142c:	c719                	beqz	a4,2001143a <__sflush_r+0x98>
2001142e:	57fd                	li	a5,-1
20011430:	00f51463          	bne	a0,a5,20011438 <__sflush_r+0x96>
20011434:	409c                	lw	a5,0(s1)
20011436:	e391                	bnez	a5,2001143a <__sflush_r+0x98>
20011438:	c868                	sw	a0,84(s0)
2001143a:	584c                	lw	a1,52(s0)
2001143c:	0124a023          	sw	s2,0(s1)
20011440:	d5c1                	beqz	a1,200113c8 <__sflush_r+0x26>
20011442:	04440793          	addi	a5,s0,68
20011446:	00f58463          	beq	a1,a5,2001144e <__sflush_r+0xac>
2001144a:	8526                	mv	a0,s1
2001144c:	21d9                	jal	20011912 <_free_r>
2001144e:	02042a23          	sw	zero,52(s0)
20011452:	bf9d                	j	200113c8 <__sflush_r+0x26>
20011454:	500c                	lw	a1,32(s0)
20011456:	4685                	li	a3,1
20011458:	4601                	li	a2,0
2001145a:	8526                	mv	a0,s1
2001145c:	9702                	jalr	a4
2001145e:	57fd                	li	a5,-1
20011460:	f8f510e3          	bne	a0,a5,200113e0 <__sflush_r+0x3e>
20011464:	409c                	lw	a5,0(s1)
20011466:	dfad                	beqz	a5,200113e0 <__sflush_r+0x3e>
20011468:	4775                	li	a4,29
2001146a:	00e78563          	beq	a5,a4,20011474 <__sflush_r+0xd2>
2001146e:	4759                	li	a4,22
20011470:	00e79563          	bne	a5,a4,2001147a <__sflush_r+0xd8>
20011474:	0124a023          	sw	s2,0(s1)
20011478:	bf81                	j	200113c8 <__sflush_r+0x26>
2001147a:	00c45783          	lhu	a5,12(s0)
2001147e:	0407e793          	ori	a5,a5,64
20011482:	00f41623          	sh	a5,12(s0)
20011486:	40f2                	lw	ra,28(sp)
20011488:	4462                	lw	s0,24(sp)
2001148a:	44d2                	lw	s1,20(sp)
2001148c:	4942                	lw	s2,16(sp)
2001148e:	49b2                	lw	s3,12(sp)
20011490:	6105                	addi	sp,sp,32
20011492:	8082                	ret
20011494:	04076713          	ori	a4,a4,64
20011498:	00e41623          	sh	a4,12(s0)
2001149c:	b7ed                	j	20011486 <__sflush_r+0xe4>
2001149e:	0105a983          	lw	s3,16(a1)
200114a2:	f20983e3          	beqz	s3,200113c8 <__sflush_r+0x26>
200114a6:	0005a903          	lw	s2,0(a1)
200114aa:	8b8d                	andi	a5,a5,3
200114ac:	0135a023          	sw	s3,0(a1)
200114b0:	41390933          	sub	s2,s2,s3
200114b4:	4701                	li	a4,0
200114b6:	e391                	bnez	a5,200114ba <__sflush_r+0x118>
200114b8:	49d8                	lw	a4,20(a1)
200114ba:	c418                	sw	a4,8(s0)
200114bc:	f12056e3          	blez	s2,200113c8 <__sflush_r+0x26>
200114c0:	541c                	lw	a5,40(s0)
200114c2:	500c                	lw	a1,32(s0)
200114c4:	86ca                	mv	a3,s2
200114c6:	864e                	mv	a2,s3
200114c8:	8526                	mv	a0,s1
200114ca:	9782                	jalr	a5
200114cc:	00a04a63          	bgtz	a0,200114e0 <__sflush_r+0x13e>
200114d0:	00c45783          	lhu	a5,12(s0)
200114d4:	557d                	li	a0,-1
200114d6:	0407e793          	ori	a5,a5,64
200114da:	00f41623          	sh	a5,12(s0)
200114de:	b765                	j	20011486 <__sflush_r+0xe4>
200114e0:	99aa                	add	s3,s3,a0
200114e2:	40a90933          	sub	s2,s2,a0
200114e6:	bfd9                	j	200114bc <__sflush_r+0x11a>

200114e8 <_fflush_r>:
_fflush_r():
200114e8:	499c                	lw	a5,16(a1)
200114ea:	cfb9                	beqz	a5,20011548 <_fflush_r+0x60>
200114ec:	1101                	addi	sp,sp,-32
200114ee:	cc22                	sw	s0,24(sp)
200114f0:	ce06                	sw	ra,28(sp)
200114f2:	842a                	mv	s0,a0
200114f4:	c511                	beqz	a0,20011500 <_fflush_r+0x18>
200114f6:	4d1c                	lw	a5,24(a0)
200114f8:	e781                	bnez	a5,20011500 <_fflush_r+0x18>
200114fa:	c62e                	sw	a1,12(sp)
200114fc:	2219                	jal	20011602 <__sinit>
200114fe:	45b2                	lw	a1,12(sp)
20011500:	fffff797          	auipc	a5,0xfffff
20011504:	ec478793          	addi	a5,a5,-316 # 200103c4 <__sf_fake_stdin>
20011508:	00f59b63          	bne	a1,a5,2001151e <_fflush_r+0x36>
2001150c:	404c                	lw	a1,4(s0)
2001150e:	00c59783          	lh	a5,12(a1)
20011512:	c795                	beqz	a5,2001153e <_fflush_r+0x56>
20011514:	8522                	mv	a0,s0
20011516:	4462                	lw	s0,24(sp)
20011518:	40f2                	lw	ra,28(sp)
2001151a:	6105                	addi	sp,sp,32
2001151c:	b559                	j	200113a2 <__sflush_r>
2001151e:	fffff797          	auipc	a5,0xfffff
20011522:	ec678793          	addi	a5,a5,-314 # 200103e4 <__sf_fake_stdout>
20011526:	00f59463          	bne	a1,a5,2001152e <_fflush_r+0x46>
2001152a:	440c                	lw	a1,8(s0)
2001152c:	b7cd                	j	2001150e <_fflush_r+0x26>
2001152e:	fffff797          	auipc	a5,0xfffff
20011532:	e7678793          	addi	a5,a5,-394 # 200103a4 <__sf_fake_stderr>
20011536:	fcf59ce3          	bne	a1,a5,2001150e <_fflush_r+0x26>
2001153a:	444c                	lw	a1,12(s0)
2001153c:	bfc9                	j	2001150e <_fflush_r+0x26>
2001153e:	40f2                	lw	ra,28(sp)
20011540:	4462                	lw	s0,24(sp)
20011542:	4501                	li	a0,0
20011544:	6105                	addi	sp,sp,32
20011546:	8082                	ret
20011548:	4501                	li	a0,0
2001154a:	8082                	ret

2001154c <std>:
std():
2001154c:	1141                	addi	sp,sp,-16
2001154e:	c422                	sw	s0,8(sp)
20011550:	c606                	sw	ra,12(sp)
20011552:	842a                	mv	s0,a0
20011554:	00b51623          	sh	a1,12(a0)
20011558:	00c51723          	sh	a2,14(a0)
2001155c:	00052023          	sw	zero,0(a0)
20011560:	00052223          	sw	zero,4(a0)
20011564:	00052423          	sw	zero,8(a0)
20011568:	06052223          	sw	zero,100(a0)
2001156c:	00052823          	sw	zero,16(a0)
20011570:	00052a23          	sw	zero,20(a0)
20011574:	00052c23          	sw	zero,24(a0)
20011578:	4621                	li	a2,8
2001157a:	4581                	li	a1,0
2001157c:	05c50513          	addi	a0,a0,92
20011580:	24ed                	jal	2001186a <memset>
20011582:	00001797          	auipc	a5,0x1
20011586:	83878793          	addi	a5,a5,-1992 # 20011dba <__sread>
2001158a:	d05c                	sw	a5,36(s0)
2001158c:	00001797          	auipc	a5,0x1
20011590:	85e78793          	addi	a5,a5,-1954 # 20011dea <__swrite>
20011594:	d41c                	sw	a5,40(s0)
20011596:	00001797          	auipc	a5,0x1
2001159a:	8a278793          	addi	a5,a5,-1886 # 20011e38 <__sseek>
2001159e:	d45c                	sw	a5,44(s0)
200115a0:	00001797          	auipc	a5,0x1
200115a4:	8ce78793          	addi	a5,a5,-1842 # 20011e6e <__sclose>
200115a8:	40b2                	lw	ra,12(sp)
200115aa:	d000                	sw	s0,32(s0)
200115ac:	d81c                	sw	a5,48(s0)
200115ae:	4422                	lw	s0,8(sp)
200115b0:	0141                	addi	sp,sp,16
200115b2:	8082                	ret

200115b4 <_cleanup_r>:
_cleanup_r():
200115b4:	00000597          	auipc	a1,0x0
200115b8:	f3458593          	addi	a1,a1,-204 # 200114e8 <_fflush_r>
200115bc:	a2b1                	j	20011708 <_fwalk_reent>

200115be <__sfmoreglue>:
__sfmoreglue():
200115be:	1141                	addi	sp,sp,-16
200115c0:	c226                	sw	s1,4(sp)
200115c2:	06800613          	li	a2,104
200115c6:	fff58493          	addi	s1,a1,-1
200115ca:	02c484b3          	mul	s1,s1,a2
200115ce:	c04a                	sw	s2,0(sp)
200115d0:	892e                	mv	s2,a1
200115d2:	c422                	sw	s0,8(sp)
200115d4:	c606                	sw	ra,12(sp)
200115d6:	07448593          	addi	a1,s1,116
200115da:	2ee9                	jal	200119b4 <_malloc_r>
200115dc:	842a                	mv	s0,a0
200115de:	c919                	beqz	a0,200115f4 <__sfmoreglue+0x36>
200115e0:	00052023          	sw	zero,0(a0)
200115e4:	01252223          	sw	s2,4(a0)
200115e8:	0531                	addi	a0,a0,12
200115ea:	c408                	sw	a0,8(s0)
200115ec:	06848613          	addi	a2,s1,104
200115f0:	4581                	li	a1,0
200115f2:	2ca5                	jal	2001186a <memset>
200115f4:	40b2                	lw	ra,12(sp)
200115f6:	8522                	mv	a0,s0
200115f8:	4422                	lw	s0,8(sp)
200115fa:	4492                	lw	s1,4(sp)
200115fc:	4902                	lw	s2,0(sp)
200115fe:	0141                	addi	sp,sp,16
20011600:	8082                	ret

20011602 <__sinit>:
__sinit():
20011602:	4d1c                	lw	a5,24(a0)
20011604:	e3bd                	bnez	a5,2001166a <__sinit+0x68>
20011606:	1141                	addi	sp,sp,-16
20011608:	c422                	sw	s0,8(sp)
2001160a:	c606                	sw	ra,12(sp)
2001160c:	00000797          	auipc	a5,0x0
20011610:	fa878793          	addi	a5,a5,-88 # 200115b4 <_cleanup_r>
20011614:	d51c                	sw	a5,40(a0)
20011616:	04052423          	sw	zero,72(a0)
2001161a:	04052623          	sw	zero,76(a0)
2001161e:	04052823          	sw	zero,80(a0)
20011622:	00000797          	auipc	a5,0x0
20011626:	9c67a783          	lw	a5,-1594(a5) # 20010fe8 <_global_impure_ptr>
2001162a:	842a                	mv	s0,a0
2001162c:	00f51463          	bne	a0,a5,20011634 <__sinit+0x32>
20011630:	4785                	li	a5,1
20011632:	cd1c                	sw	a5,24(a0)
20011634:	8522                	mv	a0,s0
20011636:	281d                	jal	2001166c <__sfp>
20011638:	c048                	sw	a0,4(s0)
2001163a:	8522                	mv	a0,s0
2001163c:	2805                	jal	2001166c <__sfp>
2001163e:	c408                	sw	a0,8(s0)
20011640:	8522                	mv	a0,s0
20011642:	202d                	jal	2001166c <__sfp>
20011644:	c448                	sw	a0,12(s0)
20011646:	4048                	lw	a0,4(s0)
20011648:	4601                	li	a2,0
2001164a:	4591                	li	a1,4
2001164c:	3701                	jal	2001154c <std>
2001164e:	4408                	lw	a0,8(s0)
20011650:	4605                	li	a2,1
20011652:	45a5                	li	a1,9
20011654:	3de5                	jal	2001154c <std>
20011656:	4448                	lw	a0,12(s0)
20011658:	4609                	li	a2,2
2001165a:	45c9                	li	a1,18
2001165c:	3dc5                	jal	2001154c <std>
2001165e:	4785                	li	a5,1
20011660:	40b2                	lw	ra,12(sp)
20011662:	cc1c                	sw	a5,24(s0)
20011664:	4422                	lw	s0,8(sp)
20011666:	0141                	addi	sp,sp,16
20011668:	8082                	ret
2001166a:	8082                	ret

2001166c <__sfp>:
__sfp():
2001166c:	1141                	addi	sp,sp,-16
2001166e:	c226                	sw	s1,4(sp)
20011670:	00000497          	auipc	s1,0x0
20011674:	9784a483          	lw	s1,-1672(s1) # 20010fe8 <_global_impure_ptr>
20011678:	4c9c                	lw	a5,24(s1)
2001167a:	c04a                	sw	s2,0(sp)
2001167c:	c606                	sw	ra,12(sp)
2001167e:	c422                	sw	s0,8(sp)
20011680:	892a                	mv	s2,a0
20011682:	e399                	bnez	a5,20011688 <__sfp+0x1c>
20011684:	8526                	mv	a0,s1
20011686:	3fb5                	jal	20011602 <__sinit>
20011688:	04848493          	addi	s1,s1,72
2001168c:	4480                	lw	s0,8(s1)
2001168e:	40dc                	lw	a5,4(s1)
20011690:	17fd                	addi	a5,a5,-1
20011692:	0007d663          	bgez	a5,2001169e <__sfp+0x32>
20011696:	409c                	lw	a5,0(s1)
20011698:	cfb1                	beqz	a5,200116f4 <__sfp+0x88>
2001169a:	4084                	lw	s1,0(s1)
2001169c:	bfc5                	j	2001168c <__sfp+0x20>
2001169e:	00c41703          	lh	a4,12(s0)
200116a2:	e731                	bnez	a4,200116ee <__sfp+0x82>
200116a4:	77c1                	lui	a5,0xffff0
200116a6:	0785                	addi	a5,a5,1
200116a8:	06042223          	sw	zero,100(s0)
200116ac:	00042023          	sw	zero,0(s0)
200116b0:	00042223          	sw	zero,4(s0)
200116b4:	00042423          	sw	zero,8(s0)
200116b8:	c45c                	sw	a5,12(s0)
200116ba:	00042823          	sw	zero,16(s0)
200116be:	00042a23          	sw	zero,20(s0)
200116c2:	00042c23          	sw	zero,24(s0)
200116c6:	4621                	li	a2,8
200116c8:	4581                	li	a1,0
200116ca:	05c40513          	addi	a0,s0,92
200116ce:	2a71                	jal	2001186a <memset>
200116d0:	02042a23          	sw	zero,52(s0)
200116d4:	02042c23          	sw	zero,56(s0)
200116d8:	04042423          	sw	zero,72(s0)
200116dc:	04042623          	sw	zero,76(s0)
200116e0:	40b2                	lw	ra,12(sp)
200116e2:	8522                	mv	a0,s0
200116e4:	4422                	lw	s0,8(sp)
200116e6:	4492                	lw	s1,4(sp)
200116e8:	4902                	lw	s2,0(sp)
200116ea:	0141                	addi	sp,sp,16
200116ec:	8082                	ret
200116ee:	06840413          	addi	s0,s0,104
200116f2:	bf79                	j	20011690 <__sfp+0x24>
200116f4:	4591                	li	a1,4
200116f6:	854a                	mv	a0,s2
200116f8:	35d9                	jal	200115be <__sfmoreglue>
200116fa:	c088                	sw	a0,0(s1)
200116fc:	842a                	mv	s0,a0
200116fe:	fd51                	bnez	a0,2001169a <__sfp+0x2e>
20011700:	47b1                	li	a5,12
20011702:	00f92023          	sw	a5,0(s2)
20011706:	bfe9                	j	200116e0 <__sfp+0x74>

20011708 <_fwalk_reent>:
_fwalk_reent():
20011708:	7179                	addi	sp,sp,-48
2001170a:	d422                	sw	s0,40(sp)
2001170c:	d04a                	sw	s2,32(sp)
2001170e:	ce4e                	sw	s3,28(sp)
20011710:	cc52                	sw	s4,24(sp)
20011712:	c85a                	sw	s6,16(sp)
20011714:	c65e                	sw	s7,12(sp)
20011716:	d606                	sw	ra,44(sp)
20011718:	d226                	sw	s1,36(sp)
2001171a:	ca56                	sw	s5,20(sp)
2001171c:	892a                	mv	s2,a0
2001171e:	8a2e                	mv	s4,a1
20011720:	04850413          	addi	s0,a0,72
20011724:	4981                	li	s3,0
20011726:	4b05                	li	s6,1
20011728:	5bfd                	li	s7,-1
2001172a:	4404                	lw	s1,8(s0)
2001172c:	00442a83          	lw	s5,4(s0)
20011730:	1afd                	addi	s5,s5,-1
20011732:	020ad063          	bgez	s5,20011752 <_fwalk_reent+0x4a>
20011736:	4000                	lw	s0,0(s0)
20011738:	f86d                	bnez	s0,2001172a <_fwalk_reent+0x22>
2001173a:	50b2                	lw	ra,44(sp)
2001173c:	5422                	lw	s0,40(sp)
2001173e:	5492                	lw	s1,36(sp)
20011740:	5902                	lw	s2,32(sp)
20011742:	4a62                	lw	s4,24(sp)
20011744:	4ad2                	lw	s5,20(sp)
20011746:	4b42                	lw	s6,16(sp)
20011748:	4bb2                	lw	s7,12(sp)
2001174a:	854e                	mv	a0,s3
2001174c:	49f2                	lw	s3,28(sp)
2001174e:	6145                	addi	sp,sp,48
20011750:	8082                	ret
20011752:	00c4d783          	lhu	a5,12(s1)
20011756:	00fb7b63          	bgeu	s6,a5,2001176c <_fwalk_reent+0x64>
2001175a:	00e49783          	lh	a5,14(s1)
2001175e:	01778763          	beq	a5,s7,2001176c <_fwalk_reent+0x64>
20011762:	85a6                	mv	a1,s1
20011764:	854a                	mv	a0,s2
20011766:	9a02                	jalr	s4
20011768:	00a9e9b3          	or	s3,s3,a0
2001176c:	06848493          	addi	s1,s1,104
20011770:	b7c1                	j	20011730 <_fwalk_reent+0x28>

20011772 <__swhatbuf_r>:
__swhatbuf_r():
20011772:	7159                	addi	sp,sp,-112
20011774:	d0ca                	sw	s2,96(sp)
20011776:	892e                	mv	s2,a1
20011778:	00e59583          	lh	a1,14(a1)
2001177c:	d4a2                	sw	s0,104(sp)
2001177e:	d2a6                	sw	s1,100(sp)
20011780:	d686                	sw	ra,108(sp)
20011782:	8432                	mv	s0,a2
20011784:	84b6                	mv	s1,a3
20011786:	0005dc63          	bgez	a1,2001179e <__swhatbuf_r+0x2c>
2001178a:	00c91783          	lh	a5,12(s2)
2001178e:	0004a023          	sw	zero,0(s1)
20011792:	0807f793          	andi	a5,a5,128
20011796:	e395                	bnez	a5,200117ba <__swhatbuf_r+0x48>
20011798:	40000793          	li	a5,1024
2001179c:	a00d                	j	200117be <__swhatbuf_r+0x4c>
2001179e:	0030                	addi	a2,sp,8
200117a0:	734000ef          	jal	ra,20011ed4 <_fstat_r>
200117a4:	fe0543e3          	bltz	a0,2001178a <__swhatbuf_r+0x18>
200117a8:	4732                	lw	a4,12(sp)
200117aa:	67bd                	lui	a5,0xf
200117ac:	8ff9                	and	a5,a5,a4
200117ae:	7779                	lui	a4,0xffffe
200117b0:	97ba                	add	a5,a5,a4
200117b2:	0017b793          	seqz	a5,a5
200117b6:	c09c                	sw	a5,0(s1)
200117b8:	b7c5                	j	20011798 <__swhatbuf_r+0x26>
200117ba:	04000793          	li	a5,64
200117be:	50b6                	lw	ra,108(sp)
200117c0:	c01c                	sw	a5,0(s0)
200117c2:	5426                	lw	s0,104(sp)
200117c4:	5496                	lw	s1,100(sp)
200117c6:	5906                	lw	s2,96(sp)
200117c8:	4501                	li	a0,0
200117ca:	6165                	addi	sp,sp,112
200117cc:	8082                	ret

200117ce <__smakebuf_r>:
__smakebuf_r():
200117ce:	00c5d783          	lhu	a5,12(a1)
200117d2:	1101                	addi	sp,sp,-32
200117d4:	cc22                	sw	s0,24(sp)
200117d6:	ce06                	sw	ra,28(sp)
200117d8:	ca26                	sw	s1,20(sp)
200117da:	c84a                	sw	s2,16(sp)
200117dc:	8b89                	andi	a5,a5,2
200117de:	842e                	mv	s0,a1
200117e0:	cf89                	beqz	a5,200117fa <__smakebuf_r+0x2c>
200117e2:	04740793          	addi	a5,s0,71
200117e6:	c01c                	sw	a5,0(s0)
200117e8:	c81c                	sw	a5,16(s0)
200117ea:	4785                	li	a5,1
200117ec:	c85c                	sw	a5,20(s0)
200117ee:	40f2                	lw	ra,28(sp)
200117f0:	4462                	lw	s0,24(sp)
200117f2:	44d2                	lw	s1,20(sp)
200117f4:	4942                	lw	s2,16(sp)
200117f6:	6105                	addi	sp,sp,32
200117f8:	8082                	ret
200117fa:	0074                	addi	a3,sp,12
200117fc:	0030                	addi	a2,sp,8
200117fe:	892a                	mv	s2,a0
20011800:	3f8d                	jal	20011772 <__swhatbuf_r>
20011802:	45a2                	lw	a1,8(sp)
20011804:	84aa                	mv	s1,a0
20011806:	854a                	mv	a0,s2
20011808:	2275                	jal	200119b4 <_malloc_r>
2001180a:	ed01                	bnez	a0,20011822 <__smakebuf_r+0x54>
2001180c:	00c41783          	lh	a5,12(s0)
20011810:	2007f713          	andi	a4,a5,512
20011814:	ff69                	bnez	a4,200117ee <__smakebuf_r+0x20>
20011816:	9bf1                	andi	a5,a5,-4
20011818:	0027e793          	ori	a5,a5,2
2001181c:	00f41623          	sh	a5,12(s0)
20011820:	b7c9                	j	200117e2 <__smakebuf_r+0x14>
20011822:	00000797          	auipc	a5,0x0
20011826:	d9278793          	addi	a5,a5,-622 # 200115b4 <_cleanup_r>
2001182a:	02f92423          	sw	a5,40(s2)
2001182e:	00c45783          	lhu	a5,12(s0)
20011832:	c008                	sw	a0,0(s0)
20011834:	c808                	sw	a0,16(s0)
20011836:	0807e793          	ori	a5,a5,128
2001183a:	00f41623          	sh	a5,12(s0)
2001183e:	47a2                	lw	a5,8(sp)
20011840:	c85c                	sw	a5,20(s0)
20011842:	47b2                	lw	a5,12(sp)
20011844:	cf89                	beqz	a5,2001185e <__smakebuf_r+0x90>
20011846:	00e41583          	lh	a1,14(s0)
2001184a:	854a                	mv	a0,s2
2001184c:	2d65                	jal	20011f04 <_isatty_r>
2001184e:	c901                	beqz	a0,2001185e <__smakebuf_r+0x90>
20011850:	00c45783          	lhu	a5,12(s0)
20011854:	9bf1                	andi	a5,a5,-4
20011856:	0017e793          	ori	a5,a5,1
2001185a:	00f41623          	sh	a5,12(s0)
2001185e:	00c45503          	lhu	a0,12(s0)
20011862:	8cc9                	or	s1,s1,a0
20011864:	00941623          	sh	s1,12(s0)
20011868:	b759                	j	200117ee <__smakebuf_r+0x20>

2001186a <memset>:
memset():
2001186a:	433d                	li	t1,15
2001186c:	872a                	mv	a4,a0
2001186e:	02c37363          	bgeu	t1,a2,20011894 <memset+0x2a>
20011872:	00f77793          	andi	a5,a4,15
20011876:	efbd                	bnez	a5,200118f4 <memset+0x8a>
20011878:	e5ad                	bnez	a1,200118e2 <memset+0x78>
2001187a:	ff067693          	andi	a3,a2,-16
2001187e:	8a3d                	andi	a2,a2,15
20011880:	96ba                	add	a3,a3,a4
20011882:	c30c                	sw	a1,0(a4)
20011884:	c34c                	sw	a1,4(a4)
20011886:	c70c                	sw	a1,8(a4)
20011888:	c74c                	sw	a1,12(a4)
2001188a:	0741                	addi	a4,a4,16
2001188c:	fed76be3          	bltu	a4,a3,20011882 <memset+0x18>
20011890:	e211                	bnez	a2,20011894 <memset+0x2a>
20011892:	8082                	ret
20011894:	40c306b3          	sub	a3,t1,a2
20011898:	068a                	slli	a3,a3,0x2
2001189a:	00000297          	auipc	t0,0x0
2001189e:	9696                	add	a3,a3,t0
200118a0:	00a68067          	jr	10(a3) # 100a <__heap_size+0x80a>
200118a4:	00b70723          	sb	a1,14(a4) # ffffe00e <metal_segment_heap_target_end+0x7fffc89e>
200118a8:	00b706a3          	sb	a1,13(a4)
200118ac:	00b70623          	sb	a1,12(a4)
200118b0:	00b705a3          	sb	a1,11(a4)
200118b4:	00b70523          	sb	a1,10(a4)
200118b8:	00b704a3          	sb	a1,9(a4)
200118bc:	00b70423          	sb	a1,8(a4)
200118c0:	00b703a3          	sb	a1,7(a4)
200118c4:	00b70323          	sb	a1,6(a4)
200118c8:	00b702a3          	sb	a1,5(a4)
200118cc:	00b70223          	sb	a1,4(a4)
200118d0:	00b701a3          	sb	a1,3(a4)
200118d4:	00b70123          	sb	a1,2(a4)
200118d8:	00b700a3          	sb	a1,1(a4)
200118dc:	00b70023          	sb	a1,0(a4)
200118e0:	8082                	ret
200118e2:	0ff5f593          	zext.b	a1,a1
200118e6:	00859693          	slli	a3,a1,0x8
200118ea:	8dd5                	or	a1,a1,a3
200118ec:	01059693          	slli	a3,a1,0x10
200118f0:	8dd5                	or	a1,a1,a3
200118f2:	b761                	j	2001187a <memset+0x10>
200118f4:	00279693          	slli	a3,a5,0x2
200118f8:	00000297          	auipc	t0,0x0
200118fc:	9696                	add	a3,a3,t0
200118fe:	8286                	mv	t0,ra
20011900:	fa8680e7          	jalr	-88(a3)
20011904:	8096                	mv	ra,t0
20011906:	17c1                	addi	a5,a5,-16
20011908:	8f1d                	sub	a4,a4,a5
2001190a:	963e                	add	a2,a2,a5
2001190c:	f8c374e3          	bgeu	t1,a2,20011894 <memset+0x2a>
20011910:	b7a5                	j	20011878 <memset+0xe>

20011912 <_free_r>:
_free_r():
20011912:	c1c5                	beqz	a1,200119b2 <_free_r+0xa0>
20011914:	ffc5a783          	lw	a5,-4(a1)
20011918:	1101                	addi	sp,sp,-32
2001191a:	cc22                	sw	s0,24(sp)
2001191c:	ce06                	sw	ra,28(sp)
2001191e:	ffc58413          	addi	s0,a1,-4
20011922:	0007d363          	bgez	a5,20011928 <_free_r+0x16>
20011926:	943e                	add	s0,s0,a5
20011928:	c62a                	sw	a0,12(sp)
2001192a:	2d91                	jal	20011f7e <__malloc_lock>
2001192c:	5ffef717          	auipc	a4,0x5ffef
20011930:	19c70713          	addi	a4,a4,412 # 80000ac8 <__malloc_free_list>
20011934:	431c                	lw	a5,0(a4)
20011936:	4532                	lw	a0,12(sp)
20011938:	eb81                	bnez	a5,20011948 <_free_r+0x36>
2001193a:	00042223          	sw	zero,4(s0)
2001193e:	c300                	sw	s0,0(a4)
20011940:	4462                	lw	s0,24(sp)
20011942:	40f2                	lw	ra,28(sp)
20011944:	6105                	addi	sp,sp,32
20011946:	ad2d                	j	20011f80 <__malloc_unlock>
20011948:	00f47d63          	bgeu	s0,a5,20011962 <_free_r+0x50>
2001194c:	4010                	lw	a2,0(s0)
2001194e:	00c406b3          	add	a3,s0,a2
20011952:	00d79663          	bne	a5,a3,2001195e <_free_r+0x4c>
20011956:	4394                	lw	a3,0(a5)
20011958:	43dc                	lw	a5,4(a5)
2001195a:	96b2                	add	a3,a3,a2
2001195c:	c014                	sw	a3,0(s0)
2001195e:	c05c                	sw	a5,4(s0)
20011960:	bff9                	j	2001193e <_free_r+0x2c>
20011962:	873e                	mv	a4,a5
20011964:	43dc                	lw	a5,4(a5)
20011966:	c399                	beqz	a5,2001196c <_free_r+0x5a>
20011968:	fef47de3          	bgeu	s0,a5,20011962 <_free_r+0x50>
2001196c:	4314                	lw	a3,0(a4)
2001196e:	00d70633          	add	a2,a4,a3
20011972:	00861f63          	bne	a2,s0,20011990 <_free_r+0x7e>
20011976:	4010                	lw	a2,0(s0)
20011978:	96b2                	add	a3,a3,a2
2001197a:	c314                	sw	a3,0(a4)
2001197c:	00d70633          	add	a2,a4,a3
20011980:	fcc790e3          	bne	a5,a2,20011940 <_free_r+0x2e>
20011984:	4390                	lw	a2,0(a5)
20011986:	43dc                	lw	a5,4(a5)
20011988:	96b2                	add	a3,a3,a2
2001198a:	c314                	sw	a3,0(a4)
2001198c:	c35c                	sw	a5,4(a4)
2001198e:	bf4d                	j	20011940 <_free_r+0x2e>
20011990:	00c47563          	bgeu	s0,a2,2001199a <_free_r+0x88>
20011994:	47b1                	li	a5,12
20011996:	c11c                	sw	a5,0(a0)
20011998:	b765                	j	20011940 <_free_r+0x2e>
2001199a:	4010                	lw	a2,0(s0)
2001199c:	00c406b3          	add	a3,s0,a2
200119a0:	00d79663          	bne	a5,a3,200119ac <_free_r+0x9a>
200119a4:	4394                	lw	a3,0(a5)
200119a6:	43dc                	lw	a5,4(a5)
200119a8:	96b2                	add	a3,a3,a2
200119aa:	c014                	sw	a3,0(s0)
200119ac:	c05c                	sw	a5,4(s0)
200119ae:	c340                	sw	s0,4(a4)
200119b0:	bf41                	j	20011940 <_free_r+0x2e>
200119b2:	8082                	ret

200119b4 <_malloc_r>:
_malloc_r():
200119b4:	1101                	addi	sp,sp,-32
200119b6:	ca26                	sw	s1,20(sp)
200119b8:	00358493          	addi	s1,a1,3
200119bc:	98f1                	andi	s1,s1,-4
200119be:	c84a                	sw	s2,16(sp)
200119c0:	ce06                	sw	ra,28(sp)
200119c2:	cc22                	sw	s0,24(sp)
200119c4:	c64e                	sw	s3,12(sp)
200119c6:	04a1                	addi	s1,s1,8
200119c8:	47b1                	li	a5,12
200119ca:	892a                	mv	s2,a0
200119cc:	04f4f463          	bgeu	s1,a5,20011a14 <_malloc_r+0x60>
200119d0:	44b1                	li	s1,12
200119d2:	04b4e363          	bltu	s1,a1,20011a18 <_malloc_r+0x64>
200119d6:	854a                	mv	a0,s2
200119d8:	235d                	jal	20011f7e <__malloc_lock>
200119da:	5ffef697          	auipc	a3,0x5ffef
200119de:	0ee68693          	addi	a3,a3,238 # 80000ac8 <__malloc_free_list>
200119e2:	4298                	lw	a4,0(a3)
200119e4:	843a                	mv	s0,a4
200119e6:	e421                	bnez	s0,20011a2e <_malloc_r+0x7a>
200119e8:	5ffef417          	auipc	s0,0x5ffef
200119ec:	0e440413          	addi	s0,s0,228 # 80000acc <__malloc_sbrk_start>
200119f0:	401c                	lw	a5,0(s0)
200119f2:	e789                	bnez	a5,200119fc <_malloc_r+0x48>
200119f4:	4581                	li	a1,0
200119f6:	854a                	mv	a0,s2
200119f8:	2e51                	jal	20011d8c <_sbrk_r>
200119fa:	c008                	sw	a0,0(s0)
200119fc:	85a6                	mv	a1,s1
200119fe:	854a                	mv	a0,s2
20011a00:	2671                	jal	20011d8c <_sbrk_r>
20011a02:	59fd                	li	s3,-1
20011a04:	07351863          	bne	a0,s3,20011a74 <_malloc_r+0xc0>
20011a08:	47b1                	li	a5,12
20011a0a:	00f92023          	sw	a5,0(s2)
20011a0e:	854a                	mv	a0,s2
20011a10:	2b85                	jal	20011f80 <__malloc_unlock>
20011a12:	a031                	j	20011a1e <_malloc_r+0x6a>
20011a14:	fa04dfe3          	bgez	s1,200119d2 <_malloc_r+0x1e>
20011a18:	47b1                	li	a5,12
20011a1a:	00f92023          	sw	a5,0(s2)
20011a1e:	4501                	li	a0,0
20011a20:	40f2                	lw	ra,28(sp)
20011a22:	4462                	lw	s0,24(sp)
20011a24:	44d2                	lw	s1,20(sp)
20011a26:	4942                	lw	s2,16(sp)
20011a28:	49b2                	lw	s3,12(sp)
20011a2a:	6105                	addi	sp,sp,32
20011a2c:	8082                	ret
20011a2e:	401c                	lw	a5,0(s0)
20011a30:	8f85                	sub	a5,a5,s1
20011a32:	0207ce63          	bltz	a5,20011a6e <_malloc_r+0xba>
20011a36:	462d                	li	a2,11
20011a38:	00f67663          	bgeu	a2,a5,20011a44 <_malloc_r+0x90>
20011a3c:	c01c                	sw	a5,0(s0)
20011a3e:	943e                	add	s0,s0,a5
20011a40:	c004                	sw	s1,0(s0)
20011a42:	a029                	j	20011a4c <_malloc_r+0x98>
20011a44:	405c                	lw	a5,4(s0)
20011a46:	02871263          	bne	a4,s0,20011a6a <_malloc_r+0xb6>
20011a4a:	c29c                	sw	a5,0(a3)
20011a4c:	854a                	mv	a0,s2
20011a4e:	2b0d                	jal	20011f80 <__malloc_unlock>
20011a50:	00b40513          	addi	a0,s0,11
20011a54:	00440793          	addi	a5,s0,4
20011a58:	9961                	andi	a0,a0,-8
20011a5a:	40f50733          	sub	a4,a0,a5
20011a5e:	fcf501e3          	beq	a0,a5,20011a20 <_malloc_r+0x6c>
20011a62:	943a                	add	s0,s0,a4
20011a64:	8f89                	sub	a5,a5,a0
20011a66:	c01c                	sw	a5,0(s0)
20011a68:	bf65                	j	20011a20 <_malloc_r+0x6c>
20011a6a:	c35c                	sw	a5,4(a4)
20011a6c:	b7c5                	j	20011a4c <_malloc_r+0x98>
20011a6e:	8722                	mv	a4,s0
20011a70:	4040                	lw	s0,4(s0)
20011a72:	bf95                	j	200119e6 <_malloc_r+0x32>
20011a74:	00350413          	addi	s0,a0,3
20011a78:	9871                	andi	s0,s0,-4
20011a7a:	fc8503e3          	beq	a0,s0,20011a40 <_malloc_r+0x8c>
20011a7e:	40a405b3          	sub	a1,s0,a0
20011a82:	854a                	mv	a0,s2
20011a84:	2621                	jal	20011d8c <_sbrk_r>
20011a86:	fb351de3          	bne	a0,s3,20011a40 <_malloc_r+0x8c>
20011a8a:	bfbd                	j	20011a08 <_malloc_r+0x54>

20011a8c <__sfputc_r>:
__sfputc_r():
20011a8c:	461c                	lw	a5,8(a2)
20011a8e:	17fd                	addi	a5,a5,-1
20011a90:	c61c                	sw	a5,8(a2)
20011a92:	0007da63          	bgez	a5,20011aa6 <__sfputc_r+0x1a>
20011a96:	4e18                	lw	a4,24(a2)
20011a98:	00e7c563          	blt	a5,a4,20011aa2 <__sfputc_r+0x16>
20011a9c:	47a9                	li	a5,10
20011a9e:	00f59463          	bne	a1,a5,20011aa6 <__sfputc_r+0x1a>
20011aa2:	f36ff06f          	j	200111d8 <__swbuf_r>
20011aa6:	421c                	lw	a5,0(a2)
20011aa8:	852e                	mv	a0,a1
20011aaa:	00178713          	addi	a4,a5,1
20011aae:	c218                	sw	a4,0(a2)
20011ab0:	00b78023          	sb	a1,0(a5)
20011ab4:	8082                	ret

20011ab6 <__sfputs_r>:
__sfputs_r():
20011ab6:	1101                	addi	sp,sp,-32
20011ab8:	cc22                	sw	s0,24(sp)
20011aba:	ca26                	sw	s1,20(sp)
20011abc:	c84a                	sw	s2,16(sp)
20011abe:	c64e                	sw	s3,12(sp)
20011ac0:	c452                	sw	s4,8(sp)
20011ac2:	ce06                	sw	ra,28(sp)
20011ac4:	892a                	mv	s2,a0
20011ac6:	89ae                	mv	s3,a1
20011ac8:	8432                	mv	s0,a2
20011aca:	00d604b3          	add	s1,a2,a3
20011ace:	5a7d                	li	s4,-1
20011ad0:	00941463          	bne	s0,s1,20011ad8 <__sfputs_r+0x22>
20011ad4:	4501                	li	a0,0
20011ad6:	a809                	j	20011ae8 <__sfputs_r+0x32>
20011ad8:	00044583          	lbu	a1,0(s0)
20011adc:	864e                	mv	a2,s3
20011ade:	854a                	mv	a0,s2
20011ae0:	3775                	jal	20011a8c <__sfputc_r>
20011ae2:	0405                	addi	s0,s0,1
20011ae4:	ff4516e3          	bne	a0,s4,20011ad0 <__sfputs_r+0x1a>
20011ae8:	40f2                	lw	ra,28(sp)
20011aea:	4462                	lw	s0,24(sp)
20011aec:	44d2                	lw	s1,20(sp)
20011aee:	4942                	lw	s2,16(sp)
20011af0:	49b2                	lw	s3,12(sp)
20011af2:	4a22                	lw	s4,8(sp)
20011af4:	6105                	addi	sp,sp,32
20011af6:	8082                	ret

20011af8 <_vfiprintf_r>:
_vfiprintf_r():
20011af8:	7135                	addi	sp,sp,-160
20011afa:	cd22                	sw	s0,152(sp)
20011afc:	cb26                	sw	s1,148(sp)
20011afe:	c94a                	sw	s2,144(sp)
20011b00:	c74e                	sw	s3,140(sp)
20011b02:	cf06                	sw	ra,156(sp)
20011b04:	c552                	sw	s4,136(sp)
20011b06:	c356                	sw	s5,132(sp)
20011b08:	c15a                	sw	s6,128(sp)
20011b0a:	dede                	sw	s7,124(sp)
20011b0c:	dce2                	sw	s8,120(sp)
20011b0e:	dae6                	sw	s9,116(sp)
20011b10:	89aa                	mv	s3,a0
20011b12:	84ae                	mv	s1,a1
20011b14:	8932                	mv	s2,a2
20011b16:	8436                	mv	s0,a3
20011b18:	c501                	beqz	a0,20011b20 <_vfiprintf_r+0x28>
20011b1a:	4d1c                	lw	a5,24(a0)
20011b1c:	e391                	bnez	a5,20011b20 <_vfiprintf_r+0x28>
20011b1e:	34d5                	jal	20011602 <__sinit>
20011b20:	fffff797          	auipc	a5,0xfffff
20011b24:	8a478793          	addi	a5,a5,-1884 # 200103c4 <__sf_fake_stdin>
20011b28:	0cf49b63          	bne	s1,a5,20011bfe <_vfiprintf_r+0x106>
20011b2c:	0049a483          	lw	s1,4(s3)
20011b30:	00c4d783          	lhu	a5,12(s1)
20011b34:	8ba1                	andi	a5,a5,8
20011b36:	c7f5                	beqz	a5,20011c22 <_vfiprintf_r+0x12a>
20011b38:	489c                	lw	a5,16(s1)
20011b3a:	c7e5                	beqz	a5,20011c22 <_vfiprintf_r+0x12a>
20011b3c:	02000793          	li	a5,32
20011b40:	02f104a3          	sb	a5,41(sp)
20011b44:	03000793          	li	a5,48
20011b48:	d202                	sw	zero,36(sp)
20011b4a:	02f10523          	sb	a5,42(sp)
20011b4e:	c622                	sw	s0,12(sp)
20011b50:	02500b93          	li	s7,37
20011b54:	fffffa97          	auipc	s5,0xfffff
20011b58:	8b0a8a93          	addi	s5,s5,-1872 # 20010404 <__sf_fake_stdout+0x20>
20011b5c:	4c05                	li	s8,1
20011b5e:	4b29                	li	s6,10
20011b60:	844a                	mv	s0,s2
20011b62:	00044783          	lbu	a5,0(s0)
20011b66:	c399                	beqz	a5,20011b6c <_vfiprintf_r+0x74>
20011b68:	0f779063          	bne	a5,s7,20011c48 <_vfiprintf_r+0x150>
20011b6c:	41240cb3          	sub	s9,s0,s2
20011b70:	01240d63          	beq	s0,s2,20011b8a <_vfiprintf_r+0x92>
20011b74:	86e6                	mv	a3,s9
20011b76:	864a                	mv	a2,s2
20011b78:	85a6                	mv	a1,s1
20011b7a:	854e                	mv	a0,s3
20011b7c:	3f2d                	jal	20011ab6 <__sfputs_r>
20011b7e:	57fd                	li	a5,-1
20011b80:	1ef50463          	beq	a0,a5,20011d68 <_vfiprintf_r+0x270>
20011b84:	5792                	lw	a5,36(sp)
20011b86:	97e6                	add	a5,a5,s9
20011b88:	d23e                	sw	a5,36(sp)
20011b8a:	00044783          	lbu	a5,0(s0)
20011b8e:	1c078d63          	beqz	a5,20011d68 <_vfiprintf_r+0x270>
20011b92:	57fd                	li	a5,-1
20011b94:	00140913          	addi	s2,s0,1
20011b98:	c802                	sw	zero,16(sp)
20011b9a:	ce02                	sw	zero,28(sp)
20011b9c:	ca3e                	sw	a5,20(sp)
20011b9e:	cc02                	sw	zero,24(sp)
20011ba0:	040109a3          	sb	zero,83(sp)
20011ba4:	d482                	sw	zero,104(sp)
20011ba6:	00094583          	lbu	a1,0(s2)
20011baa:	4615                	li	a2,5
20011bac:	8556                	mv	a0,s5
20011bae:	2e5d                	jal	20011f64 <memchr>
20011bb0:	47c2                	lw	a5,16(sp)
20011bb2:	00190413          	addi	s0,s2,1
20011bb6:	e959                	bnez	a0,20011c4c <_vfiprintf_r+0x154>
20011bb8:	0107f713          	andi	a4,a5,16
20011bbc:	c709                	beqz	a4,20011bc6 <_vfiprintf_r+0xce>
20011bbe:	02000713          	li	a4,32
20011bc2:	04e109a3          	sb	a4,83(sp)
20011bc6:	0087f713          	andi	a4,a5,8
20011bca:	c709                	beqz	a4,20011bd4 <_vfiprintf_r+0xdc>
20011bcc:	02b00713          	li	a4,43
20011bd0:	04e109a3          	sb	a4,83(sp)
20011bd4:	00094683          	lbu	a3,0(s2)
20011bd8:	02a00713          	li	a4,42
20011bdc:	08e68063          	beq	a3,a4,20011c5c <_vfiprintf_r+0x164>
20011be0:	47f2                	lw	a5,28(sp)
20011be2:	844a                	mv	s0,s2
20011be4:	4681                	li	a3,0
20011be6:	4625                	li	a2,9
20011be8:	00044703          	lbu	a4,0(s0)
20011bec:	00140593          	addi	a1,s0,1
20011bf0:	fd070713          	addi	a4,a4,-48
20011bf4:	0ae67963          	bgeu	a2,a4,20011ca6 <_vfiprintf_r+0x1ae>
20011bf8:	cab5                	beqz	a3,20011c6c <_vfiprintf_r+0x174>
20011bfa:	ce3e                	sw	a5,28(sp)
20011bfc:	a885                	j	20011c6c <_vfiprintf_r+0x174>
20011bfe:	ffffe797          	auipc	a5,0xffffe
20011c02:	7e678793          	addi	a5,a5,2022 # 200103e4 <__sf_fake_stdout>
20011c06:	00f49563          	bne	s1,a5,20011c10 <_vfiprintf_r+0x118>
20011c0a:	0089a483          	lw	s1,8(s3)
20011c0e:	b70d                	j	20011b30 <_vfiprintf_r+0x38>
20011c10:	ffffe797          	auipc	a5,0xffffe
20011c14:	79478793          	addi	a5,a5,1940 # 200103a4 <__sf_fake_stderr>
20011c18:	f0f49ce3          	bne	s1,a5,20011b30 <_vfiprintf_r+0x38>
20011c1c:	00c9a483          	lw	s1,12(s3)
20011c20:	bf01                	j	20011b30 <_vfiprintf_r+0x38>
20011c22:	85a6                	mv	a1,s1
20011c24:	854e                	mv	a0,s3
20011c26:	e72ff0ef          	jal	ra,20011298 <__swsetup_r>
20011c2a:	d909                	beqz	a0,20011b3c <_vfiprintf_r+0x44>
20011c2c:	557d                	li	a0,-1
20011c2e:	40fa                	lw	ra,156(sp)
20011c30:	446a                	lw	s0,152(sp)
20011c32:	44da                	lw	s1,148(sp)
20011c34:	494a                	lw	s2,144(sp)
20011c36:	49ba                	lw	s3,140(sp)
20011c38:	4a2a                	lw	s4,136(sp)
20011c3a:	4a9a                	lw	s5,132(sp)
20011c3c:	4b0a                	lw	s6,128(sp)
20011c3e:	5bf6                	lw	s7,124(sp)
20011c40:	5c66                	lw	s8,120(sp)
20011c42:	5cd6                	lw	s9,116(sp)
20011c44:	610d                	addi	sp,sp,160
20011c46:	8082                	ret
20011c48:	0405                	addi	s0,s0,1
20011c4a:	bf21                	j	20011b62 <_vfiprintf_r+0x6a>
20011c4c:	41550533          	sub	a0,a0,s5
20011c50:	00ac1533          	sll	a0,s8,a0
20011c54:	8fc9                	or	a5,a5,a0
20011c56:	c83e                	sw	a5,16(sp)
20011c58:	8922                	mv	s2,s0
20011c5a:	b7b1                	j	20011ba6 <_vfiprintf_r+0xae>
20011c5c:	4732                	lw	a4,12(sp)
20011c5e:	00470693          	addi	a3,a4,4
20011c62:	4318                	lw	a4,0(a4)
20011c64:	c636                	sw	a3,12(sp)
20011c66:	02074963          	bltz	a4,20011c98 <_vfiprintf_r+0x1a0>
20011c6a:	ce3a                	sw	a4,28(sp)
20011c6c:	00044703          	lbu	a4,0(s0)
20011c70:	02e00793          	li	a5,46
20011c74:	04f71f63          	bne	a4,a5,20011cd2 <_vfiprintf_r+0x1da>
20011c78:	00144703          	lbu	a4,1(s0)
20011c7c:	02a00793          	li	a5,42
20011c80:	02f71b63          	bne	a4,a5,20011cb6 <_vfiprintf_r+0x1be>
20011c84:	47b2                	lw	a5,12(sp)
20011c86:	0409                	addi	s0,s0,2
20011c88:	00478713          	addi	a4,a5,4
20011c8c:	439c                	lw	a5,0(a5)
20011c8e:	c63a                	sw	a4,12(sp)
20011c90:	0207c163          	bltz	a5,20011cb2 <_vfiprintf_r+0x1ba>
20011c94:	ca3e                	sw	a5,20(sp)
20011c96:	a835                	j	20011cd2 <_vfiprintf_r+0x1da>
20011c98:	40e00733          	neg	a4,a4
20011c9c:	0027e793          	ori	a5,a5,2
20011ca0:	ce3a                	sw	a4,28(sp)
20011ca2:	c83e                	sw	a5,16(sp)
20011ca4:	b7e1                	j	20011c6c <_vfiprintf_r+0x174>
20011ca6:	036787b3          	mul	a5,a5,s6
20011caa:	842e                	mv	s0,a1
20011cac:	4685                	li	a3,1
20011cae:	97ba                	add	a5,a5,a4
20011cb0:	bf25                	j	20011be8 <_vfiprintf_r+0xf0>
20011cb2:	57fd                	li	a5,-1
20011cb4:	b7c5                	j	20011c94 <_vfiprintf_r+0x19c>
20011cb6:	0405                	addi	s0,s0,1
20011cb8:	ca02                	sw	zero,20(sp)
20011cba:	4681                	li	a3,0
20011cbc:	4781                	li	a5,0
20011cbe:	4625                	li	a2,9
20011cc0:	00044703          	lbu	a4,0(s0)
20011cc4:	00140593          	addi	a1,s0,1
20011cc8:	fd070713          	addi	a4,a4,-48
20011ccc:	06e67463          	bgeu	a2,a4,20011d34 <_vfiprintf_r+0x23c>
20011cd0:	f2f1                	bnez	a3,20011c94 <_vfiprintf_r+0x19c>
20011cd2:	00044583          	lbu	a1,0(s0)
20011cd6:	460d                	li	a2,3
20011cd8:	ffffe517          	auipc	a0,0xffffe
20011cdc:	73450513          	addi	a0,a0,1844 # 2001040c <__sf_fake_stdout+0x28>
20011ce0:	2451                	jal	20011f64 <memchr>
20011ce2:	cd11                	beqz	a0,20011cfe <_vfiprintf_r+0x206>
20011ce4:	ffffe797          	auipc	a5,0xffffe
20011ce8:	72878793          	addi	a5,a5,1832 # 2001040c <__sf_fake_stdout+0x28>
20011cec:	8d1d                	sub	a0,a0,a5
20011cee:	04000793          	li	a5,64
20011cf2:	00a797b3          	sll	a5,a5,a0
20011cf6:	4542                	lw	a0,16(sp)
20011cf8:	0405                	addi	s0,s0,1
20011cfa:	8d5d                	or	a0,a0,a5
20011cfc:	c82a                	sw	a0,16(sp)
20011cfe:	00044583          	lbu	a1,0(s0)
20011d02:	4619                	li	a2,6
20011d04:	ffffe517          	auipc	a0,0xffffe
20011d08:	70c50513          	addi	a0,a0,1804 # 20010410 <__sf_fake_stdout+0x2c>
20011d0c:	00140913          	addi	s2,s0,1
20011d10:	02b10423          	sb	a1,40(sp)
20011d14:	2c81                	jal	20011f64 <memchr>
20011d16:	c12d                	beqz	a0,20011d78 <_vfiprintf_r+0x280>
20011d18:	00000793          	li	a5,0
20011d1c:	e795                	bnez	a5,20011d48 <_vfiprintf_r+0x250>
20011d1e:	4742                	lw	a4,16(sp)
20011d20:	47b2                	lw	a5,12(sp)
20011d22:	10077713          	andi	a4,a4,256
20011d26:	cf09                	beqz	a4,20011d40 <_vfiprintf_r+0x248>
20011d28:	0791                	addi	a5,a5,4
20011d2a:	c63e                	sw	a5,12(sp)
20011d2c:	5792                	lw	a5,36(sp)
20011d2e:	97d2                	add	a5,a5,s4
20011d30:	d23e                	sw	a5,36(sp)
20011d32:	b53d                	j	20011b60 <_vfiprintf_r+0x68>
20011d34:	036787b3          	mul	a5,a5,s6
20011d38:	842e                	mv	s0,a1
20011d3a:	4685                	li	a3,1
20011d3c:	97ba                	add	a5,a5,a4
20011d3e:	b749                	j	20011cc0 <_vfiprintf_r+0x1c8>
20011d40:	079d                	addi	a5,a5,7
20011d42:	9be1                	andi	a5,a5,-8
20011d44:	07a1                	addi	a5,a5,8
20011d46:	b7d5                	j	20011d2a <_vfiprintf_r+0x232>
20011d48:	0078                	addi	a4,sp,12
20011d4a:	00000697          	auipc	a3,0x0
20011d4e:	d6c68693          	addi	a3,a3,-660 # 20011ab6 <__sfputs_r>
20011d52:	8626                	mv	a2,s1
20011d54:	080c                	addi	a1,sp,16
20011d56:	854e                	mv	a0,s3
20011d58:	00000097          	auipc	ra,0x0
20011d5c:	000000e7          	jalr	zero # 0 <__metal_boot_hart>
20011d60:	57fd                	li	a5,-1
20011d62:	8a2a                	mv	s4,a0
20011d64:	fcf514e3          	bne	a0,a5,20011d2c <_vfiprintf_r+0x234>
20011d68:	00c4d783          	lhu	a5,12(s1)
20011d6c:	0407f793          	andi	a5,a5,64
20011d70:	ea079ee3          	bnez	a5,20011c2c <_vfiprintf_r+0x134>
20011d74:	5512                	lw	a0,36(sp)
20011d76:	bd65                	j	20011c2e <_vfiprintf_r+0x136>
20011d78:	0078                	addi	a4,sp,12
20011d7a:	00000697          	auipc	a3,0x0
20011d7e:	d3c68693          	addi	a3,a3,-708 # 20011ab6 <__sfputs_r>
20011d82:	8626                	mv	a2,s1
20011d84:	080c                	addi	a1,sp,16
20011d86:	854e                	mv	a0,s3
20011d88:	2619                	jal	2001208e <_printf_i>
20011d8a:	bfd9                	j	20011d60 <_vfiprintf_r+0x268>

20011d8c <_sbrk_r>:
_sbrk_r():
20011d8c:	1141                	addi	sp,sp,-16
20011d8e:	c422                	sw	s0,8(sp)
20011d90:	842a                	mv	s0,a0
20011d92:	852e                	mv	a0,a1
20011d94:	5ffef797          	auipc	a5,0x5ffef
20011d98:	d207ae23          	sw	zero,-708(a5) # 80000ad0 <errno>
20011d9c:	c606                	sw	ra,12(sp)
20011d9e:	25b9                	jal	200123ec <_sbrk>
20011da0:	57fd                	li	a5,-1
20011da2:	00f51863          	bne	a0,a5,20011db2 <_sbrk_r+0x26>
20011da6:	5ffef797          	auipc	a5,0x5ffef
20011daa:	d2a7a783          	lw	a5,-726(a5) # 80000ad0 <errno>
20011dae:	c391                	beqz	a5,20011db2 <_sbrk_r+0x26>
20011db0:	c01c                	sw	a5,0(s0)
20011db2:	40b2                	lw	ra,12(sp)
20011db4:	4422                	lw	s0,8(sp)
20011db6:	0141                	addi	sp,sp,16
20011db8:	8082                	ret

20011dba <__sread>:
__sread():
20011dba:	1141                	addi	sp,sp,-16
20011dbc:	c422                	sw	s0,8(sp)
20011dbe:	842e                	mv	s0,a1
20011dc0:	00e59583          	lh	a1,14(a1)
20011dc4:	c606                	sw	ra,12(sp)
20011dc6:	2b25                	jal	200122fe <_read_r>
20011dc8:	00054963          	bltz	a0,20011dda <__sread+0x20>
20011dcc:	487c                	lw	a5,84(s0)
20011dce:	97aa                	add	a5,a5,a0
20011dd0:	c87c                	sw	a5,84(s0)
20011dd2:	40b2                	lw	ra,12(sp)
20011dd4:	4422                	lw	s0,8(sp)
20011dd6:	0141                	addi	sp,sp,16
20011dd8:	8082                	ret
20011dda:	00c45783          	lhu	a5,12(s0)
20011dde:	777d                	lui	a4,0xfffff
20011de0:	177d                	addi	a4,a4,-1
20011de2:	8ff9                	and	a5,a5,a4
20011de4:	00f41623          	sh	a5,12(s0)
20011de8:	b7ed                	j	20011dd2 <__sread+0x18>

20011dea <__swrite>:
__swrite():
20011dea:	00c5d783          	lhu	a5,12(a1)
20011dee:	1101                	addi	sp,sp,-32
20011df0:	cc22                	sw	s0,24(sp)
20011df2:	ca26                	sw	s1,20(sp)
20011df4:	c84a                	sw	s2,16(sp)
20011df6:	c64e                	sw	s3,12(sp)
20011df8:	ce06                	sw	ra,28(sp)
20011dfa:	1007f793          	andi	a5,a5,256
20011dfe:	84aa                	mv	s1,a0
20011e00:	842e                	mv	s0,a1
20011e02:	8932                	mv	s2,a2
20011e04:	89b6                	mv	s3,a3
20011e06:	c791                	beqz	a5,20011e12 <__swrite+0x28>
20011e08:	00e59583          	lh	a1,14(a1)
20011e0c:	4689                	li	a3,2
20011e0e:	4601                	li	a2,0
20011e10:	220d                	jal	20011f32 <_lseek_r>
20011e12:	00c45783          	lhu	a5,12(s0)
20011e16:	777d                	lui	a4,0xfffff
20011e18:	177d                	addi	a4,a4,-1
20011e1a:	8ff9                	and	a5,a5,a4
20011e1c:	00e41583          	lh	a1,14(s0)
20011e20:	00f41623          	sh	a5,12(s0)
20011e24:	4462                	lw	s0,24(sp)
20011e26:	40f2                	lw	ra,28(sp)
20011e28:	86ce                	mv	a3,s3
20011e2a:	864a                	mv	a2,s2
20011e2c:	49b2                	lw	s3,12(sp)
20011e2e:	4942                	lw	s2,16(sp)
20011e30:	8526                	mv	a0,s1
20011e32:	44d2                	lw	s1,20(sp)
20011e34:	6105                	addi	sp,sp,32
20011e36:	a83d                	j	20011e74 <_write_r>

20011e38 <__sseek>:
__sseek():
20011e38:	1141                	addi	sp,sp,-16
20011e3a:	c422                	sw	s0,8(sp)
20011e3c:	842e                	mv	s0,a1
20011e3e:	00e59583          	lh	a1,14(a1)
20011e42:	c606                	sw	ra,12(sp)
20011e44:	20fd                	jal	20011f32 <_lseek_r>
20011e46:	57fd                	li	a5,-1
20011e48:	00c45703          	lhu	a4,12(s0)
20011e4c:	00f51b63          	bne	a0,a5,20011e62 <__sseek+0x2a>
20011e50:	77fd                	lui	a5,0xfffff
20011e52:	17fd                	addi	a5,a5,-1
20011e54:	8ff9                	and	a5,a5,a4
20011e56:	00f41623          	sh	a5,12(s0)
20011e5a:	40b2                	lw	ra,12(sp)
20011e5c:	4422                	lw	s0,8(sp)
20011e5e:	0141                	addi	sp,sp,16
20011e60:	8082                	ret
20011e62:	6785                	lui	a5,0x1
20011e64:	8fd9                	or	a5,a5,a4
20011e66:	00f41623          	sh	a5,12(s0)
20011e6a:	c868                	sw	a0,84(s0)
20011e6c:	b7fd                	j	20011e5a <__sseek+0x22>

20011e6e <__sclose>:
__sclose():
20011e6e:	00e59583          	lh	a1,14(a1)
20011e72:	a815                	j	20011ea6 <_close_r>

20011e74 <_write_r>:
_write_r():
20011e74:	1141                	addi	sp,sp,-16
20011e76:	c422                	sw	s0,8(sp)
20011e78:	842a                	mv	s0,a0
20011e7a:	852e                	mv	a0,a1
20011e7c:	85b2                	mv	a1,a2
20011e7e:	8636                	mv	a2,a3
20011e80:	5ffef797          	auipc	a5,0x5ffef
20011e84:	c407a823          	sw	zero,-944(a5) # 80000ad0 <errno>
20011e88:	c606                	sw	ra,12(sp)
20011e8a:	23c5                	jal	2001246a <_write>
20011e8c:	57fd                	li	a5,-1
20011e8e:	00f51863          	bne	a0,a5,20011e9e <_write_r+0x2a>
20011e92:	5ffef797          	auipc	a5,0x5ffef
20011e96:	c3e7a783          	lw	a5,-962(a5) # 80000ad0 <errno>
20011e9a:	c391                	beqz	a5,20011e9e <_write_r+0x2a>
20011e9c:	c01c                	sw	a5,0(s0)
20011e9e:	40b2                	lw	ra,12(sp)
20011ea0:	4422                	lw	s0,8(sp)
20011ea2:	0141                	addi	sp,sp,16
20011ea4:	8082                	ret

20011ea6 <_close_r>:
_close_r():
20011ea6:	1141                	addi	sp,sp,-16
20011ea8:	c422                	sw	s0,8(sp)
20011eaa:	842a                	mv	s0,a0
20011eac:	852e                	mv	a0,a1
20011eae:	5ffef797          	auipc	a5,0x5ffef
20011eb2:	c207a123          	sw	zero,-990(a5) # 80000ad0 <errno>
20011eb6:	c606                	sw	ra,12(sp)
20011eb8:	29a5                	jal	20012330 <_close>
20011eba:	57fd                	li	a5,-1
20011ebc:	00f51863          	bne	a0,a5,20011ecc <_close_r+0x26>
20011ec0:	5ffef797          	auipc	a5,0x5ffef
20011ec4:	c107a783          	lw	a5,-1008(a5) # 80000ad0 <errno>
20011ec8:	c391                	beqz	a5,20011ecc <_close_r+0x26>
20011eca:	c01c                	sw	a5,0(s0)
20011ecc:	40b2                	lw	ra,12(sp)
20011ece:	4422                	lw	s0,8(sp)
20011ed0:	0141                	addi	sp,sp,16
20011ed2:	8082                	ret

20011ed4 <_fstat_r>:
_fstat_r():
20011ed4:	1141                	addi	sp,sp,-16
20011ed6:	c422                	sw	s0,8(sp)
20011ed8:	842a                	mv	s0,a0
20011eda:	852e                	mv	a0,a1
20011edc:	85b2                	mv	a1,a2
20011ede:	5ffef797          	auipc	a5,0x5ffef
20011ee2:	be07a923          	sw	zero,-1038(a5) # 80000ad0 <errno>
20011ee6:	c606                	sw	ra,12(sp)
20011ee8:	21ad                	jal	20012352 <_fstat>
20011eea:	57fd                	li	a5,-1
20011eec:	00f51863          	bne	a0,a5,20011efc <_fstat_r+0x28>
20011ef0:	5ffef797          	auipc	a5,0x5ffef
20011ef4:	be07a783          	lw	a5,-1056(a5) # 80000ad0 <errno>
20011ef8:	c391                	beqz	a5,20011efc <_fstat_r+0x28>
20011efa:	c01c                	sw	a5,0(s0)
20011efc:	40b2                	lw	ra,12(sp)
20011efe:	4422                	lw	s0,8(sp)
20011f00:	0141                	addi	sp,sp,16
20011f02:	8082                	ret

20011f04 <_isatty_r>:
_isatty_r():
20011f04:	1141                	addi	sp,sp,-16
20011f06:	c422                	sw	s0,8(sp)
20011f08:	842a                	mv	s0,a0
20011f0a:	852e                	mv	a0,a1
20011f0c:	5ffef797          	auipc	a5,0x5ffef
20011f10:	bc07a223          	sw	zero,-1084(a5) # 80000ad0 <errno>
20011f14:	c606                	sw	ra,12(sp)
20011f16:	218d                	jal	20012378 <_isatty>
20011f18:	57fd                	li	a5,-1
20011f1a:	00f51863          	bne	a0,a5,20011f2a <_isatty_r+0x26>
20011f1e:	5ffef797          	auipc	a5,0x5ffef
20011f22:	bb27a783          	lw	a5,-1102(a5) # 80000ad0 <errno>
20011f26:	c391                	beqz	a5,20011f2a <_isatty_r+0x26>
20011f28:	c01c                	sw	a5,0(s0)
20011f2a:	40b2                	lw	ra,12(sp)
20011f2c:	4422                	lw	s0,8(sp)
20011f2e:	0141                	addi	sp,sp,16
20011f30:	8082                	ret

20011f32 <_lseek_r>:
_lseek_r():
20011f32:	1141                	addi	sp,sp,-16
20011f34:	c422                	sw	s0,8(sp)
20011f36:	842a                	mv	s0,a0
20011f38:	852e                	mv	a0,a1
20011f3a:	85b2                	mv	a1,a2
20011f3c:	8636                	mv	a2,a3
20011f3e:	5ffef797          	auipc	a5,0x5ffef
20011f42:	b807a923          	sw	zero,-1134(a5) # 80000ad0 <errno>
20011f46:	c606                	sw	ra,12(sp)
20011f48:	2981                	jal	20012398 <_lseek>
20011f4a:	57fd                	li	a5,-1
20011f4c:	00f51863          	bne	a0,a5,20011f5c <_lseek_r+0x2a>
20011f50:	5ffef797          	auipc	a5,0x5ffef
20011f54:	b807a783          	lw	a5,-1152(a5) # 80000ad0 <errno>
20011f58:	c391                	beqz	a5,20011f5c <_lseek_r+0x2a>
20011f5a:	c01c                	sw	a5,0(s0)
20011f5c:	40b2                	lw	ra,12(sp)
20011f5e:	4422                	lw	s0,8(sp)
20011f60:	0141                	addi	sp,sp,16
20011f62:	8082                	ret

20011f64 <memchr>:
memchr():
20011f64:	0ff5f593          	zext.b	a1,a1
20011f68:	962a                	add	a2,a2,a0
20011f6a:	00c51463          	bne	a0,a2,20011f72 <memchr+0xe>
20011f6e:	4501                	li	a0,0
20011f70:	8082                	ret
20011f72:	00054783          	lbu	a5,0(a0)
20011f76:	feb78de3          	beq	a5,a1,20011f70 <memchr+0xc>
20011f7a:	0505                	addi	a0,a0,1
20011f7c:	b7fd                	j	20011f6a <memchr+0x6>

20011f7e <__malloc_lock>:
__malloc_lock():
20011f7e:	8082                	ret

20011f80 <__malloc_unlock>:
__malloc_unlock():
20011f80:	8082                	ret

20011f82 <_printf_common>:
_printf_common():
20011f82:	7179                	addi	sp,sp,-48
20011f84:	cc52                	sw	s4,24(sp)
20011f86:	499c                	lw	a5,16(a1)
20011f88:	8a3a                	mv	s4,a4
20011f8a:	4598                	lw	a4,8(a1)
20011f8c:	d422                	sw	s0,40(sp)
20011f8e:	d226                	sw	s1,36(sp)
20011f90:	ce4e                	sw	s3,28(sp)
20011f92:	ca56                	sw	s5,20(sp)
20011f94:	d606                	sw	ra,44(sp)
20011f96:	d04a                	sw	s2,32(sp)
20011f98:	c85a                	sw	s6,16(sp)
20011f9a:	c65e                	sw	s7,12(sp)
20011f9c:	89aa                	mv	s3,a0
20011f9e:	842e                	mv	s0,a1
20011fa0:	84b2                	mv	s1,a2
20011fa2:	8ab6                	mv	s5,a3
20011fa4:	00e7d363          	bge	a5,a4,20011faa <_printf_common+0x28>
20011fa8:	87ba                	mv	a5,a4
20011faa:	c09c                	sw	a5,0(s1)
20011fac:	04344703          	lbu	a4,67(s0)
20011fb0:	c319                	beqz	a4,20011fb6 <_printf_common+0x34>
20011fb2:	0785                	addi	a5,a5,1
20011fb4:	c09c                	sw	a5,0(s1)
20011fb6:	401c                	lw	a5,0(s0)
20011fb8:	0207f793          	andi	a5,a5,32
20011fbc:	c781                	beqz	a5,20011fc4 <_printf_common+0x42>
20011fbe:	409c                	lw	a5,0(s1)
20011fc0:	0789                	addi	a5,a5,2
20011fc2:	c09c                	sw	a5,0(s1)
20011fc4:	00042903          	lw	s2,0(s0)
20011fc8:	00697913          	andi	s2,s2,6
20011fcc:	00091a63          	bnez	s2,20011fe0 <_printf_common+0x5e>
20011fd0:	01940b13          	addi	s6,s0,25
20011fd4:	5bfd                	li	s7,-1
20011fd6:	445c                	lw	a5,12(s0)
20011fd8:	4098                	lw	a4,0(s1)
20011fda:	8f99                	sub	a5,a5,a4
20011fdc:	04f94c63          	blt	s2,a5,20012034 <_printf_common+0xb2>
20011fe0:	04344783          	lbu	a5,67(s0)
20011fe4:	00f036b3          	snez	a3,a5
20011fe8:	401c                	lw	a5,0(s0)
20011fea:	0207f793          	andi	a5,a5,32
20011fee:	eba5                	bnez	a5,2001205e <_printf_common+0xdc>
20011ff0:	04340613          	addi	a2,s0,67
20011ff4:	85d6                	mv	a1,s5
20011ff6:	854e                	mv	a0,s3
20011ff8:	9a02                	jalr	s4
20011ffa:	57fd                	li	a5,-1
20011ffc:	04f50363          	beq	a0,a5,20012042 <_printf_common+0xc0>
20012000:	401c                	lw	a5,0(s0)
20012002:	4611                	li	a2,4
20012004:	4098                	lw	a4,0(s1)
20012006:	8b99                	andi	a5,a5,6
20012008:	4454                	lw	a3,12(s0)
2001200a:	4481                	li	s1,0
2001200c:	00c79763          	bne	a5,a2,2001201a <_printf_common+0x98>
20012010:	40e684b3          	sub	s1,a3,a4
20012014:	0004d363          	bgez	s1,2001201a <_printf_common+0x98>
20012018:	4481                	li	s1,0
2001201a:	441c                	lw	a5,8(s0)
2001201c:	4818                	lw	a4,16(s0)
2001201e:	00f75463          	bge	a4,a5,20012026 <_printf_common+0xa4>
20012022:	8f99                	sub	a5,a5,a4
20012024:	94be                	add	s1,s1,a5
20012026:	4901                	li	s2,0
20012028:	0469                	addi	s0,s0,26
2001202a:	5b7d                	li	s6,-1
2001202c:	05249863          	bne	s1,s2,2001207c <_printf_common+0xfa>
20012030:	4501                	li	a0,0
20012032:	a809                	j	20012044 <_printf_common+0xc2>
20012034:	4685                	li	a3,1
20012036:	865a                	mv	a2,s6
20012038:	85d6                	mv	a1,s5
2001203a:	854e                	mv	a0,s3
2001203c:	9a02                	jalr	s4
2001203e:	01751e63          	bne	a0,s7,2001205a <_printf_common+0xd8>
20012042:	557d                	li	a0,-1
20012044:	50b2                	lw	ra,44(sp)
20012046:	5422                	lw	s0,40(sp)
20012048:	5492                	lw	s1,36(sp)
2001204a:	5902                	lw	s2,32(sp)
2001204c:	49f2                	lw	s3,28(sp)
2001204e:	4a62                	lw	s4,24(sp)
20012050:	4ad2                	lw	s5,20(sp)
20012052:	4b42                	lw	s6,16(sp)
20012054:	4bb2                	lw	s7,12(sp)
20012056:	6145                	addi	sp,sp,48
20012058:	8082                	ret
2001205a:	0905                	addi	s2,s2,1
2001205c:	bfad                	j	20011fd6 <_printf_common+0x54>
2001205e:	00d40733          	add	a4,s0,a3
20012062:	03000613          	li	a2,48
20012066:	04c701a3          	sb	a2,67(a4) # fffff043 <metal_segment_heap_target_end+0x7fffd8d3>
2001206a:	04544703          	lbu	a4,69(s0)
2001206e:	00168793          	addi	a5,a3,1
20012072:	97a2                	add	a5,a5,s0
20012074:	0689                	addi	a3,a3,2
20012076:	04e781a3          	sb	a4,67(a5)
2001207a:	bf9d                	j	20011ff0 <_printf_common+0x6e>
2001207c:	4685                	li	a3,1
2001207e:	8622                	mv	a2,s0
20012080:	85d6                	mv	a1,s5
20012082:	854e                	mv	a0,s3
20012084:	9a02                	jalr	s4
20012086:	fb650ee3          	beq	a0,s6,20012042 <_printf_common+0xc0>
2001208a:	0905                	addi	s2,s2,1
2001208c:	b745                	j	2001202c <_printf_common+0xaa>

2001208e <_printf_i>:
_printf_i():
2001208e:	7179                	addi	sp,sp,-48
20012090:	d422                	sw	s0,40(sp)
20012092:	d226                	sw	s1,36(sp)
20012094:	d04a                	sw	s2,32(sp)
20012096:	ce4e                	sw	s3,28(sp)
20012098:	d606                	sw	ra,44(sp)
2001209a:	cc52                	sw	s4,24(sp)
2001209c:	ca56                	sw	s5,20(sp)
2001209e:	c85a                	sw	s6,16(sp)
200120a0:	0185c803          	lbu	a6,24(a1)
200120a4:	07800793          	li	a5,120
200120a8:	84aa                	mv	s1,a0
200120aa:	842e                	mv	s0,a1
200120ac:	8932                	mv	s2,a2
200120ae:	89b6                	mv	s3,a3
200120b0:	0107ee63          	bltu	a5,a6,200120cc <_printf_i+0x3e>
200120b4:	06200793          	li	a5,98
200120b8:	04358693          	addi	a3,a1,67
200120bc:	0107ed63          	bltu	a5,a6,200120d6 <_printf_i+0x48>
200120c0:	1c080563          	beqz	a6,2001228a <_printf_i+0x1fc>
200120c4:	05800793          	li	a5,88
200120c8:	12f80a63          	beq	a6,a5,200121fc <_printf_i+0x16e>
200120cc:	04240a93          	addi	s5,s0,66
200120d0:	05040123          	sb	a6,66(s0)
200120d4:	a815                	j	20012108 <_printf_i+0x7a>
200120d6:	f9d80793          	addi	a5,a6,-99
200120da:	0ff7f793          	zext.b	a5,a5
200120de:	4655                	li	a2,21
200120e0:	fef666e3          	bltu	a2,a5,200120cc <_printf_i+0x3e>
200120e4:	ffffe617          	auipc	a2,0xffffe
200120e8:	35c60613          	addi	a2,a2,860 # 20010440 <__sf_fake_stdout+0x5c>
200120ec:	078a                	slli	a5,a5,0x2
200120ee:	97b2                	add	a5,a5,a2
200120f0:	439c                	lw	a5,0(a5)
200120f2:	97b2                	add	a5,a5,a2
200120f4:	8782                	jr	a5
200120f6:	431c                	lw	a5,0(a4)
200120f8:	04258a93          	addi	s5,a1,66
200120fc:	00478693          	addi	a3,a5,4
20012100:	439c                	lw	a5,0(a5)
20012102:	c314                	sw	a3,0(a4)
20012104:	04f58123          	sb	a5,66(a1)
20012108:	4785                	li	a5,1
2001210a:	a25d                	j	200122b0 <_printf_i+0x222>
2001210c:	419c                	lw	a5,0(a1)
2001210e:	4308                	lw	a0,0(a4)
20012110:	0807f613          	andi	a2,a5,128
20012114:	00450593          	addi	a1,a0,4
20012118:	c20d                	beqz	a2,2001213a <_printf_i+0xac>
2001211a:	411c                	lw	a5,0(a0)
2001211c:	c30c                	sw	a1,0(a4)
2001211e:	0007d863          	bgez	a5,2001212e <_printf_i+0xa0>
20012122:	02d00713          	li	a4,45
20012126:	40f007b3          	neg	a5,a5
2001212a:	04e401a3          	sb	a4,67(s0)
2001212e:	ffffe617          	auipc	a2,0xffffe
20012132:	2ea60613          	addi	a2,a2,746 # 20010418 <__sf_fake_stdout+0x34>
20012136:	4829                	li	a6,10
20012138:	a0a1                	j	20012180 <_printf_i+0xf2>
2001213a:	0407f613          	andi	a2,a5,64
2001213e:	411c                	lw	a5,0(a0)
20012140:	c30c                	sw	a1,0(a4)
20012142:	de71                	beqz	a2,2001211e <_printf_i+0x90>
20012144:	07c2                	slli	a5,a5,0x10
20012146:	87c1                	srai	a5,a5,0x10
20012148:	bfd9                	j	2001211e <_printf_i+0x90>
2001214a:	4190                	lw	a2,0(a1)
2001214c:	431c                	lw	a5,0(a4)
2001214e:	08067513          	andi	a0,a2,128
20012152:	00478593          	addi	a1,a5,4
20012156:	c501                	beqz	a0,2001215e <_printf_i+0xd0>
20012158:	c30c                	sw	a1,0(a4)
2001215a:	439c                	lw	a5,0(a5)
2001215c:	a039                	j	2001216a <_printf_i+0xdc>
2001215e:	04067613          	andi	a2,a2,64
20012162:	c30c                	sw	a1,0(a4)
20012164:	da7d                	beqz	a2,2001215a <_printf_i+0xcc>
20012166:	0007d783          	lhu	a5,0(a5)
2001216a:	06f00713          	li	a4,111
2001216e:	ffffe617          	auipc	a2,0xffffe
20012172:	2aa60613          	addi	a2,a2,682 # 20010418 <__sf_fake_stdout+0x34>
20012176:	0ee80463          	beq	a6,a4,2001225e <_printf_i+0x1d0>
2001217a:	4829                	li	a6,10
2001217c:	040401a3          	sb	zero,67(s0)
20012180:	4058                	lw	a4,4(s0)
20012182:	c418                	sw	a4,8(s0)
20012184:	00074563          	bltz	a4,2001218e <_printf_i+0x100>
20012188:	400c                	lw	a1,0(s0)
2001218a:	99ed                	andi	a1,a1,-5
2001218c:	c00c                	sw	a1,0(s0)
2001218e:	e399                	bnez	a5,20012194 <_printf_i+0x106>
20012190:	8ab6                	mv	s5,a3
20012192:	cf19                	beqz	a4,200121b0 <_printf_i+0x122>
20012194:	8ab6                	mv	s5,a3
20012196:	0307f733          	remu	a4,a5,a6
2001219a:	1afd                	addi	s5,s5,-1
2001219c:	9732                	add	a4,a4,a2
2001219e:	00074703          	lbu	a4,0(a4)
200121a2:	00ea8023          	sb	a4,0(s5)
200121a6:	873e                	mv	a4,a5
200121a8:	0307d7b3          	divu	a5,a5,a6
200121ac:	ff0775e3          	bgeu	a4,a6,20012196 <_printf_i+0x108>
200121b0:	47a1                	li	a5,8
200121b2:	00f81e63          	bne	a6,a5,200121ce <_printf_i+0x140>
200121b6:	401c                	lw	a5,0(s0)
200121b8:	8b85                	andi	a5,a5,1
200121ba:	cb91                	beqz	a5,200121ce <_printf_i+0x140>
200121bc:	4058                	lw	a4,4(s0)
200121be:	481c                	lw	a5,16(s0)
200121c0:	00e7c763          	blt	a5,a4,200121ce <_printf_i+0x140>
200121c4:	03000793          	li	a5,48
200121c8:	fefa8fa3          	sb	a5,-1(s5)
200121cc:	1afd                	addi	s5,s5,-1
200121ce:	415686b3          	sub	a3,a3,s5
200121d2:	c814                	sw	a3,16(s0)
200121d4:	874e                	mv	a4,s3
200121d6:	86ca                	mv	a3,s2
200121d8:	0070                	addi	a2,sp,12
200121da:	85a2                	mv	a1,s0
200121dc:	8526                	mv	a0,s1
200121de:	3355                	jal	20011f82 <_printf_common>
200121e0:	5a7d                	li	s4,-1
200121e2:	0d451b63          	bne	a0,s4,200122b8 <_printf_i+0x22a>
200121e6:	557d                	li	a0,-1
200121e8:	50b2                	lw	ra,44(sp)
200121ea:	5422                	lw	s0,40(sp)
200121ec:	5492                	lw	s1,36(sp)
200121ee:	5902                	lw	s2,32(sp)
200121f0:	49f2                	lw	s3,28(sp)
200121f2:	4a62                	lw	s4,24(sp)
200121f4:	4ad2                	lw	s5,20(sp)
200121f6:	4b42                	lw	s6,16(sp)
200121f8:	6145                	addi	sp,sp,48
200121fa:	8082                	ret
200121fc:	050582a3          	sb	a6,69(a1)
20012200:	ffffe617          	auipc	a2,0xffffe
20012204:	21860613          	addi	a2,a2,536 # 20010418 <__sf_fake_stdout+0x34>
20012208:	400c                	lw	a1,0(s0)
2001220a:	4308                	lw	a0,0(a4)
2001220c:	0805f813          	andi	a6,a1,128
20012210:	411c                	lw	a5,0(a0)
20012212:	0511                	addi	a0,a0,4
20012214:	02080d63          	beqz	a6,2001224e <_printf_i+0x1c0>
20012218:	c308                	sw	a0,0(a4)
2001221a:	0015f713          	andi	a4,a1,1
2001221e:	c701                	beqz	a4,20012226 <_printf_i+0x198>
20012220:	0205e593          	ori	a1,a1,32
20012224:	c00c                	sw	a1,0(s0)
20012226:	4841                	li	a6,16
20012228:	fbb1                	bnez	a5,2001217c <_printf_i+0xee>
2001222a:	4018                	lw	a4,0(s0)
2001222c:	fdf77713          	andi	a4,a4,-33
20012230:	c018                	sw	a4,0(s0)
20012232:	b7a9                	j	2001217c <_printf_i+0xee>
20012234:	419c                	lw	a5,0(a1)
20012236:	0207e793          	ori	a5,a5,32
2001223a:	c19c                	sw	a5,0(a1)
2001223c:	07800793          	li	a5,120
20012240:	04f402a3          	sb	a5,69(s0)
20012244:	ffffe617          	auipc	a2,0xffffe
20012248:	1e860613          	addi	a2,a2,488 # 2001042c <__sf_fake_stdout+0x48>
2001224c:	bf75                	j	20012208 <_printf_i+0x17a>
2001224e:	0405f813          	andi	a6,a1,64
20012252:	c308                	sw	a0,0(a4)
20012254:	fc0803e3          	beqz	a6,2001221a <_printf_i+0x18c>
20012258:	07c2                	slli	a5,a5,0x10
2001225a:	83c1                	srli	a5,a5,0x10
2001225c:	bf7d                	j	2001221a <_printf_i+0x18c>
2001225e:	4821                	li	a6,8
20012260:	bf31                	j	2001217c <_printf_i+0xee>
20012262:	4190                	lw	a2,0(a1)
20012264:	431c                	lw	a5,0(a4)
20012266:	49cc                	lw	a1,20(a1)
20012268:	08067813          	andi	a6,a2,128
2001226c:	00478513          	addi	a0,a5,4
20012270:	00080663          	beqz	a6,2001227c <_printf_i+0x1ee>
20012274:	c308                	sw	a0,0(a4)
20012276:	439c                	lw	a5,0(a5)
20012278:	c38c                	sw	a1,0(a5)
2001227a:	a801                	j	2001228a <_printf_i+0x1fc>
2001227c:	c308                	sw	a0,0(a4)
2001227e:	04067613          	andi	a2,a2,64
20012282:	439c                	lw	a5,0(a5)
20012284:	da75                	beqz	a2,20012278 <_printf_i+0x1ea>
20012286:	00b79023          	sh	a1,0(a5)
2001228a:	00042823          	sw	zero,16(s0)
2001228e:	8ab6                	mv	s5,a3
20012290:	b791                	j	200121d4 <_printf_i+0x146>
20012292:	431c                	lw	a5,0(a4)
20012294:	41d0                	lw	a2,4(a1)
20012296:	4581                	li	a1,0
20012298:	00478693          	addi	a3,a5,4
2001229c:	c314                	sw	a3,0(a4)
2001229e:	0007aa83          	lw	s5,0(a5)
200122a2:	8556                	mv	a0,s5
200122a4:	31c1                	jal	20011f64 <memchr>
200122a6:	c501                	beqz	a0,200122ae <_printf_i+0x220>
200122a8:	41550533          	sub	a0,a0,s5
200122ac:	c048                	sw	a0,4(s0)
200122ae:	405c                	lw	a5,4(s0)
200122b0:	c81c                	sw	a5,16(s0)
200122b2:	040401a3          	sb	zero,67(s0)
200122b6:	bf39                	j	200121d4 <_printf_i+0x146>
200122b8:	4814                	lw	a3,16(s0)
200122ba:	8656                	mv	a2,s5
200122bc:	85ca                	mv	a1,s2
200122be:	8526                	mv	a0,s1
200122c0:	9982                	jalr	s3
200122c2:	f34502e3          	beq	a0,s4,200121e6 <_printf_i+0x158>
200122c6:	401c                	lw	a5,0(s0)
200122c8:	8b89                	andi	a5,a5,2
200122ca:	e78d                	bnez	a5,200122f4 <_printf_i+0x266>
200122cc:	47b2                	lw	a5,12(sp)
200122ce:	4448                	lw	a0,12(s0)
200122d0:	f0f55ce3          	bge	a0,a5,200121e8 <_printf_i+0x15a>
200122d4:	853e                	mv	a0,a5
200122d6:	bf09                	j	200121e8 <_printf_i+0x15a>
200122d8:	4685                	li	a3,1
200122da:	8656                	mv	a2,s5
200122dc:	85ca                	mv	a1,s2
200122de:	8526                	mv	a0,s1
200122e0:	9982                	jalr	s3
200122e2:	f16502e3          	beq	a0,s6,200121e6 <_printf_i+0x158>
200122e6:	0a05                	addi	s4,s4,1
200122e8:	445c                	lw	a5,12(s0)
200122ea:	4732                	lw	a4,12(sp)
200122ec:	8f99                	sub	a5,a5,a4
200122ee:	fefa45e3          	blt	s4,a5,200122d8 <_printf_i+0x24a>
200122f2:	bfe9                	j	200122cc <_printf_i+0x23e>
200122f4:	4a01                	li	s4,0
200122f6:	01940a93          	addi	s5,s0,25
200122fa:	5b7d                	li	s6,-1
200122fc:	b7f5                	j	200122e8 <_printf_i+0x25a>

200122fe <_read_r>:
_read_r():
200122fe:	1141                	addi	sp,sp,-16
20012300:	c422                	sw	s0,8(sp)
20012302:	842a                	mv	s0,a0
20012304:	852e                	mv	a0,a1
20012306:	85b2                	mv	a1,a2
20012308:	8636                	mv	a2,a3
2001230a:	5ffee797          	auipc	a5,0x5ffee
2001230e:	7c07a323          	sw	zero,1990(a5) # 80000ad0 <errno>
20012312:	c606                	sw	ra,12(sp)
20012314:	207d                	jal	200123c2 <_read>
20012316:	57fd                	li	a5,-1
20012318:	00f51863          	bne	a0,a5,20012328 <_read_r+0x2a>
2001231c:	5ffee797          	auipc	a5,0x5ffee
20012320:	7b47a783          	lw	a5,1972(a5) # 80000ad0 <errno>
20012324:	c391                	beqz	a5,20012328 <_read_r+0x2a>
20012326:	c01c                	sw	a5,0(s0)
20012328:	40b2                	lw	ra,12(sp)
2001232a:	4422                	lw	s0,8(sp)
2001232c:	0141                	addi	sp,sp,16
2001232e:	8082                	ret

20012330 <_close>:
_close():
/home/jw/Desktop/sifive-standalone-project/freedom-metal/gloss/sys_close.c:3
#include <errno.h>

int _close(int file) {
20012330:	1101                	addi	sp,sp,-32
20012332:	ce06                	sw	ra,28(sp)
20012334:	cc22                	sw	s0,24(sp)
20012336:	1000                	addi	s0,sp,32
20012338:	fea42623          	sw	a0,-20(s0)
/home/jw/Desktop/sifive-standalone-project/freedom-metal/gloss/sys_close.c:4
    errno = ENOSYS;
2001233c:	225d                	jal	200124e2 <__errno>
2001233e:	872a                	mv	a4,a0
20012340:	05800793          	li	a5,88
20012344:	c31c                	sw	a5,0(a4)
/home/jw/Desktop/sifive-standalone-project/freedom-metal/gloss/sys_close.c:5
    return -1;
20012346:	57fd                	li	a5,-1
/home/jw/Desktop/sifive-standalone-project/freedom-metal/gloss/sys_close.c:6
}
20012348:	853e                	mv	a0,a5
2001234a:	40f2                	lw	ra,28(sp)
2001234c:	4462                	lw	s0,24(sp)
2001234e:	6105                	addi	sp,sp,32
20012350:	8082                	ret

20012352 <_fstat>:
_fstat():
/home/jw/Desktop/sifive-standalone-project/freedom-metal/gloss/sys_fstat.c:4
#include <errno.h>
#include <sys/stat.h>

int _fstat(int file, struct stat *st) {
20012352:	1101                	addi	sp,sp,-32
20012354:	ce06                	sw	ra,28(sp)
20012356:	cc22                	sw	s0,24(sp)
20012358:	1000                	addi	s0,sp,32
2001235a:	fea42623          	sw	a0,-20(s0)
2001235e:	feb42423          	sw	a1,-24(s0)
/home/jw/Desktop/sifive-standalone-project/freedom-metal/gloss/sys_fstat.c:5
    errno = -ENOSYS;
20012362:	2241                	jal	200124e2 <__errno>
20012364:	872a                	mv	a4,a0
20012366:	fa800793          	li	a5,-88
2001236a:	c31c                	sw	a5,0(a4)
/home/jw/Desktop/sifive-standalone-project/freedom-metal/gloss/sys_fstat.c:6
    return -1;
2001236c:	57fd                	li	a5,-1
/home/jw/Desktop/sifive-standalone-project/freedom-metal/gloss/sys_fstat.c:7
}
2001236e:	853e                	mv	a0,a5
20012370:	40f2                	lw	ra,28(sp)
20012372:	4462                	lw	s0,24(sp)
20012374:	6105                	addi	sp,sp,32
20012376:	8082                	ret

20012378 <_isatty>:
_isatty():
/home/jw/Desktop/sifive-standalone-project/freedom-metal/gloss/sys_isatty.c:3
#include <unistd.h>

int _isatty(int file) { return (file == STDOUT_FILENO); }
20012378:	1101                	addi	sp,sp,-32
2001237a:	ce22                	sw	s0,28(sp)
2001237c:	1000                	addi	s0,sp,32
2001237e:	fea42623          	sw	a0,-20(s0)
20012382:	fec42783          	lw	a5,-20(s0)
20012386:	17fd                	addi	a5,a5,-1
20012388:	0017b793          	seqz	a5,a5
2001238c:	0ff7f793          	zext.b	a5,a5
20012390:	853e                	mv	a0,a5
20012392:	4472                	lw	s0,28(sp)
20012394:	6105                	addi	sp,sp,32
20012396:	8082                	ret

20012398 <_lseek>:
_lseek():
/home/jw/Desktop/sifive-standalone-project/freedom-metal/gloss/sys_lseek.c:4
#include <errno.h>
#include <sys/types.h>

off_t _lseek(int file, off_t ptr, int dir) {
20012398:	1101                	addi	sp,sp,-32
2001239a:	ce06                	sw	ra,28(sp)
2001239c:	cc22                	sw	s0,24(sp)
2001239e:	1000                	addi	s0,sp,32
200123a0:	fea42623          	sw	a0,-20(s0)
200123a4:	feb42423          	sw	a1,-24(s0)
200123a8:	fec42223          	sw	a2,-28(s0)
/home/jw/Desktop/sifive-standalone-project/freedom-metal/gloss/sys_lseek.c:5
    errno = ENOSYS;
200123ac:	2a1d                	jal	200124e2 <__errno>
200123ae:	872a                	mv	a4,a0
200123b0:	05800793          	li	a5,88
200123b4:	c31c                	sw	a5,0(a4)
/home/jw/Desktop/sifive-standalone-project/freedom-metal/gloss/sys_lseek.c:6
    return -1;
200123b6:	57fd                	li	a5,-1
/home/jw/Desktop/sifive-standalone-project/freedom-metal/gloss/sys_lseek.c:7
}
200123b8:	853e                	mv	a0,a5
200123ba:	40f2                	lw	ra,28(sp)
200123bc:	4462                	lw	s0,24(sp)
200123be:	6105                	addi	sp,sp,32
200123c0:	8082                	ret

200123c2 <_read>:
_read():
/home/jw/Desktop/sifive-standalone-project/freedom-metal/gloss/sys_read.c:4
#include <errno.h>
#include <sys/types.h>

ssize_t _read(int file, void *ptr, size_t len) {
200123c2:	1101                	addi	sp,sp,-32
200123c4:	ce06                	sw	ra,28(sp)
200123c6:	cc22                	sw	s0,24(sp)
200123c8:	1000                	addi	s0,sp,32
200123ca:	fea42623          	sw	a0,-20(s0)
200123ce:	feb42423          	sw	a1,-24(s0)
200123d2:	fec42223          	sw	a2,-28(s0)
/home/jw/Desktop/sifive-standalone-project/freedom-metal/gloss/sys_read.c:5
    errno = ENOSYS;
200123d6:	2231                	jal	200124e2 <__errno>
200123d8:	872a                	mv	a4,a0
200123da:	05800793          	li	a5,88
200123de:	c31c                	sw	a5,0(a4)
/home/jw/Desktop/sifive-standalone-project/freedom-metal/gloss/sys_read.c:6
    return -1;
200123e0:	57fd                	li	a5,-1
/home/jw/Desktop/sifive-standalone-project/freedom-metal/gloss/sys_read.c:7
}
200123e2:	853e                	mv	a0,a5
200123e4:	40f2                	lw	ra,28(sp)
200123e6:	4462                	lw	s0,24(sp)
200123e8:	6105                	addi	sp,sp,32
200123ea:	8082                	ret

200123ec <_sbrk>:
_sbrk():
/home/jw/Desktop/sifive-standalone-project/freedom-metal/gloss/sys_sbrk.c:24
int _brk(void *addr) {
    __brk = addr;
    return 0;
}

char *_sbrk(ptrdiff_t incr) {
200123ec:	7179                	addi	sp,sp,-48
200123ee:	d606                	sw	ra,44(sp)
200123f0:	d422                	sw	s0,40(sp)
200123f2:	1800                	addi	s0,sp,48
200123f4:	fca42e23          	sw	a0,-36(s0)
/home/jw/Desktop/sifive-standalone-project/freedom-metal/gloss/sys_sbrk.c:25
    char *old = __brk;
200123f8:	800017b7          	lui	a5,0x80001
200123fc:	aa47a783          	lw	a5,-1372(a5) # 80000aa4 <metal_segment_heap_target_end+0xfffff334>
20012400:	fef42623          	sw	a5,-20(s0)
/home/jw/Desktop/sifive-standalone-project/freedom-metal/gloss/sys_sbrk.c:28

    /* If __heap_size == 0, we can't allocate memory on the heap */
    if (&metal_segment_heap_target_start == &metal_segment_heap_target_end) {
20012404:	cd018713          	addi	a4,gp,-816 # 80000f70 <_sp>
20012408:	4d018793          	addi	a5,gp,1232 # 80001770 <metal_segment_heap_target_end>
2001240c:	00f71463          	bne	a4,a5,20012414 <_sbrk+0x28>
/home/jw/Desktop/sifive-standalone-project/freedom-metal/gloss/sys_sbrk.c:29
        return (void *)-1;
20012410:	57fd                	li	a5,-1
20012412:	a0b9                	j	20012460 <_sbrk+0x74>
/home/jw/Desktop/sifive-standalone-project/freedom-metal/gloss/sys_sbrk.c:33
    }

    /* Don't move the break past the end of the heap */
    if ((__brk + incr) < &metal_segment_heap_target_end) {
20012414:	800017b7          	lui	a5,0x80001
20012418:	aa47a703          	lw	a4,-1372(a5) # 80000aa4 <metal_segment_heap_target_end+0xfffff334>
2001241c:	fdc42783          	lw	a5,-36(s0)
20012420:	973e                	add	a4,a4,a5
20012422:	4d018793          	addi	a5,gp,1232 # 80001770 <metal_segment_heap_target_end>
20012426:	02f77663          	bgeu	a4,a5,20012452 <_sbrk+0x66>
/home/jw/Desktop/sifive-standalone-project/freedom-metal/gloss/sys_sbrk.c:34
        __brk += incr;
2001242a:	800017b7          	lui	a5,0x80001
2001242e:	aa47a703          	lw	a4,-1372(a5) # 80000aa4 <metal_segment_heap_target_end+0xfffff334>
20012432:	fdc42783          	lw	a5,-36(s0)
20012436:	973e                	add	a4,a4,a5
20012438:	800017b7          	lui	a5,0x80001
2001243c:	aae7a223          	sw	a4,-1372(a5) # 80000aa4 <metal_segment_heap_target_end+0xfffff334>
/home/jw/Desktop/sifive-standalone-project/freedom-metal/gloss/sys_sbrk.c:40
    } else {
        __brk = &metal_segment_heap_target_end;
        return (void *)-1;
    }
    /* Scrub out allocated memory to avoid spurious ECC errors */
    metal_mem_scrub(old, incr);
20012440:	fdc42583          	lw	a1,-36(s0)
20012444:	fec42503          	lw	a0,-20(s0)
20012448:	c43fd0ef          	jal	ra,2001008a <metal_mem_scrub>
/home/jw/Desktop/sifive-standalone-project/freedom-metal/gloss/sys_sbrk.c:42

    return old;
2001244c:	fec42783          	lw	a5,-20(s0)
20012450:	a801                	j	20012460 <_sbrk+0x74>
/home/jw/Desktop/sifive-standalone-project/freedom-metal/gloss/sys_sbrk.c:36
        __brk = &metal_segment_heap_target_end;
20012452:	800017b7          	lui	a5,0x80001
20012456:	4d018713          	addi	a4,gp,1232 # 80001770 <metal_segment_heap_target_end>
2001245a:	aae7a223          	sw	a4,-1372(a5) # 80000aa4 <metal_segment_heap_target_end+0xfffff334>
/home/jw/Desktop/sifive-standalone-project/freedom-metal/gloss/sys_sbrk.c:37
        return (void *)-1;
2001245e:	57fd                	li	a5,-1
/home/jw/Desktop/sifive-standalone-project/freedom-metal/gloss/sys_sbrk.c:43
}
20012460:	853e                	mv	a0,a5
20012462:	50b2                	lw	ra,44(sp)
20012464:	5422                	lw	s0,40(sp)
20012466:	6145                	addi	sp,sp,48
20012468:	8082                	ret

2001246a <_write>:
_write():
/home/jw/Desktop/sifive-standalone-project/freedom-metal/gloss/sys_write.c:7
#include <metal/tty.h>
#include <sys/types.h>
#include <unistd.h>

/* Write to a file.  */
ssize_t _write(int file, const void *ptr, size_t len) {
2001246a:	7179                	addi	sp,sp,-48
2001246c:	d606                	sw	ra,44(sp)
2001246e:	d422                	sw	s0,40(sp)
20012470:	1800                	addi	s0,sp,48
20012472:	fca42e23          	sw	a0,-36(s0)
20012476:	fcb42c23          	sw	a1,-40(s0)
2001247a:	fcc42a23          	sw	a2,-44(s0)
/home/jw/Desktop/sifive-standalone-project/freedom-metal/gloss/sys_write.c:8
    if (file != STDOUT_FILENO) {
2001247e:	fdc42703          	lw	a4,-36(s0)
20012482:	4785                	li	a5,1
20012484:	00f70963          	beq	a4,a5,20012496 <_write+0x2c>
/home/jw/Desktop/sifive-standalone-project/freedom-metal/gloss/sys_write.c:9
        errno = ENOSYS;
20012488:	28a9                	jal	200124e2 <__errno>
2001248a:	872a                	mv	a4,a0
2001248c:	05800793          	li	a5,88
20012490:	c31c                	sw	a5,0(a4)
/home/jw/Desktop/sifive-standalone-project/freedom-metal/gloss/sys_write.c:10
        return -1;
20012492:	57fd                	li	a5,-1
20012494:	a82d                	j	200124ce <_write+0x64>
/home/jw/Desktop/sifive-standalone-project/freedom-metal/gloss/sys_write.c:13
    }

    const char *bptr = ptr;
20012496:	fd842783          	lw	a5,-40(s0)
2001249a:	fef42423          	sw	a5,-24(s0)
/home/jw/Desktop/sifive-standalone-project/freedom-metal/gloss/sys_write.c:14
    for (size_t i = 0; i < len; ++i)
2001249e:	fe042623          	sw	zero,-20(s0)
200124a2:	a839                	j	200124c0 <_write+0x56>
/home/jw/Desktop/sifive-standalone-project/freedom-metal/gloss/sys_write.c:15 (discriminator 3)
        metal_tty_putc(bptr[i]);
200124a4:	fe842703          	lw	a4,-24(s0)
200124a8:	fec42783          	lw	a5,-20(s0)
200124ac:	97ba                	add	a5,a5,a4
200124ae:	0007c783          	lbu	a5,0(a5)
200124b2:	853e                	mv	a0,a5
200124b4:	2e89                	jal	20012806 <metal_tty_putc>
/home/jw/Desktop/sifive-standalone-project/freedom-metal/gloss/sys_write.c:14 (discriminator 3)
    for (size_t i = 0; i < len; ++i)
200124b6:	fec42783          	lw	a5,-20(s0)
200124ba:	0785                	addi	a5,a5,1
200124bc:	fef42623          	sw	a5,-20(s0)
/home/jw/Desktop/sifive-standalone-project/freedom-metal/gloss/sys_write.c:14 (discriminator 1)
200124c0:	fec42703          	lw	a4,-20(s0)
200124c4:	fd442783          	lw	a5,-44(s0)
200124c8:	fcf76ee3          	bltu	a4,a5,200124a4 <_write+0x3a>
/home/jw/Desktop/sifive-standalone-project/freedom-metal/gloss/sys_write.c:16
    return 0;
200124cc:	4781                	li	a5,0
/home/jw/Desktop/sifive-standalone-project/freedom-metal/gloss/sys_write.c:17
}
200124ce:	853e                	mv	a0,a5
200124d0:	50b2                	lw	ra,44(sp)
200124d2:	5422                	lw	s0,40(sp)
200124d4:	6145                	addi	sp,sp,48
200124d6:	8082                	ret

200124d8 <atexit>:
atexit():
200124d8:	85aa                	mv	a1,a0
200124da:	4681                	li	a3,0
200124dc:	4601                	li	a2,0
200124de:	4501                	li	a0,0
200124e0:	a0e9                	j	200125aa <__register_exitproc>

200124e2 <__errno>:
__errno():
200124e2:	5ffee517          	auipc	a0,0x5ffee
200124e6:	5be52503          	lw	a0,1470(a0) # 80000aa0 <_impure_ptr>
200124ea:	8082                	ret

200124ec <exit>:
exit():
200124ec:	1141                	addi	sp,sp,-16
200124ee:	c422                	sw	s0,8(sp)
200124f0:	c606                	sw	ra,12(sp)
200124f2:	00000797          	auipc	a5,0x0
200124f6:	13478793          	addi	a5,a5,308 # 20012626 <__call_exitprocs>
200124fa:	842a                	mv	s0,a0
200124fc:	c399                	beqz	a5,20012502 <exit+0x16>
200124fe:	4581                	li	a1,0
20012500:	221d                	jal	20012626 <__call_exitprocs>
20012502:	fffff517          	auipc	a0,0xfffff
20012506:	ae652503          	lw	a0,-1306(a0) # 20010fe8 <_global_impure_ptr>
2001250a:	551c                	lw	a5,40(a0)
2001250c:	c391                	beqz	a5,20012510 <exit+0x24>
2001250e:	9782                	jalr	a5
20012510:	8522                	mv	a0,s0
20012512:	41f040ef          	jal	ra,20017130 <_exit>

20012516 <__libc_fini_array>:
__libc_fini_array():
20012516:	1141                	addi	sp,sp,-16
20012518:	c422                	sw	s0,8(sp)
2001251a:	c226                	sw	s1,4(sp)
2001251c:	ffffe417          	auipc	s0,0xffffe
20012520:	dbc40413          	addi	s0,s0,-580 # 200102d8 <__fini_array_end>
20012524:	ffffe497          	auipc	s1,0xffffe
20012528:	db448493          	addi	s1,s1,-588 # 200102d8 <__fini_array_end>
2001252c:	8c05                	sub	s0,s0,s1
2001252e:	c606                	sw	ra,12(sp)
20012530:	8409                	srai	s0,s0,0x2
20012532:	e411                	bnez	s0,2001253e <__libc_fini_array+0x28>
20012534:	40b2                	lw	ra,12(sp)
20012536:	4422                	lw	s0,8(sp)
20012538:	4492                	lw	s1,4(sp)
2001253a:	0141                	addi	sp,sp,16
2001253c:	8082                	ret
2001253e:	147d                	addi	s0,s0,-1
20012540:	00241793          	slli	a5,s0,0x2
20012544:	97a6                	add	a5,a5,s1
20012546:	439c                	lw	a5,0(a5)
20012548:	9782                	jalr	a5
2001254a:	b7e5                	j	20012532 <__libc_fini_array+0x1c>

2001254c <__libc_init_array>:
__libc_init_array():
2001254c:	1141                	addi	sp,sp,-16
2001254e:	c422                	sw	s0,8(sp)
20012550:	c226                	sw	s1,4(sp)
20012552:	ffffe417          	auipc	s0,0xffffe
20012556:	d7640413          	addi	s0,s0,-650 # 200102c8 <_metal_tty_init_ptr>
2001255a:	ffffe497          	auipc	s1,0xffffe
2001255e:	d6e48493          	addi	s1,s1,-658 # 200102c8 <_metal_tty_init_ptr>
20012562:	8c81                	sub	s1,s1,s0
20012564:	c04a                	sw	s2,0(sp)
20012566:	c606                	sw	ra,12(sp)
20012568:	8489                	srai	s1,s1,0x2
2001256a:	4901                	li	s2,0
2001256c:	02991563          	bne	s2,s1,20012596 <__libc_init_array+0x4a>
20012570:	ffffe417          	auipc	s0,0xffffe
20012574:	d5840413          	addi	s0,s0,-680 # 200102c8 <_metal_tty_init_ptr>
20012578:	ffffe497          	auipc	s1,0xffffe
2001257c:	d5048493          	addi	s1,s1,-688 # 200102c8 <_metal_tty_init_ptr>
20012580:	8c81                	sub	s1,s1,s0
20012582:	8489                	srai	s1,s1,0x2
20012584:	4901                	li	s2,0
20012586:	00991d63          	bne	s2,s1,200125a0 <__libc_init_array+0x54>
2001258a:	40b2                	lw	ra,12(sp)
2001258c:	4422                	lw	s0,8(sp)
2001258e:	4492                	lw	s1,4(sp)
20012590:	4902                	lw	s2,0(sp)
20012592:	0141                	addi	sp,sp,16
20012594:	8082                	ret
20012596:	401c                	lw	a5,0(s0)
20012598:	0905                	addi	s2,s2,1
2001259a:	0411                	addi	s0,s0,4
2001259c:	9782                	jalr	a5
2001259e:	b7f9                	j	2001256c <__libc_init_array+0x20>
200125a0:	401c                	lw	a5,0(s0)
200125a2:	0905                	addi	s2,s2,1
200125a4:	0411                	addi	s0,s0,4
200125a6:	9782                	jalr	a5
200125a8:	bff9                	j	20012586 <__libc_init_array+0x3a>

200125aa <__register_exitproc>:
__register_exitproc():
200125aa:	88aa                	mv	a7,a0
200125ac:	5ffee517          	auipc	a0,0x5ffee
200125b0:	52850513          	addi	a0,a0,1320 # 80000ad4 <_global_atexit>
200125b4:	411c                	lw	a5,0(a0)
200125b6:	ef91                	bnez	a5,200125d2 <__register_exitproc+0x28>
200125b8:	5ffee717          	auipc	a4,0x5ffee
200125bc:	52870713          	addi	a4,a4,1320 # 80000ae0 <_global_atexit0>
200125c0:	c118                	sw	a4,0(a0)
200125c2:	00000513          	li	a0,0
200125c6:	87ba                	mv	a5,a4
200125c8:	c509                	beqz	a0,200125d2 <__register_exitproc+0x28>
200125ca:	411c                	lw	a5,0(a0)
200125cc:	08f72423          	sw	a5,136(a4)
200125d0:	87ba                	mv	a5,a4
200125d2:	43d8                	lw	a4,4(a5)
200125d4:	487d                	li	a6,31
200125d6:	557d                	li	a0,-1
200125d8:	04e84663          	blt	a6,a4,20012624 <__register_exitproc+0x7a>
200125dc:	02088d63          	beqz	a7,20012616 <__register_exitproc+0x6c>
200125e0:	0887a803          	lw	a6,136(a5)
200125e4:	04080063          	beqz	a6,20012624 <__register_exitproc+0x7a>
200125e8:	00271513          	slli	a0,a4,0x2
200125ec:	9542                	add	a0,a0,a6
200125ee:	c110                	sw	a2,0(a0)
200125f0:	10082303          	lw	t1,256(a6)
200125f4:	4605                	li	a2,1
200125f6:	00e61633          	sll	a2,a2,a4
200125fa:	00c36333          	or	t1,t1,a2
200125fe:	10682023          	sw	t1,256(a6)
20012602:	08d52023          	sw	a3,128(a0)
20012606:	4689                	li	a3,2
20012608:	00d89763          	bne	a7,a3,20012616 <__register_exitproc+0x6c>
2001260c:	10482683          	lw	a3,260(a6)
20012610:	8e55                	or	a2,a2,a3
20012612:	10c82223          	sw	a2,260(a6)
20012616:	00170693          	addi	a3,a4,1
2001261a:	070a                	slli	a4,a4,0x2
2001261c:	c3d4                	sw	a3,4(a5)
2001261e:	97ba                	add	a5,a5,a4
20012620:	c78c                	sw	a1,8(a5)
20012622:	4501                	li	a0,0
20012624:	8082                	ret

20012626 <__call_exitprocs>:
__call_exitprocs():
20012626:	7179                	addi	sp,sp,-48
20012628:	ca56                	sw	s5,20(sp)
2001262a:	c85a                	sw	s6,16(sp)
2001262c:	c65e                	sw	s7,12(sp)
2001262e:	c462                	sw	s8,8(sp)
20012630:	d606                	sw	ra,44(sp)
20012632:	d422                	sw	s0,40(sp)
20012634:	d226                	sw	s1,36(sp)
20012636:	d04a                	sw	s2,32(sp)
20012638:	ce4e                	sw	s3,28(sp)
2001263a:	cc52                	sw	s4,24(sp)
2001263c:	c266                	sw	s9,4(sp)
2001263e:	8b2a                	mv	s6,a0
20012640:	8aae                	mv	s5,a1
20012642:	5ffeeb97          	auipc	s7,0x5ffee
20012646:	492b8b93          	addi	s7,s7,1170 # 80000ad4 <_global_atexit>
2001264a:	4c05                	li	s8,1
2001264c:	000ba483          	lw	s1,0(s7)
20012650:	cc81                	beqz	s1,20012668 <__call_exitprocs+0x42>
20012652:	40c0                	lw	s0,4(s1)
20012654:	0884a983          	lw	s3,136(s1)
20012658:	fff40913          	addi	s2,s0,-1
2001265c:	040a                	slli	s0,s0,0x2
2001265e:	00898a33          	add	s4,s3,s0
20012662:	9426                	add	s0,s0,s1
20012664:	00095f63          	bgez	s2,20012682 <__call_exitprocs+0x5c>
20012668:	50b2                	lw	ra,44(sp)
2001266a:	5422                	lw	s0,40(sp)
2001266c:	5492                	lw	s1,36(sp)
2001266e:	5902                	lw	s2,32(sp)
20012670:	49f2                	lw	s3,28(sp)
20012672:	4a62                	lw	s4,24(sp)
20012674:	4ad2                	lw	s5,20(sp)
20012676:	4b42                	lw	s6,16(sp)
20012678:	4bb2                	lw	s7,12(sp)
2001267a:	4c22                	lw	s8,8(sp)
2001267c:	4c92                	lw	s9,4(sp)
2001267e:	6145                	addi	sp,sp,48
20012680:	8082                	ret
20012682:	000a8c63          	beqz	s5,2001269a <__call_exitprocs+0x74>
20012686:	00099663          	bnez	s3,20012692 <__call_exitprocs+0x6c>
2001268a:	197d                	addi	s2,s2,-1
2001268c:	1a71                	addi	s4,s4,-4
2001268e:	1471                	addi	s0,s0,-4
20012690:	bfd1                	j	20012664 <__call_exitprocs+0x3e>
20012692:	07ca2783          	lw	a5,124(s4)
20012696:	ff579ae3          	bne	a5,s5,2001268a <__call_exitprocs+0x64>
2001269a:	40d8                	lw	a4,4(s1)
2001269c:	405c                	lw	a5,4(s0)
2001269e:	177d                	addi	a4,a4,-1
200126a0:	03271863          	bne	a4,s2,200126d0 <__call_exitprocs+0xaa>
200126a4:	0124a223          	sw	s2,4(s1)
200126a8:	d3ed                	beqz	a5,2001268a <__call_exitprocs+0x64>
200126aa:	0044ac83          	lw	s9,4(s1)
200126ae:	00098863          	beqz	s3,200126be <__call_exitprocs+0x98>
200126b2:	1009a683          	lw	a3,256(s3)
200126b6:	012c1733          	sll	a4,s8,s2
200126ba:	8ef9                	and	a3,a3,a4
200126bc:	ee89                	bnez	a3,200126d6 <__call_exitprocs+0xb0>
200126be:	9782                	jalr	a5
200126c0:	40d8                	lw	a4,4(s1)
200126c2:	000ba783          	lw	a5,0(s7)
200126c6:	f99713e3          	bne	a4,s9,2001264c <__call_exitprocs+0x26>
200126ca:	fcf480e3          	beq	s1,a5,2001268a <__call_exitprocs+0x64>
200126ce:	bfbd                	j	2001264c <__call_exitprocs+0x26>
200126d0:	00042223          	sw	zero,4(s0)
200126d4:	bfd1                	j	200126a8 <__call_exitprocs+0x82>
200126d6:	1049a683          	lw	a3,260(s3)
200126da:	ffca2583          	lw	a1,-4(s4)
200126de:	8f75                	and	a4,a4,a3
200126e0:	e701                	bnez	a4,200126e8 <__call_exitprocs+0xc2>
200126e2:	855a                	mv	a0,s6
200126e4:	9782                	jalr	a5
200126e6:	bfe9                	j	200126c0 <__call_exitprocs+0x9a>
200126e8:	852e                	mv	a0,a1
200126ea:	9782                	jalr	a5
200126ec:	bfd1                	j	200126c0 <__call_exitprocs+0x9a>

200126ee <metal_init>:
metal_init():
/home/jw/Desktop/sifive-standalone-project/freedom-metal/src/init.c:21
extern metal_constructor_t metal_constructors_start;
extern metal_constructor_t metal_constructors_end;
extern metal_destructor_t metal_destructors_start;
extern metal_destructor_t metal_destructors_end;

void metal_init(void) {
200126ee:	1101                	addi	sp,sp,-32
200126f0:	ce06                	sw	ra,28(sp)
200126f2:	cc22                	sw	s0,24(sp)
200126f4:	1000                	addi	s0,sp,32
/home/jw/Desktop/sifive-standalone-project/freedom-metal/src/init.c:24
    /* Make sure the constructors only run once */
    static int init_done = 0;
    if (init_done) {
200126f6:	800017b7          	lui	a5,0x80001
200126fa:	ad87a783          	lw	a5,-1320(a5) # 80000ad8 <metal_segment_heap_target_end+0xfffff368>
200126fe:	efa9                	bnez	a5,20012758 <metal_init+0x6a>
/home/jw/Desktop/sifive-standalone-project/freedom-metal/src/init.c:27
        return;
    }
    init_done = 1;
20012700:	800017b7          	lui	a5,0x80001
20012704:	4705                	li	a4,1
20012706:	ace7ac23          	sw	a4,-1320(a5) # 80000ad8 <metal_segment_heap_target_end+0xfffff368>
/home/jw/Desktop/sifive-standalone-project/freedom-metal/src/init.c:42
#ifdef METAL_SIFIVE_L2PF1
    /* Do L2 Stride Prefetcher initialization. */
    sifive_l2pf1_init();
#endif /* METAL_SIFIVE_L2PF1 */

    if (&metal_constructors_end <= &metal_constructors_start) {
2001270a:	200107b7          	lui	a5,0x20010
2001270e:	2d478713          	addi	a4,a5,724 # 200102d4 <metal_tty_init>
20012712:	200107b7          	lui	a5,0x20010
20012716:	2c878793          	addi	a5,a5,712 # 200102c8 <_metal_tty_init_ptr>
2001271a:	04e7f163          	bgeu	a5,a4,2001275c <metal_init+0x6e>
/home/jw/Desktop/sifive-standalone-project/freedom-metal/src/init.c:46
        return;
    }

    metal_constructor_t *funcptr = &metal_constructors_start;
2001271e:	200107b7          	lui	a5,0x20010
20012722:	2c878793          	addi	a5,a5,712 # 200102c8 <_metal_tty_init_ptr>
20012726:	fef42623          	sw	a5,-20(s0)
/home/jw/Desktop/sifive-standalone-project/freedom-metal/src/init.c:47
    while (funcptr != &metal_constructors_end) {
2001272a:	a831                	j	20012746 <metal_init+0x58>
/home/jw/Desktop/sifive-standalone-project/freedom-metal/src/init.c:48
        metal_constructor_t func = *funcptr;
2001272c:	fec42783          	lw	a5,-20(s0)
20012730:	439c                	lw	a5,0(a5)
20012732:	fef42423          	sw	a5,-24(s0)
/home/jw/Desktop/sifive-standalone-project/freedom-metal/src/init.c:50

        func();
20012736:	fe842783          	lw	a5,-24(s0)
2001273a:	9782                	jalr	a5
/home/jw/Desktop/sifive-standalone-project/freedom-metal/src/init.c:52

        funcptr += 1;
2001273c:	fec42783          	lw	a5,-20(s0)
20012740:	0791                	addi	a5,a5,4
20012742:	fef42623          	sw	a5,-20(s0)
/home/jw/Desktop/sifive-standalone-project/freedom-metal/src/init.c:47
    while (funcptr != &metal_constructors_end) {
20012746:	fec42703          	lw	a4,-20(s0)
2001274a:	200107b7          	lui	a5,0x20010
2001274e:	2d478793          	addi	a5,a5,724 # 200102d4 <metal_tty_init>
20012752:	fcf71de3          	bne	a4,a5,2001272c <metal_init+0x3e>
20012756:	a021                	j	2001275e <metal_init+0x70>
/home/jw/Desktop/sifive-standalone-project/freedom-metal/src/init.c:25
        return;
20012758:	0001                	nop
2001275a:	a011                	j	2001275e <metal_init+0x70>
/home/jw/Desktop/sifive-standalone-project/freedom-metal/src/init.c:43
        return;
2001275c:	0001                	nop
/home/jw/Desktop/sifive-standalone-project/freedom-metal/src/init.c:54
    }
}
2001275e:	40f2                	lw	ra,28(sp)
20012760:	4462                	lw	s0,24(sp)
20012762:	6105                	addi	sp,sp,32
20012764:	8082                	ret

20012766 <metal_fini>:
metal_fini():
/home/jw/Desktop/sifive-standalone-project/freedom-metal/src/init.c:56

void metal_fini(void) {
20012766:	1101                	addi	sp,sp,-32
20012768:	ce06                	sw	ra,28(sp)
2001276a:	cc22                	sw	s0,24(sp)
2001276c:	1000                	addi	s0,sp,32
/home/jw/Desktop/sifive-standalone-project/freedom-metal/src/init.c:59
    /* Make sure the destructors only run once */
    static int fini_done = 0;
    if (fini_done) {
2001276e:	800017b7          	lui	a5,0x80001
20012772:	adc7a783          	lw	a5,-1316(a5) # 80000adc <metal_segment_heap_target_end+0xfffff36c>
20012776:	efa9                	bnez	a5,200127d0 <metal_fini+0x6a>
/home/jw/Desktop/sifive-standalone-project/freedom-metal/src/init.c:62
        return;
    }
    fini_done = 1;
20012778:	800017b7          	lui	a5,0x80001
2001277c:	4705                	li	a4,1
2001277e:	ace7ae23          	sw	a4,-1316(a5) # 80000adc <metal_segment_heap_target_end+0xfffff36c>
/home/jw/Desktop/sifive-standalone-project/freedom-metal/src/init.c:64

    if (&metal_destructors_end <= &metal_destructors_start) {
20012782:	200107b7          	lui	a5,0x20010
20012786:	2d878713          	addi	a4,a5,728 # 200102d8 <__fini_array_end>
2001278a:	200107b7          	lui	a5,0x20010
2001278e:	2d878793          	addi	a5,a5,728 # 200102d8 <__fini_array_end>
20012792:	04e7f163          	bgeu	a5,a4,200127d4 <metal_fini+0x6e>
/home/jw/Desktop/sifive-standalone-project/freedom-metal/src/init.c:68
        return;
    }

    metal_destructor_t *funcptr = &metal_destructors_start;
20012796:	200107b7          	lui	a5,0x20010
2001279a:	2d878793          	addi	a5,a5,728 # 200102d8 <__fini_array_end>
2001279e:	fef42623          	sw	a5,-20(s0)
/home/jw/Desktop/sifive-standalone-project/freedom-metal/src/init.c:69
    while (funcptr != &metal_destructors_end) {
200127a2:	a831                	j	200127be <metal_fini+0x58>
/home/jw/Desktop/sifive-standalone-project/freedom-metal/src/init.c:70
        metal_destructor_t func = *funcptr;
200127a4:	fec42783          	lw	a5,-20(s0)
200127a8:	439c                	lw	a5,0(a5)
200127aa:	fef42423          	sw	a5,-24(s0)
/home/jw/Desktop/sifive-standalone-project/freedom-metal/src/init.c:72

        func();
200127ae:	fe842783          	lw	a5,-24(s0)
200127b2:	9782                	jalr	a5
/home/jw/Desktop/sifive-standalone-project/freedom-metal/src/init.c:74

        funcptr += 1;
200127b4:	fec42783          	lw	a5,-20(s0)
200127b8:	0791                	addi	a5,a5,4
200127ba:	fef42623          	sw	a5,-20(s0)
/home/jw/Desktop/sifive-standalone-project/freedom-metal/src/init.c:69
    while (funcptr != &metal_destructors_end) {
200127be:	fec42703          	lw	a4,-20(s0)
200127c2:	200107b7          	lui	a5,0x20010
200127c6:	2d878793          	addi	a5,a5,728 # 200102d8 <__fini_array_end>
200127ca:	fcf71de3          	bne	a4,a5,200127a4 <metal_fini+0x3e>
200127ce:	a021                	j	200127d6 <metal_fini+0x70>
/home/jw/Desktop/sifive-standalone-project/freedom-metal/src/init.c:60
        return;
200127d0:	0001                	nop
200127d2:	a011                	j	200127d6 <metal_fini+0x70>
/home/jw/Desktop/sifive-standalone-project/freedom-metal/src/init.c:65
        return;
200127d4:	0001                	nop
/home/jw/Desktop/sifive-standalone-project/freedom-metal/src/init.c:76
    }
}
200127d6:	40f2                	lw	ra,28(sp)
200127d8:	4462                	lw	s0,24(sp)
200127da:	6105                	addi	sp,sp,32
200127dc:	8082                	ret

200127de <metal_init_run>:
metal_init_run():
/home/jw/Desktop/sifive-standalone-project/freedom-metal/src/init.c:86
 * in the case that users don't want the metal constructors or
 * destructors to run.
 */

void metal_init_run(void) __attribute__((weak));
void metal_init_run(void) { metal_init(); }
200127de:	1141                	addi	sp,sp,-16
200127e0:	c606                	sw	ra,12(sp)
200127e2:	c422                	sw	s0,8(sp)
200127e4:	0800                	addi	s0,sp,16
200127e6:	3721                	jal	200126ee <metal_init>
200127e8:	0001                	nop
200127ea:	40b2                	lw	ra,12(sp)
200127ec:	4422                	lw	s0,8(sp)
200127ee:	0141                	addi	sp,sp,16
200127f0:	8082                	ret

200127f2 <metal_fini_run>:
metal_fini_run():
/home/jw/Desktop/sifive-standalone-project/freedom-metal/src/init.c:89

void metal_fini_run(void) __attribute__((weak));
void metal_fini_run(void) { metal_fini(); }
200127f2:	1141                	addi	sp,sp,-16
200127f4:	c606                	sw	ra,12(sp)
200127f6:	c422                	sw	s0,8(sp)
200127f8:	0800                	addi	s0,sp,16
200127fa:	37b5                	jal	20012766 <metal_fini>
200127fc:	0001                	nop
200127fe:	40b2                	lw	ra,12(sp)
20012800:	4422                	lw	s0,8(sp)
20012802:	0141                	addi	sp,sp,16
20012804:	8082                	ret

20012806 <metal_tty_putc>:
metal_tty_putc():
/home/jw/Desktop/sifive-standalone-project/freedom-metal/src/tty.c:12
int metal_tty_putc(int c) {
20012806:	1101                	addi	sp,sp,-32
20012808:	ce06                	sw	ra,28(sp)
2001280a:	cc22                	sw	s0,24(sp)
2001280c:	1000                	addi	s0,sp,32
2001280e:	fea42623          	sw	a0,-20(s0)
/home/jw/Desktop/sifive-standalone-project/freedom-metal/src/tty.c:13
    return metal_uart_putc(__METAL_DT_STDOUT_UART_HANDLE, c);
20012812:	fec42583          	lw	a1,-20(s0)
20012816:	800017b7          	lui	a5,0x80001
2001281a:	a3878513          	addi	a0,a5,-1480 # 80000a38 <metal_segment_heap_target_end+0xfffff2c8>
2001281e:	282d                	jal	20012858 <metal_uart_putc>
20012820:	87aa                	mv	a5,a0
/home/jw/Desktop/sifive-standalone-project/freedom-metal/src/tty.c:14
}
20012822:	853e                	mv	a0,a5
20012824:	40f2                	lw	ra,28(sp)
20012826:	4462                	lw	s0,24(sp)
20012828:	6105                	addi	sp,sp,32
2001282a:	8082                	ret

2001282c <metal_uart_init>:
metal_uart_init():
/home/jw/Desktop/sifive-standalone-project/freedom-metal/metal/uart.h:59
 more than once.
 *
 * @param uart The UART device handle
 * @param baud_rate the baud rate to set the UART to
 */
__inline__ void metal_uart_init(struct metal_uart *uart, int baud_rate) {
2001282c:	1101                	addi	sp,sp,-32
2001282e:	ce06                	sw	ra,28(sp)
20012830:	cc22                	sw	s0,24(sp)
20012832:	1000                	addi	s0,sp,32
20012834:	fea42623          	sw	a0,-20(s0)
20012838:	feb42423          	sw	a1,-24(s0)
/home/jw/Desktop/sifive-standalone-project/freedom-metal/metal/uart.h:60
    uart->vtable->init(uart, baud_rate);
2001283c:	fec42783          	lw	a5,-20(s0)
20012840:	439c                	lw	a5,0(a5)
20012842:	439c                	lw	a5,0(a5)
20012844:	fe842583          	lw	a1,-24(s0)
20012848:	fec42503          	lw	a0,-20(s0)
2001284c:	9782                	jalr	a5
/home/jw/Desktop/sifive-standalone-project/freedom-metal/metal/uart.h:61
}
2001284e:	0001                	nop
20012850:	40f2                	lw	ra,28(sp)
20012852:	4462                	lw	s0,24(sp)
20012854:	6105                	addi	sp,sp,32
20012856:	8082                	ret

20012858 <metal_uart_putc>:
metal_uart_putc():
/home/jw/Desktop/sifive-standalone-project/freedom-metal/metal/uart.h:69
 * @brief Output a character over the UART
 * @param uart The UART device handle
 * @param c The character to send over the UART
 * @return 0 upon success
 */
__inline__ int metal_uart_putc(struct metal_uart *uart, int c) {
20012858:	1101                	addi	sp,sp,-32
2001285a:	ce06                	sw	ra,28(sp)
2001285c:	cc22                	sw	s0,24(sp)
2001285e:	1000                	addi	s0,sp,32
20012860:	fea42623          	sw	a0,-20(s0)
20012864:	feb42423          	sw	a1,-24(s0)
/home/jw/Desktop/sifive-standalone-project/freedom-metal/metal/uart.h:70
    return uart->vtable->putc(uart, c);
20012868:	fec42783          	lw	a5,-20(s0)
2001286c:	439c                	lw	a5,0(a5)
2001286e:	43dc                	lw	a5,4(a5)
20012870:	fe842583          	lw	a1,-24(s0)
20012874:	fec42503          	lw	a0,-20(s0)
20012878:	9782                	jalr	a5
2001287a:	87aa                	mv	a5,a0
/home/jw/Desktop/sifive-standalone-project/freedom-metal/metal/uart.h:71
}
2001287c:	853e                	mv	a0,a5
2001287e:	40f2                	lw	ra,28(sp)
20012880:	4462                	lw	s0,24(sp)
20012882:	6105                	addi	sp,sp,32
20012884:	8082                	ret

20012886 <metal_uart_set_baud_rate>:
metal_uart_set_baud_rate():
/home/jw/Desktop/sifive-standalone-project/freedom-metal/metal/uart.h:111
 * @param uart The UART device handle
 * @param baud_rate The baud rate to configure
 * @return the new baud rate of the UART
 */
__inline__ int metal_uart_set_baud_rate(struct metal_uart *uart,
                                        int baud_rate) {
20012886:	1101                	addi	sp,sp,-32
20012888:	ce06                	sw	ra,28(sp)
2001288a:	cc22                	sw	s0,24(sp)
2001288c:	1000                	addi	s0,sp,32
2001288e:	fea42623          	sw	a0,-20(s0)
20012892:	feb42423          	sw	a1,-24(s0)
/home/jw/Desktop/sifive-standalone-project/freedom-metal/metal/uart.h:112
    return uart->vtable->set_baud_rate(uart, baud_rate);
20012896:	fec42783          	lw	a5,-20(s0)
2001289a:	439c                	lw	a5,0(a5)
2001289c:	4bdc                	lw	a5,20(a5)
2001289e:	fe842583          	lw	a1,-24(s0)
200128a2:	fec42503          	lw	a0,-20(s0)
200128a6:	9782                	jalr	a5
200128a8:	87aa                	mv	a5,a0
/home/jw/Desktop/sifive-standalone-project/freedom-metal/metal/uart.h:113
}
200128aa:	853e                	mv	a0,a5
200128ac:	40f2                	lw	ra,28(sp)
200128ae:	4462                	lw	s0,24(sp)
200128b0:	6105                	addi	sp,sp,32
200128b2:	8082                	ret

200128b4 <__metal_driver_sifive_clint0_control_base>:
__metal_driver_sifive_clint0_control_base():
/home/jw/Desktop/sifive-standalone-project/bsp/build/debug/./metal/machine.h:233
/* --------------------- fixed_factor_clock ------------ */


/* --------------------- sifive_clint0 ------------ */
static __inline__ unsigned long __metal_driver_sifive_clint0_control_base(struct metal_interrupt *controller)
{
200128b4:	1101                	addi	sp,sp,-32
200128b6:	ce22                	sw	s0,28(sp)
200128b8:	1000                	addi	s0,sp,32
200128ba:	fea42623          	sw	a0,-20(s0)
/home/jw/Desktop/sifive-standalone-project/bsp/build/debug/./metal/machine.h:234
	if ((uintptr_t)controller == (uintptr_t)&__metal_dt_clint_2000000) {
200128be:	fec42703          	lw	a4,-20(s0)
200128c2:	800017b7          	lui	a5,0x80001
200128c6:	aac78793          	addi	a5,a5,-1364 # 80000aac <metal_segment_heap_target_end+0xfffff33c>
200128ca:	00f71563          	bne	a4,a5,200128d4 <__metal_driver_sifive_clint0_control_base+0x20>
/home/jw/Desktop/sifive-standalone-project/bsp/build/debug/./metal/machine.h:235
		return METAL_RISCV_CLINT0_2000000_BASE_ADDRESS;
200128ce:	020007b7          	lui	a5,0x2000
200128d2:	a011                	j	200128d6 <__metal_driver_sifive_clint0_control_base+0x22>
/home/jw/Desktop/sifive-standalone-project/bsp/build/debug/./metal/machine.h:238
	}
	else {
		return 0;
200128d4:	4781                	li	a5,0
/home/jw/Desktop/sifive-standalone-project/bsp/build/debug/./metal/machine.h:240
	}
}
200128d6:	853e                	mv	a0,a5
200128d8:	4472                	lw	s0,28(sp)
200128da:	6105                	addi	sp,sp,32
200128dc:	8082                	ret

200128de <__metal_driver_sifive_clint0_num_interrupts>:
__metal_driver_sifive_clint0_num_interrupts():
/home/jw/Desktop/sifive-standalone-project/bsp/build/debug/./metal/machine.h:253
		return 0;
	}
}

static __inline__ int __metal_driver_sifive_clint0_num_interrupts(struct metal_interrupt *controller)
{
200128de:	1101                	addi	sp,sp,-32
200128e0:	ce22                	sw	s0,28(sp)
200128e2:	1000                	addi	s0,sp,32
200128e4:	fea42623          	sw	a0,-20(s0)
/home/jw/Desktop/sifive-standalone-project/bsp/build/debug/./metal/machine.h:254
	if ((uintptr_t)controller == (uintptr_t)&__metal_dt_clint_2000000) {
200128e8:	fec42703          	lw	a4,-20(s0)
200128ec:	800017b7          	lui	a5,0x80001
200128f0:	aac78793          	addi	a5,a5,-1364 # 80000aac <metal_segment_heap_target_end+0xfffff33c>
200128f4:	00f71463          	bne	a4,a5,200128fc <__metal_driver_sifive_clint0_num_interrupts+0x1e>
/home/jw/Desktop/sifive-standalone-project/bsp/build/debug/./metal/machine.h:255
		return METAL_MAX_CLINT_INTERRUPTS;
200128f8:	4789                	li	a5,2
200128fa:	a011                	j	200128fe <__metal_driver_sifive_clint0_num_interrupts+0x20>
/home/jw/Desktop/sifive-standalone-project/bsp/build/debug/./metal/machine.h:258
	}
	else {
		return 0;
200128fc:	4781                	li	a5,0
/home/jw/Desktop/sifive-standalone-project/bsp/build/debug/./metal/machine.h:260
	}
}
200128fe:	853e                	mv	a0,a5
20012900:	4472                	lw	s0,28(sp)
20012902:	6105                	addi	sp,sp,32
20012904:	8082                	ret

20012906 <__metal_driver_sifive_clint0_interrupt_parents>:
__metal_driver_sifive_clint0_interrupt_parents():
/home/jw/Desktop/sifive-standalone-project/bsp/build/debug/./metal/machine.h:263

static __inline__ struct metal_interrupt * __metal_driver_sifive_clint0_interrupt_parents(struct metal_interrupt *controller, int idx)
{
20012906:	1101                	addi	sp,sp,-32
20012908:	ce22                	sw	s0,28(sp)
2001290a:	1000                	addi	s0,sp,32
2001290c:	fea42623          	sw	a0,-20(s0)
20012910:	feb42423          	sw	a1,-24(s0)
/home/jw/Desktop/sifive-standalone-project/bsp/build/debug/./metal/machine.h:264
	if (idx == 0) {
20012914:	fe842783          	lw	a5,-24(s0)
20012918:	e791                	bnez	a5,20012924 <__metal_driver_sifive_clint0_interrupt_parents+0x1e>
/home/jw/Desktop/sifive-standalone-project/bsp/build/debug/./metal/machine.h:265
		return (struct metal_interrupt *)&__metal_dt_cpu_0_interrupt_controller.controller;
2001291a:	800007b7          	lui	a5,0x80000
2001291e:	09078793          	addi	a5,a5,144 # 80000090 <metal_segment_heap_target_end+0xffffe920>
20012922:	a821                	j	2001293a <__metal_driver_sifive_clint0_interrupt_parents+0x34>
/home/jw/Desktop/sifive-standalone-project/bsp/build/debug/./metal/machine.h:267
	}
	else if (idx == 1) {
20012924:	fe842703          	lw	a4,-24(s0)
20012928:	4785                	li	a5,1
2001292a:	00f71763          	bne	a4,a5,20012938 <__metal_driver_sifive_clint0_interrupt_parents+0x32>
/home/jw/Desktop/sifive-standalone-project/bsp/build/debug/./metal/machine.h:268
		return (struct metal_interrupt *)&__metal_dt_cpu_0_interrupt_controller.controller;
2001292e:	800007b7          	lui	a5,0x80000
20012932:	09078793          	addi	a5,a5,144 # 80000090 <metal_segment_heap_target_end+0xffffe920>
20012936:	a011                	j	2001293a <__metal_driver_sifive_clint0_interrupt_parents+0x34>
/home/jw/Desktop/sifive-standalone-project/bsp/build/debug/./metal/machine.h:271
	}
	else {
		return NULL;
20012938:	4781                	li	a5,0
/home/jw/Desktop/sifive-standalone-project/bsp/build/debug/./metal/machine.h:273
	}
}
2001293a:	853e                	mv	a0,a5
2001293c:	4472                	lw	s0,28(sp)
2001293e:	6105                	addi	sp,sp,32
20012940:	8082                	ret

20012942 <__metal_driver_sifive_clint0_interrupt_lines>:
__metal_driver_sifive_clint0_interrupt_lines():
/home/jw/Desktop/sifive-standalone-project/bsp/build/debug/./metal/machine.h:276

static __inline__ int __metal_driver_sifive_clint0_interrupt_lines(struct metal_interrupt *controller, int idx)
{
20012942:	1101                	addi	sp,sp,-32
20012944:	ce22                	sw	s0,28(sp)
20012946:	1000                	addi	s0,sp,32
20012948:	fea42623          	sw	a0,-20(s0)
2001294c:	feb42423          	sw	a1,-24(s0)
/home/jw/Desktop/sifive-standalone-project/bsp/build/debug/./metal/machine.h:277
	if (idx == 0) {
20012950:	fe842783          	lw	a5,-24(s0)
20012954:	e399                	bnez	a5,2001295a <__metal_driver_sifive_clint0_interrupt_lines+0x18>
/home/jw/Desktop/sifive-standalone-project/bsp/build/debug/./metal/machine.h:278
		return 3;
20012956:	478d                	li	a5,3
20012958:	a809                	j	2001296a <__metal_driver_sifive_clint0_interrupt_lines+0x28>
/home/jw/Desktop/sifive-standalone-project/bsp/build/debug/./metal/machine.h:280
	}
	else if (idx == 1) {
2001295a:	fe842703          	lw	a4,-24(s0)
2001295e:	4785                	li	a5,1
20012960:	00f71463          	bne	a4,a5,20012968 <__metal_driver_sifive_clint0_interrupt_lines+0x26>
/home/jw/Desktop/sifive-standalone-project/bsp/build/debug/./metal/machine.h:281
		return 7;
20012964:	479d                	li	a5,7
20012966:	a011                	j	2001296a <__metal_driver_sifive_clint0_interrupt_lines+0x28>
/home/jw/Desktop/sifive-standalone-project/bsp/build/debug/./metal/machine.h:284
	}
	else {
		return 0;
20012968:	4781                	li	a5,0
/home/jw/Desktop/sifive-standalone-project/bsp/build/debug/./metal/machine.h:286
	}
}
2001296a:	853e                	mv	a0,a5
2001296c:	4472                	lw	s0,28(sp)
2001296e:	6105                	addi	sp,sp,32
20012970:	8082                	ret

20012972 <__metal_clint0_mtime_get>:
__metal_clint0_mtime_get():
/home/jw/Desktop/sifive-standalone-project/freedom-metal/src/drivers/riscv_clint0.c:14
#include <metal/drivers/riscv_clint0.h>
#include <metal/io.h>
#include <metal/machine.h>

unsigned long long
__metal_clint0_mtime_get(struct __metal_driver_riscv_clint0 *clint) {
20012972:	715d                	addi	sp,sp,-80
20012974:	c686                	sw	ra,76(sp)
20012976:	c4a2                	sw	s0,72(sp)
20012978:	c2ca                	sw	s2,68(sp)
2001297a:	c0ce                	sw	s3,64(sp)
2001297c:	de52                	sw	s4,60(sp)
2001297e:	dc56                	sw	s5,56(sp)
20012980:	da5a                	sw	s6,52(sp)
20012982:	d85e                	sw	s7,48(sp)
20012984:	d662                	sw	s8,44(sp)
20012986:	d466                	sw	s9,40(sp)
20012988:	0880                	addi	s0,sp,80
2001298a:	faa42e23          	sw	a0,-68(s0)
/home/jw/Desktop/sifive-standalone-project/freedom-metal/src/drivers/riscv_clint0.c:17
    __metal_io_u32 lo, hi;
    unsigned long control_base =
        __metal_driver_sifive_clint0_control_base(&clint->controller);
2001298e:	fbc42783          	lw	a5,-68(s0)
20012992:	853e                	mv	a0,a5
20012994:	3705                	jal	200128b4 <__metal_driver_sifive_clint0_control_base>
20012996:	fca42623          	sw	a0,-52(s0)
/home/jw/Desktop/sifive-standalone-project/freedom-metal/src/drivers/riscv_clint0.c:21 (discriminator 1)

    /* Guard against rollover when reading */
    do {
        hi = __METAL_ACCESS_ONCE(
2001299a:	fcc42703          	lw	a4,-52(s0)
2001299e:	67b1                	lui	a5,0xc
200129a0:	17f1                	addi	a5,a5,-4
200129a2:	97ba                	add	a5,a5,a4
200129a4:	439c                	lw	a5,0(a5)
200129a6:	fcf42423          	sw	a5,-56(s0)
/home/jw/Desktop/sifive-standalone-project/freedom-metal/src/drivers/riscv_clint0.c:23 (discriminator 1)
            (__metal_io_u32 *)(control_base + METAL_RISCV_CLINT0_MTIME + 4));
        lo = __METAL_ACCESS_ONCE(
200129aa:	fcc42703          	lw	a4,-52(s0)
200129ae:	67b1                	lui	a5,0xc
200129b0:	17e1                	addi	a5,a5,-8
200129b2:	97ba                	add	a5,a5,a4
200129b4:	439c                	lw	a5,0(a5)
200129b6:	fcf42223          	sw	a5,-60(s0)
/home/jw/Desktop/sifive-standalone-project/freedom-metal/src/drivers/riscv_clint0.c:25 (discriminator 1)
            (__metal_io_u32 *)(control_base + METAL_RISCV_CLINT0_MTIME));
    } while (__METAL_ACCESS_ONCE((__metal_io_u32 *)(control_base +
200129ba:	fcc42703          	lw	a4,-52(s0)
200129be:	67b1                	lui	a5,0xc
200129c0:	17f1                	addi	a5,a5,-4
200129c2:	97ba                	add	a5,a5,a4
200129c4:	439c                	lw	a5,0(a5)
200129c6:	fc842703          	lw	a4,-56(s0)
200129ca:	fcf718e3          	bne	a4,a5,2001299a <__metal_clint0_mtime_get+0x28>
/home/jw/Desktop/sifive-standalone-project/freedom-metal/src/drivers/riscv_clint0.c:29
                                                    METAL_RISCV_CLINT0_MTIME +
                                                    4)) != hi);

    return (((unsigned long long)hi) << 32) | lo;
200129ce:	fc842783          	lw	a5,-56(s0)
200129d2:	8c3e                	mv	s8,a5
200129d4:	4c81                	li	s9,0
200129d6:	000c1993          	slli	s3,s8,0x0
200129da:	4901                	li	s2,0
200129dc:	fc442783          	lw	a5,-60(s0)
200129e0:	8a3e                	mv	s4,a5
200129e2:	4a81                	li	s5,0
200129e4:	01496b33          	or	s6,s2,s4
200129e8:	0159ebb3          	or	s7,s3,s5
200129ec:	875a                	mv	a4,s6
200129ee:	87de                	mv	a5,s7
/home/jw/Desktop/sifive-standalone-project/freedom-metal/src/drivers/riscv_clint0.c:30
}
200129f0:	853a                	mv	a0,a4
200129f2:	85be                	mv	a1,a5
200129f4:	40b6                	lw	ra,76(sp)
200129f6:	4426                	lw	s0,72(sp)
200129f8:	4916                	lw	s2,68(sp)
200129fa:	4986                	lw	s3,64(sp)
200129fc:	5a72                	lw	s4,60(sp)
200129fe:	5ae2                	lw	s5,56(sp)
20012a00:	5b52                	lw	s6,52(sp)
20012a02:	5bc2                	lw	s7,48(sp)
20012a04:	5c32                	lw	s8,44(sp)
20012a06:	5ca2                	lw	s9,40(sp)
20012a08:	6161                	addi	sp,sp,80
20012a0a:	8082                	ret

20012a0c <__metal_driver_riscv_clint0_mtimecmp_set>:
__metal_driver_riscv_clint0_mtimecmp_set():
/home/jw/Desktop/sifive-standalone-project/freedom-metal/src/drivers/riscv_clint0.c:34

int __metal_driver_riscv_clint0_mtimecmp_set(struct metal_interrupt *controller,
                                             int hartid,
                                             unsigned long long time) {
20012a0c:	7179                	addi	sp,sp,-48
20012a0e:	d606                	sw	ra,44(sp)
20012a10:	d422                	sw	s0,40(sp)
20012a12:	d24a                	sw	s2,36(sp)
20012a14:	d04e                	sw	s3,32(sp)
20012a16:	1800                	addi	s0,sp,48
20012a18:	fca42e23          	sw	a0,-36(s0)
20012a1c:	fcb42c23          	sw	a1,-40(s0)
20012a20:	fcc42823          	sw	a2,-48(s0)
20012a24:	fcd42a23          	sw	a3,-44(s0)
/home/jw/Desktop/sifive-standalone-project/freedom-metal/src/drivers/riscv_clint0.c:35
    struct __metal_driver_riscv_clint0 *clint =
20012a28:	fdc42783          	lw	a5,-36(s0)
20012a2c:	fef42623          	sw	a5,-20(s0)
/home/jw/Desktop/sifive-standalone-project/freedom-metal/src/drivers/riscv_clint0.c:38
        (struct __metal_driver_riscv_clint0 *)(controller);
    unsigned long control_base =
        __metal_driver_sifive_clint0_control_base(&clint->controller);
20012a30:	fec42783          	lw	a5,-20(s0)
20012a34:	853e                	mv	a0,a5
20012a36:	3dbd                	jal	200128b4 <__metal_driver_sifive_clint0_control_base>
20012a38:	fea42423          	sw	a0,-24(s0)
/home/jw/Desktop/sifive-standalone-project/freedom-metal/src/drivers/riscv_clint0.c:45
     * and are NOT internally latched for multiword transfers.
     * Need to be careful about sequencing to avoid triggering
     * spurious interrupts: For that set the high word to a max
     * value first.
     */
    __METAL_ACCESS_ONCE((__metal_io_u32 *)(control_base + (8 * hartid) +
20012a3c:	fd842783          	lw	a5,-40(s0)
20012a40:	078e                	slli	a5,a5,0x3
20012a42:	873e                	mv	a4,a5
20012a44:	fe842783          	lw	a5,-24(s0)
20012a48:	973e                	add	a4,a4,a5
20012a4a:	6791                	lui	a5,0x4
20012a4c:	0791                	addi	a5,a5,4
20012a4e:	97ba                	add	a5,a5,a4
20012a50:	873e                	mv	a4,a5
/home/jw/Desktop/sifive-standalone-project/freedom-metal/src/drivers/riscv_clint0.c:47
                                           METAL_RISCV_CLINT0_MTIMECMP_BASE +
                                           4)) = 0xFFFFFFFF;
20012a52:	57fd                	li	a5,-1
20012a54:	c31c                	sw	a5,0(a4)
/home/jw/Desktop/sifive-standalone-project/freedom-metal/src/drivers/riscv_clint0.c:48
    __METAL_ACCESS_ONCE((__metal_io_u32 *)(control_base + (8 * hartid) +
20012a56:	fd842783          	lw	a5,-40(s0)
20012a5a:	078e                	slli	a5,a5,0x3
20012a5c:	873e                	mv	a4,a5
20012a5e:	fe842783          	lw	a5,-24(s0)
20012a62:	973e                	add	a4,a4,a5
20012a64:	6791                	lui	a5,0x4
20012a66:	97ba                	add	a5,a5,a4
20012a68:	873e                	mv	a4,a5
/home/jw/Desktop/sifive-standalone-project/freedom-metal/src/drivers/riscv_clint0.c:50
                                           METAL_RISCV_CLINT0_MTIMECMP_BASE)) =
        (__metal_io_u32)time;
20012a6a:	fd042783          	lw	a5,-48(s0)
/home/jw/Desktop/sifive-standalone-project/freedom-metal/src/drivers/riscv_clint0.c:49
                                           METAL_RISCV_CLINT0_MTIMECMP_BASE)) =
20012a6e:	c31c                	sw	a5,0(a4)
/home/jw/Desktop/sifive-standalone-project/freedom-metal/src/drivers/riscv_clint0.c:53
    __METAL_ACCESS_ONCE((__metal_io_u32 *)(control_base + (8 * hartid) +
                                           METAL_RISCV_CLINT0_MTIMECMP_BASE +
                                           4)) = (__metal_io_u32)(time >> 32);
20012a70:	fd442783          	lw	a5,-44(s0)
20012a74:	0007d913          	srli	s2,a5,0x0
20012a78:	4981                	li	s3,0
/home/jw/Desktop/sifive-standalone-project/freedom-metal/src/drivers/riscv_clint0.c:51
    __METAL_ACCESS_ONCE((__metal_io_u32 *)(control_base + (8 * hartid) +
20012a7a:	fd842783          	lw	a5,-40(s0)
20012a7e:	078e                	slli	a5,a5,0x3
20012a80:	873e                	mv	a4,a5
20012a82:	fe842783          	lw	a5,-24(s0)
20012a86:	973e                	add	a4,a4,a5
20012a88:	6791                	lui	a5,0x4
20012a8a:	0791                	addi	a5,a5,4
20012a8c:	97ba                	add	a5,a5,a4
/home/jw/Desktop/sifive-standalone-project/freedom-metal/src/drivers/riscv_clint0.c:53
                                           4)) = (__metal_io_u32)(time >> 32);
20012a8e:	874a                	mv	a4,s2
20012a90:	c398                	sw	a4,0(a5)
/home/jw/Desktop/sifive-standalone-project/freedom-metal/src/drivers/riscv_clint0.c:54
    return 0;
20012a92:	4781                	li	a5,0
/home/jw/Desktop/sifive-standalone-project/freedom-metal/src/drivers/riscv_clint0.c:55
}
20012a94:	853e                	mv	a0,a5
20012a96:	50b2                	lw	ra,44(sp)
20012a98:	5422                	lw	s0,40(sp)
20012a9a:	5912                	lw	s2,36(sp)
20012a9c:	5982                	lw	s3,32(sp)
20012a9e:	6145                	addi	sp,sp,48
20012aa0:	8082                	ret

20012aa2 <_get_cpu_intc>:
_get_cpu_intc():
/home/jw/Desktop/sifive-standalone-project/freedom-metal/src/drivers/riscv_clint0.c:57

static struct metal_interrupt *_get_cpu_intc() {
20012aa2:	1101                	addi	sp,sp,-32
20012aa4:	ce06                	sw	ra,28(sp)
20012aa6:	cc22                	sw	s0,24(sp)
20012aa8:	1000                	addi	s0,sp,32
/home/jw/Desktop/sifive-standalone-project/freedom-metal/src/drivers/riscv_clint0.c:58
    int hartid = 0;
20012aaa:	fe042623          	sw	zero,-20(s0)
/home/jw/Desktop/sifive-standalone-project/freedom-metal/src/drivers/riscv_clint0.c:59
    __asm__ volatile("csrr %[hartid], mhartid"
20012aae:	f14027f3          	csrr	a5,mhartid
20012ab2:	fef42623          	sw	a5,-20(s0)
/home/jw/Desktop/sifive-standalone-project/freedom-metal/src/drivers/riscv_clint0.c:62
                     : [hartid] "=r"(hartid)::"memory");

    struct metal_cpu *cpu = metal_cpu_get(hartid);
20012ab6:	fec42783          	lw	a5,-20(s0)
20012aba:	853e                	mv	a0,a5
20012abc:	470040ef          	jal	ra,20016f2c <metal_cpu_get>
20012ac0:	fea42423          	sw	a0,-24(s0)
/home/jw/Desktop/sifive-standalone-project/freedom-metal/src/drivers/riscv_clint0.c:64

    return metal_cpu_interrupt_controller(cpu);
20012ac4:	fe842503          	lw	a0,-24(s0)
20012ac8:	43e040ef          	jal	ra,20016f06 <metal_cpu_interrupt_controller>
20012acc:	87aa                	mv	a5,a0
/home/jw/Desktop/sifive-standalone-project/freedom-metal/src/drivers/riscv_clint0.c:65
}
20012ace:	853e                	mv	a0,a5
20012ad0:	40f2                	lw	ra,28(sp)
20012ad2:	4462                	lw	s0,24(sp)
20012ad4:	6105                	addi	sp,sp,32
20012ad6:	8082                	ret

20012ad8 <__metal_driver_riscv_clint0_init>:
__metal_driver_riscv_clint0_init():
/home/jw/Desktop/sifive-standalone-project/freedom-metal/src/drivers/riscv_clint0.c:67

void __metal_driver_riscv_clint0_init(struct metal_interrupt *controller) {
20012ad8:	7139                	addi	sp,sp,-64
20012ada:	de06                	sw	ra,60(sp)
20012adc:	dc22                	sw	s0,56(sp)
20012ade:	0080                	addi	s0,sp,64
20012ae0:	fca42623          	sw	a0,-52(s0)
/home/jw/Desktop/sifive-standalone-project/freedom-metal/src/drivers/riscv_clint0.c:69
    int num_interrupts =
        __metal_driver_sifive_clint0_num_interrupts(controller);
20012ae4:	fcc42503          	lw	a0,-52(s0)
20012ae8:	3bdd                	jal	200128de <__metal_driver_sifive_clint0_num_interrupts>
20012aea:	fea42423          	sw	a0,-24(s0)
/home/jw/Desktop/sifive-standalone-project/freedom-metal/src/drivers/riscv_clint0.c:70
    struct __metal_driver_riscv_clint0 *clint =
20012aee:	fcc42783          	lw	a5,-52(s0)
20012af2:	fef42223          	sw	a5,-28(s0)
/home/jw/Desktop/sifive-standalone-project/freedom-metal/src/drivers/riscv_clint0.c:73
        (struct __metal_driver_riscv_clint0 *)(controller);

    if (!clint->init_done) {
20012af6:	fe442783          	lw	a5,-28(s0)
20012afa:	43dc                	lw	a5,4(a5)
20012afc:	efa9                	bnez	a5,20012b56 <__metal_driver_riscv_clint0_init+0x7e>
/home/jw/Desktop/sifive-standalone-project/freedom-metal/src/drivers/riscv_clint0.c:76
        /* Register its interrupts with with parent controller, aka sw and
         * timerto its default isr */
        for (int i = 0; i < num_interrupts; i++) {
20012afe:	fe042623          	sw	zero,-20(s0)
20012b02:	a081                	j	20012b42 <__metal_driver_riscv_clint0_init+0x6a>
/home/jw/Desktop/sifive-standalone-project/freedom-metal/src/drivers/riscv_clint0.c:78 (discriminator 3)
            struct metal_interrupt *intc =
                __metal_driver_sifive_clint0_interrupt_parents(controller, i);
20012b04:	fec42583          	lw	a1,-20(s0)
20012b08:	fcc42503          	lw	a0,-52(s0)
20012b0c:	3bed                	jal	20012906 <__metal_driver_sifive_clint0_interrupt_parents>
20012b0e:	fea42023          	sw	a0,-32(s0)
/home/jw/Desktop/sifive-standalone-project/freedom-metal/src/drivers/riscv_clint0.c:80 (discriminator 3)
            int line =
                __metal_driver_sifive_clint0_interrupt_lines(controller, i);
20012b12:	fec42583          	lw	a1,-20(s0)
20012b16:	fcc42503          	lw	a0,-52(s0)
20012b1a:	3525                	jal	20012942 <__metal_driver_sifive_clint0_interrupt_lines>
20012b1c:	fca42e23          	sw	a0,-36(s0)
/home/jw/Desktop/sifive-standalone-project/freedom-metal/src/drivers/riscv_clint0.c:81 (discriminator 3)
            intc->vtable->interrupt_register(intc, line, NULL, controller);
20012b20:	fe042783          	lw	a5,-32(s0)
20012b24:	439c                	lw	a5,0(a5)
20012b26:	4fdc                	lw	a5,28(a5)
20012b28:	fcc42683          	lw	a3,-52(s0)
20012b2c:	4601                	li	a2,0
20012b2e:	fdc42583          	lw	a1,-36(s0)
20012b32:	fe042503          	lw	a0,-32(s0)
20012b36:	9782                	jalr	a5
/home/jw/Desktop/sifive-standalone-project/freedom-metal/src/drivers/riscv_clint0.c:76 (discriminator 3)
        for (int i = 0; i < num_interrupts; i++) {
20012b38:	fec42783          	lw	a5,-20(s0)
20012b3c:	0785                	addi	a5,a5,1
20012b3e:	fef42623          	sw	a5,-20(s0)
/home/jw/Desktop/sifive-standalone-project/freedom-metal/src/drivers/riscv_clint0.c:76 (discriminator 1)
20012b42:	fec42703          	lw	a4,-20(s0)
20012b46:	fe842783          	lw	a5,-24(s0)
20012b4a:	faf74de3          	blt	a4,a5,20012b04 <__metal_driver_riscv_clint0_init+0x2c>
/home/jw/Desktop/sifive-standalone-project/freedom-metal/src/drivers/riscv_clint0.c:83
        }
        clint->init_done = 1;
20012b4e:	fe442783          	lw	a5,-28(s0)
20012b52:	4705                	li	a4,1
20012b54:	c3d8                	sw	a4,4(a5)
/home/jw/Desktop/sifive-standalone-project/freedom-metal/src/drivers/riscv_clint0.c:85
    }
}
20012b56:	0001                	nop
20012b58:	50f2                	lw	ra,60(sp)
20012b5a:	5462                	lw	s0,56(sp)
20012b5c:	6121                	addi	sp,sp,64
20012b5e:	8082                	ret

20012b60 <__metal_driver_riscv_clint0_register>:
__metal_driver_riscv_clint0_register():
/home/jw/Desktop/sifive-standalone-project/freedom-metal/src/drivers/riscv_clint0.c:89

int __metal_driver_riscv_clint0_register(struct metal_interrupt *controller,
                                         int id, metal_interrupt_handler_t isr,
                                         void *priv) {
20012b60:	7139                	addi	sp,sp,-64
20012b62:	de06                	sw	ra,60(sp)
20012b64:	dc22                	sw	s0,56(sp)
20012b66:	0080                	addi	s0,sp,64
20012b68:	fca42623          	sw	a0,-52(s0)
20012b6c:	fcb42423          	sw	a1,-56(s0)
20012b70:	fcc42223          	sw	a2,-60(s0)
20012b74:	fcd42023          	sw	a3,-64(s0)
/home/jw/Desktop/sifive-standalone-project/freedom-metal/src/drivers/riscv_clint0.c:90
    int rc = -1;
20012b78:	57fd                	li	a5,-1
20012b7a:	fef42623          	sw	a5,-20(s0)
/home/jw/Desktop/sifive-standalone-project/freedom-metal/src/drivers/riscv_clint0.c:91
    metal_vector_mode mode = __metal_controller_interrupt_vector_mode();
20012b7e:	45a010ef          	jal	ra,20013fd8 <__metal_controller_interrupt_vector_mode>
20012b82:	fea42023          	sw	a0,-32(s0)
/home/jw/Desktop/sifive-standalone-project/freedom-metal/src/drivers/riscv_clint0.c:92
    struct metal_interrupt *intc = NULL;
20012b86:	fe042423          	sw	zero,-24(s0)
/home/jw/Desktop/sifive-standalone-project/freedom-metal/src/drivers/riscv_clint0.c:93
    struct metal_interrupt *cpu_intc = _get_cpu_intc();
20012b8a:	3f21                	jal	20012aa2 <_get_cpu_intc>
20012b8c:	fca42e23          	sw	a0,-36(s0)
/home/jw/Desktop/sifive-standalone-project/freedom-metal/src/drivers/riscv_clint0.c:95
    int num_interrupts =
        __metal_driver_sifive_clint0_num_interrupts(controller);
20012b90:	fcc42503          	lw	a0,-52(s0)
20012b94:	33a9                	jal	200128de <__metal_driver_sifive_clint0_num_interrupts>
20012b96:	fca42c23          	sw	a0,-40(s0)
/home/jw/Desktop/sifive-standalone-project/freedom-metal/src/drivers/riscv_clint0.c:97

    if ((mode != METAL_VECTOR_MODE) && (mode != METAL_DIRECT_MODE)) {
20012b9a:	fe042703          	lw	a4,-32(s0)
20012b9e:	4785                	li	a5,1
20012ba0:	00f70863          	beq	a4,a5,20012bb0 <__metal_driver_riscv_clint0_register+0x50>
/home/jw/Desktop/sifive-standalone-project/freedom-metal/src/drivers/riscv_clint0.c:97 (discriminator 1)
20012ba4:	fe042783          	lw	a5,-32(s0)
20012ba8:	c781                	beqz	a5,20012bb0 <__metal_driver_riscv_clint0_register+0x50>
/home/jw/Desktop/sifive-standalone-project/freedom-metal/src/drivers/riscv_clint0.c:98
        return rc;
20012baa:	fec42783          	lw	a5,-20(s0)
20012bae:	a049                	j	20012c30 <__metal_driver_riscv_clint0_register+0xd0>
/home/jw/Desktop/sifive-standalone-project/freedom-metal/src/drivers/riscv_clint0.c:101
    }

    for (int i = 0; i < num_interrupts; i++) {
20012bb0:	fe042223          	sw	zero,-28(s0)
20012bb4:	a091                	j	20012bf8 <__metal_driver_riscv_clint0_register+0x98>
/home/jw/Desktop/sifive-standalone-project/freedom-metal/src/drivers/riscv_clint0.c:102
        int line = __metal_driver_sifive_clint0_interrupt_lines(controller, i);
20012bb6:	fe442583          	lw	a1,-28(s0)
20012bba:	fcc42503          	lw	a0,-52(s0)
20012bbe:	3351                	jal	20012942 <__metal_driver_sifive_clint0_interrupt_lines>
20012bc0:	fca42a23          	sw	a0,-44(s0)
/home/jw/Desktop/sifive-standalone-project/freedom-metal/src/drivers/riscv_clint0.c:103
        intc = __metal_driver_sifive_clint0_interrupt_parents(controller, i);
20012bc4:	fe442583          	lw	a1,-28(s0)
20012bc8:	fcc42503          	lw	a0,-52(s0)
20012bcc:	3b2d                	jal	20012906 <__metal_driver_sifive_clint0_interrupt_parents>
20012bce:	fea42423          	sw	a0,-24(s0)
/home/jw/Desktop/sifive-standalone-project/freedom-metal/src/drivers/riscv_clint0.c:104
        if (cpu_intc == intc && id == line) {
20012bd2:	fdc42703          	lw	a4,-36(s0)
20012bd6:	fe842783          	lw	a5,-24(s0)
20012bda:	00f71863          	bne	a4,a5,20012bea <__metal_driver_riscv_clint0_register+0x8a>
/home/jw/Desktop/sifive-standalone-project/freedom-metal/src/drivers/riscv_clint0.c:104 (discriminator 1)
20012bde:	fc842703          	lw	a4,-56(s0)
20012be2:	fd442783          	lw	a5,-44(s0)
20012be6:	02f70063          	beq	a4,a5,20012c06 <__metal_driver_riscv_clint0_register+0xa6>
/home/jw/Desktop/sifive-standalone-project/freedom-metal/src/drivers/riscv_clint0.c:107 (discriminator 2)
            break;
        }
        intc = NULL;
20012bea:	fe042423          	sw	zero,-24(s0)
/home/jw/Desktop/sifive-standalone-project/freedom-metal/src/drivers/riscv_clint0.c:101 (discriminator 2)
    for (int i = 0; i < num_interrupts; i++) {
20012bee:	fe442783          	lw	a5,-28(s0)
20012bf2:	0785                	addi	a5,a5,1
20012bf4:	fef42223          	sw	a5,-28(s0)
/home/jw/Desktop/sifive-standalone-project/freedom-metal/src/drivers/riscv_clint0.c:101 (discriminator 1)
20012bf8:	fe442703          	lw	a4,-28(s0)
20012bfc:	fd842783          	lw	a5,-40(s0)
20012c00:	faf74be3          	blt	a4,a5,20012bb6 <__metal_driver_riscv_clint0_register+0x56>
20012c04:	a011                	j	20012c08 <__metal_driver_riscv_clint0_register+0xa8>
/home/jw/Desktop/sifive-standalone-project/freedom-metal/src/drivers/riscv_clint0.c:105
            break;
20012c06:	0001                	nop
/home/jw/Desktop/sifive-standalone-project/freedom-metal/src/drivers/riscv_clint0.c:111
    }

    /* Register its interrupts with parent controller */
    if (intc) {
20012c08:	fe842783          	lw	a5,-24(s0)
20012c0c:	c385                	beqz	a5,20012c2c <__metal_driver_riscv_clint0_register+0xcc>
/home/jw/Desktop/sifive-standalone-project/freedom-metal/src/drivers/riscv_clint0.c:112
        rc = intc->vtable->interrupt_register(intc, id, isr, priv);
20012c0e:	fe842783          	lw	a5,-24(s0)
20012c12:	439c                	lw	a5,0(a5)
20012c14:	4fdc                	lw	a5,28(a5)
20012c16:	fc042683          	lw	a3,-64(s0)
20012c1a:	fc442603          	lw	a2,-60(s0)
20012c1e:	fc842583          	lw	a1,-56(s0)
20012c22:	fe842503          	lw	a0,-24(s0)
20012c26:	9782                	jalr	a5
20012c28:	fea42623          	sw	a0,-20(s0)
/home/jw/Desktop/sifive-standalone-project/freedom-metal/src/drivers/riscv_clint0.c:114
    }
    return rc;
20012c2c:	fec42783          	lw	a5,-20(s0)
/home/jw/Desktop/sifive-standalone-project/freedom-metal/src/drivers/riscv_clint0.c:115
}
20012c30:	853e                	mv	a0,a5
20012c32:	50f2                	lw	ra,60(sp)
20012c34:	5462                	lw	s0,56(sp)
20012c36:	6121                	addi	sp,sp,64
20012c38:	8082                	ret

20012c3a <__metal_driver_riscv_clint0_vector_register>:
__metal_driver_riscv_clint0_vector_register():
/home/jw/Desktop/sifive-standalone-project/freedom-metal/src/drivers/riscv_clint0.c:119

int __metal_driver_riscv_clint0_vector_register(
    struct metal_interrupt *controller, int id,
    metal_interrupt_vector_handler_t isr, void *priv) {
20012c3a:	7179                	addi	sp,sp,-48
20012c3c:	d622                	sw	s0,44(sp)
20012c3e:	1800                	addi	s0,sp,48
20012c40:	fca42e23          	sw	a0,-36(s0)
20012c44:	fcb42c23          	sw	a1,-40(s0)
20012c48:	fcc42a23          	sw	a2,-44(s0)
20012c4c:	fcd42823          	sw	a3,-48(s0)
/home/jw/Desktop/sifive-standalone-project/freedom-metal/src/drivers/riscv_clint0.c:121
    /* Not supported. User can override the 'weak' handler with their own */
    int rc = -1;
20012c50:	57fd                	li	a5,-1
20012c52:	fef42623          	sw	a5,-20(s0)
/home/jw/Desktop/sifive-standalone-project/freedom-metal/src/drivers/riscv_clint0.c:122
    return rc;
20012c56:	fec42783          	lw	a5,-20(s0)
/home/jw/Desktop/sifive-standalone-project/freedom-metal/src/drivers/riscv_clint0.c:123
}
20012c5a:	853e                	mv	a0,a5
20012c5c:	5432                	lw	s0,44(sp)
20012c5e:	6145                	addi	sp,sp,48
20012c60:	8082                	ret

20012c62 <__metal_driver_riscv_clint0_get_vector_mode>:
__metal_driver_riscv_clint0_get_vector_mode():
/home/jw/Desktop/sifive-standalone-project/freedom-metal/src/drivers/riscv_clint0.c:126

metal_vector_mode __metal_driver_riscv_clint0_get_vector_mode(
    struct metal_interrupt *controller) {
20012c62:	1101                	addi	sp,sp,-32
20012c64:	ce06                	sw	ra,28(sp)
20012c66:	cc22                	sw	s0,24(sp)
20012c68:	1000                	addi	s0,sp,32
20012c6a:	fea42623          	sw	a0,-20(s0)
/home/jw/Desktop/sifive-standalone-project/freedom-metal/src/drivers/riscv_clint0.c:127
    return __metal_controller_interrupt_vector_mode();
20012c6e:	36a010ef          	jal	ra,20013fd8 <__metal_controller_interrupt_vector_mode>
20012c72:	87aa                	mv	a5,a0
/home/jw/Desktop/sifive-standalone-project/freedom-metal/src/drivers/riscv_clint0.c:128
}
20012c74:	853e                	mv	a0,a5
20012c76:	40f2                	lw	ra,28(sp)
20012c78:	4462                	lw	s0,24(sp)
20012c7a:	6105                	addi	sp,sp,32
20012c7c:	8082                	ret

20012c7e <__metal_driver_riscv_clint0_set_vector_mode>:
__metal_driver_riscv_clint0_set_vector_mode():
/home/jw/Desktop/sifive-standalone-project/freedom-metal/src/drivers/riscv_clint0.c:131

int __metal_driver_riscv_clint0_set_vector_mode(
    struct metal_interrupt *controller, metal_vector_mode mode) {
20012c7e:	7179                	addi	sp,sp,-48
20012c80:	d606                	sw	ra,44(sp)
20012c82:	d422                	sw	s0,40(sp)
20012c84:	1800                	addi	s0,sp,48
20012c86:	fca42e23          	sw	a0,-36(s0)
20012c8a:	fcb42c23          	sw	a1,-40(s0)
/home/jw/Desktop/sifive-standalone-project/freedom-metal/src/drivers/riscv_clint0.c:132
    int rc = -1;
20012c8e:	57fd                	li	a5,-1
20012c90:	fef42623          	sw	a5,-20(s0)
/home/jw/Desktop/sifive-standalone-project/freedom-metal/src/drivers/riscv_clint0.c:133
    struct metal_interrupt *intc = _get_cpu_intc();
20012c94:	3539                	jal	20012aa2 <_get_cpu_intc>
20012c96:	fea42423          	sw	a0,-24(s0)
/home/jw/Desktop/sifive-standalone-project/freedom-metal/src/drivers/riscv_clint0.c:135

    if (intc) {
20012c9a:	fe842783          	lw	a5,-24(s0)
20012c9e:	c395                	beqz	a5,20012cc2 <__metal_driver_riscv_clint0_set_vector_mode+0x44>
/home/jw/Desktop/sifive-standalone-project/freedom-metal/src/drivers/riscv_clint0.c:138
        /* Valid vector modes are VECTOR and DIRECT, anything else is invalid
         * (-1) */
        switch (mode) {
20012ca0:	fd842703          	lw	a4,-40(s0)
20012ca4:	4785                	li	a5,1
20012ca6:	02e7e063          	bltu	a5,a4,20012cc6 <__metal_driver_riscv_clint0_set_vector_mode+0x48>
/home/jw/Desktop/sifive-standalone-project/freedom-metal/src/drivers/riscv_clint0.c:141
        case METAL_VECTOR_MODE:
        case METAL_DIRECT_MODE:
            rc = intc->vtable->interrupt_set_vector_mode(intc, mode);
20012caa:	fe842783          	lw	a5,-24(s0)
20012cae:	439c                	lw	a5,0(a5)
20012cb0:	43dc                	lw	a5,4(a5)
20012cb2:	fd842583          	lw	a1,-40(s0)
20012cb6:	fe842503          	lw	a0,-24(s0)
20012cba:	9782                	jalr	a5
20012cbc:	fea42623          	sw	a0,-20(s0)
/home/jw/Desktop/sifive-standalone-project/freedom-metal/src/drivers/riscv_clint0.c:142
            break;
20012cc0:	a021                	j	20012cc8 <__metal_driver_riscv_clint0_set_vector_mode+0x4a>
/home/jw/Desktop/sifive-standalone-project/freedom-metal/src/drivers/riscv_clint0.c:146
        default:
            break;
        }
    }
20012cc2:	0001                	nop
20012cc4:	a011                	j	20012cc8 <__metal_driver_riscv_clint0_set_vector_mode+0x4a>
/home/jw/Desktop/sifive-standalone-project/freedom-metal/src/drivers/riscv_clint0.c:144
            break;
20012cc6:	0001                	nop
/home/jw/Desktop/sifive-standalone-project/freedom-metal/src/drivers/riscv_clint0.c:147
    return rc;
20012cc8:	fec42783          	lw	a5,-20(s0)
/home/jw/Desktop/sifive-standalone-project/freedom-metal/src/drivers/riscv_clint0.c:148
}
20012ccc:	853e                	mv	a0,a5
20012cce:	50b2                	lw	ra,44(sp)
20012cd0:	5422                	lw	s0,40(sp)
20012cd2:	6145                	addi	sp,sp,48
20012cd4:	8082                	ret

20012cd6 <__metal_driver_riscv_clint0_enable>:
__metal_driver_riscv_clint0_enable():
/home/jw/Desktop/sifive-standalone-project/freedom-metal/src/drivers/riscv_clint0.c:151

int __metal_driver_riscv_clint0_enable(struct metal_interrupt *controller,
                                       int id) {
20012cd6:	7139                	addi	sp,sp,-64
20012cd8:	de06                	sw	ra,60(sp)
20012cda:	dc22                	sw	s0,56(sp)
20012cdc:	0080                	addi	s0,sp,64
20012cde:	fca42623          	sw	a0,-52(s0)
20012ce2:	fcb42423          	sw	a1,-56(s0)
/home/jw/Desktop/sifive-standalone-project/freedom-metal/src/drivers/riscv_clint0.c:152
    int rc = -1;
20012ce6:	57fd                	li	a5,-1
20012ce8:	fef42623          	sw	a5,-20(s0)
/home/jw/Desktop/sifive-standalone-project/freedom-metal/src/drivers/riscv_clint0.c:154

    if (id) {
20012cec:	fc842783          	lw	a5,-56(s0)
20012cf0:	c7c9                	beqz	a5,20012d7a <__metal_driver_riscv_clint0_enable+0xa4>
/home/jw/Desktop/sifive-standalone-project/freedom-metal/src/drivers/riscv_clint0.c:155
        struct metal_interrupt *intc = NULL;
20012cf2:	fe042423          	sw	zero,-24(s0)
/home/jw/Desktop/sifive-standalone-project/freedom-metal/src/drivers/riscv_clint0.c:156
        struct metal_interrupt *cpu_intc = _get_cpu_intc();
20012cf6:	3375                	jal	20012aa2 <_get_cpu_intc>
20012cf8:	fea42023          	sw	a0,-32(s0)
/home/jw/Desktop/sifive-standalone-project/freedom-metal/src/drivers/riscv_clint0.c:158
        int num_interrupts =
            __metal_driver_sifive_clint0_num_interrupts(controller);
20012cfc:	fcc42503          	lw	a0,-52(s0)
20012d00:	3ef9                	jal	200128de <__metal_driver_sifive_clint0_num_interrupts>
20012d02:	fca42e23          	sw	a0,-36(s0)
/home/jw/Desktop/sifive-standalone-project/freedom-metal/src/drivers/riscv_clint0.c:160

        for (int i = 0; i < num_interrupts; i++) {
20012d06:	fe042223          	sw	zero,-28(s0)
20012d0a:	a091                	j	20012d4e <__metal_driver_riscv_clint0_enable+0x78>
/home/jw/Desktop/sifive-standalone-project/freedom-metal/src/drivers/riscv_clint0.c:162
            int line =
                __metal_driver_sifive_clint0_interrupt_lines(controller, i);
20012d0c:	fe442583          	lw	a1,-28(s0)
20012d10:	fcc42503          	lw	a0,-52(s0)
20012d14:	313d                	jal	20012942 <__metal_driver_sifive_clint0_interrupt_lines>
20012d16:	fca42c23          	sw	a0,-40(s0)
/home/jw/Desktop/sifive-standalone-project/freedom-metal/src/drivers/riscv_clint0.c:164
            intc =
                __metal_driver_sifive_clint0_interrupt_parents(controller, i);
20012d1a:	fe442583          	lw	a1,-28(s0)
20012d1e:	fcc42503          	lw	a0,-52(s0)
20012d22:	36d5                	jal	20012906 <__metal_driver_sifive_clint0_interrupt_parents>
20012d24:	fea42423          	sw	a0,-24(s0)
/home/jw/Desktop/sifive-standalone-project/freedom-metal/src/drivers/riscv_clint0.c:165
            if (cpu_intc == intc && id == line) {
20012d28:	fe042703          	lw	a4,-32(s0)
20012d2c:	fe842783          	lw	a5,-24(s0)
20012d30:	00f71863          	bne	a4,a5,20012d40 <__metal_driver_riscv_clint0_enable+0x6a>
/home/jw/Desktop/sifive-standalone-project/freedom-metal/src/drivers/riscv_clint0.c:165 (discriminator 1)
20012d34:	fc842703          	lw	a4,-56(s0)
20012d38:	fd842783          	lw	a5,-40(s0)
20012d3c:	02f70063          	beq	a4,a5,20012d5c <__metal_driver_riscv_clint0_enable+0x86>
/home/jw/Desktop/sifive-standalone-project/freedom-metal/src/drivers/riscv_clint0.c:168 (discriminator 2)
                break;
            }
            intc = NULL;
20012d40:	fe042423          	sw	zero,-24(s0)
/home/jw/Desktop/sifive-standalone-project/freedom-metal/src/drivers/riscv_clint0.c:160 (discriminator 2)
        for (int i = 0; i < num_interrupts; i++) {
20012d44:	fe442783          	lw	a5,-28(s0)
20012d48:	0785                	addi	a5,a5,1
20012d4a:	fef42223          	sw	a5,-28(s0)
/home/jw/Desktop/sifive-standalone-project/freedom-metal/src/drivers/riscv_clint0.c:160 (discriminator 1)
20012d4e:	fe442703          	lw	a4,-28(s0)
20012d52:	fdc42783          	lw	a5,-36(s0)
20012d56:	faf74be3          	blt	a4,a5,20012d0c <__metal_driver_riscv_clint0_enable+0x36>
20012d5a:	a011                	j	20012d5e <__metal_driver_riscv_clint0_enable+0x88>
/home/jw/Desktop/sifive-standalone-project/freedom-metal/src/drivers/riscv_clint0.c:166
                break;
20012d5c:	0001                	nop
/home/jw/Desktop/sifive-standalone-project/freedom-metal/src/drivers/riscv_clint0.c:172
        }

        /* Enable its interrupts with parent controller */
        if (intc) {
20012d5e:	fe842783          	lw	a5,-24(s0)
20012d62:	cf81                	beqz	a5,20012d7a <__metal_driver_riscv_clint0_enable+0xa4>
/home/jw/Desktop/sifive-standalone-project/freedom-metal/src/drivers/riscv_clint0.c:173
            rc = intc->vtable->interrupt_enable(intc, id);
20012d64:	fe842783          	lw	a5,-24(s0)
20012d68:	439c                	lw	a5,0(a5)
20012d6a:	53dc                	lw	a5,36(a5)
20012d6c:	fc842583          	lw	a1,-56(s0)
20012d70:	fe842503          	lw	a0,-24(s0)
20012d74:	9782                	jalr	a5
20012d76:	fea42623          	sw	a0,-20(s0)
/home/jw/Desktop/sifive-standalone-project/freedom-metal/src/drivers/riscv_clint0.c:177
        }
    }

    return rc;
20012d7a:	fec42783          	lw	a5,-20(s0)
/home/jw/Desktop/sifive-standalone-project/freedom-metal/src/drivers/riscv_clint0.c:178
}
20012d7e:	853e                	mv	a0,a5
20012d80:	50f2                	lw	ra,60(sp)
20012d82:	5462                	lw	s0,56(sp)
20012d84:	6121                	addi	sp,sp,64
20012d86:	8082                	ret

20012d88 <__metal_driver_riscv_clint0_disable>:
__metal_driver_riscv_clint0_disable():
/home/jw/Desktop/sifive-standalone-project/freedom-metal/src/drivers/riscv_clint0.c:181

int __metal_driver_riscv_clint0_disable(struct metal_interrupt *controller,
                                        int id) {
20012d88:	7139                	addi	sp,sp,-64
20012d8a:	de06                	sw	ra,60(sp)
20012d8c:	dc22                	sw	s0,56(sp)
20012d8e:	0080                	addi	s0,sp,64
20012d90:	fca42623          	sw	a0,-52(s0)
20012d94:	fcb42423          	sw	a1,-56(s0)
/home/jw/Desktop/sifive-standalone-project/freedom-metal/src/drivers/riscv_clint0.c:182
    int rc = -1;
20012d98:	57fd                	li	a5,-1
20012d9a:	fef42623          	sw	a5,-20(s0)
/home/jw/Desktop/sifive-standalone-project/freedom-metal/src/drivers/riscv_clint0.c:184

    if (id) {
20012d9e:	fc842783          	lw	a5,-56(s0)
20012da2:	c7c9                	beqz	a5,20012e2c <__metal_driver_riscv_clint0_disable+0xa4>
/home/jw/Desktop/sifive-standalone-project/freedom-metal/src/drivers/riscv_clint0.c:185
        struct metal_interrupt *intc = NULL;
20012da4:	fe042423          	sw	zero,-24(s0)
/home/jw/Desktop/sifive-standalone-project/freedom-metal/src/drivers/riscv_clint0.c:186
        struct metal_interrupt *cpu_intc = _get_cpu_intc();
20012da8:	39ed                	jal	20012aa2 <_get_cpu_intc>
20012daa:	fea42023          	sw	a0,-32(s0)
/home/jw/Desktop/sifive-standalone-project/freedom-metal/src/drivers/riscv_clint0.c:188
        int num_interrupts =
            __metal_driver_sifive_clint0_num_interrupts(controller);
20012dae:	fcc42503          	lw	a0,-52(s0)
20012db2:	3635                	jal	200128de <__metal_driver_sifive_clint0_num_interrupts>
20012db4:	fca42e23          	sw	a0,-36(s0)
/home/jw/Desktop/sifive-standalone-project/freedom-metal/src/drivers/riscv_clint0.c:190

        for (int i = 0; i < num_interrupts; i++) {
20012db8:	fe042223          	sw	zero,-28(s0)
20012dbc:	a091                	j	20012e00 <__metal_driver_riscv_clint0_disable+0x78>
/home/jw/Desktop/sifive-standalone-project/freedom-metal/src/drivers/riscv_clint0.c:192
            int line =
                __metal_driver_sifive_clint0_interrupt_lines(controller, i);
20012dbe:	fe442583          	lw	a1,-28(s0)
20012dc2:	fcc42503          	lw	a0,-52(s0)
20012dc6:	3eb5                	jal	20012942 <__metal_driver_sifive_clint0_interrupt_lines>
20012dc8:	fca42c23          	sw	a0,-40(s0)
/home/jw/Desktop/sifive-standalone-project/freedom-metal/src/drivers/riscv_clint0.c:194
            intc =
                __metal_driver_sifive_clint0_interrupt_parents(controller, i);
20012dcc:	fe442583          	lw	a1,-28(s0)
20012dd0:	fcc42503          	lw	a0,-52(s0)
20012dd4:	3e0d                	jal	20012906 <__metal_driver_sifive_clint0_interrupt_parents>
20012dd6:	fea42423          	sw	a0,-24(s0)
/home/jw/Desktop/sifive-standalone-project/freedom-metal/src/drivers/riscv_clint0.c:195
            if (cpu_intc == intc && id == line) {
20012dda:	fe042703          	lw	a4,-32(s0)
20012dde:	fe842783          	lw	a5,-24(s0)
20012de2:	00f71863          	bne	a4,a5,20012df2 <__metal_driver_riscv_clint0_disable+0x6a>
/home/jw/Desktop/sifive-standalone-project/freedom-metal/src/drivers/riscv_clint0.c:195 (discriminator 1)
20012de6:	fc842703          	lw	a4,-56(s0)
20012dea:	fd842783          	lw	a5,-40(s0)
20012dee:	02f70063          	beq	a4,a5,20012e0e <__metal_driver_riscv_clint0_disable+0x86>
/home/jw/Desktop/sifive-standalone-project/freedom-metal/src/drivers/riscv_clint0.c:198 (discriminator 2)
                break;
            }
            intc = NULL;
20012df2:	fe042423          	sw	zero,-24(s0)
/home/jw/Desktop/sifive-standalone-project/freedom-metal/src/drivers/riscv_clint0.c:190 (discriminator 2)
        for (int i = 0; i < num_interrupts; i++) {
20012df6:	fe442783          	lw	a5,-28(s0)
20012dfa:	0785                	addi	a5,a5,1
20012dfc:	fef42223          	sw	a5,-28(s0)
/home/jw/Desktop/sifive-standalone-project/freedom-metal/src/drivers/riscv_clint0.c:190 (discriminator 1)
20012e00:	fe442703          	lw	a4,-28(s0)
20012e04:	fdc42783          	lw	a5,-36(s0)
20012e08:	faf74be3          	blt	a4,a5,20012dbe <__metal_driver_riscv_clint0_disable+0x36>
20012e0c:	a011                	j	20012e10 <__metal_driver_riscv_clint0_disable+0x88>
/home/jw/Desktop/sifive-standalone-project/freedom-metal/src/drivers/riscv_clint0.c:196
                break;
20012e0e:	0001                	nop
/home/jw/Desktop/sifive-standalone-project/freedom-metal/src/drivers/riscv_clint0.c:202
        }

        /* Disable its interrupts with parent controller */
        if (intc) {
20012e10:	fe842783          	lw	a5,-24(s0)
20012e14:	cf81                	beqz	a5,20012e2c <__metal_driver_riscv_clint0_disable+0xa4>
/home/jw/Desktop/sifive-standalone-project/freedom-metal/src/drivers/riscv_clint0.c:203
            rc = intc->vtable->interrupt_disable(intc, id);
20012e16:	fe842783          	lw	a5,-24(s0)
20012e1a:	439c                	lw	a5,0(a5)
20012e1c:	579c                	lw	a5,40(a5)
20012e1e:	fc842583          	lw	a1,-56(s0)
20012e22:	fe842503          	lw	a0,-24(s0)
20012e26:	9782                	jalr	a5
20012e28:	fea42623          	sw	a0,-20(s0)
/home/jw/Desktop/sifive-standalone-project/freedom-metal/src/drivers/riscv_clint0.c:207
        }
    }

    return rc;
20012e2c:	fec42783          	lw	a5,-20(s0)
/home/jw/Desktop/sifive-standalone-project/freedom-metal/src/drivers/riscv_clint0.c:208
}
20012e30:	853e                	mv	a0,a5
20012e32:	50f2                	lw	ra,60(sp)
20012e34:	5462                	lw	s0,56(sp)
20012e36:	6121                	addi	sp,sp,64
20012e38:	8082                	ret

20012e3a <__metal_driver_riscv_clint0_command_request>:
__metal_driver_riscv_clint0_command_request():
/home/jw/Desktop/sifive-standalone-project/freedom-metal/src/drivers/riscv_clint0.c:211

int __metal_driver_riscv_clint0_command_request(
    struct metal_interrupt *controller, int command, void *data) {
20012e3a:	7179                	addi	sp,sp,-48
20012e3c:	d606                	sw	ra,44(sp)
20012e3e:	d422                	sw	s0,40(sp)
20012e40:	1800                	addi	s0,sp,48
20012e42:	fca42e23          	sw	a0,-36(s0)
20012e46:	fcb42c23          	sw	a1,-40(s0)
20012e4a:	fcc42a23          	sw	a2,-44(s0)
/home/jw/Desktop/sifive-standalone-project/freedom-metal/src/drivers/riscv_clint0.c:213
    int hartid;
    int rc = -1;
20012e4e:	57fd                	li	a5,-1
20012e50:	fef42623          	sw	a5,-20(s0)
/home/jw/Desktop/sifive-standalone-project/freedom-metal/src/drivers/riscv_clint0.c:214
    struct __metal_driver_riscv_clint0 *clint =
20012e54:	fdc42783          	lw	a5,-36(s0)
20012e58:	fef42423          	sw	a5,-24(s0)
/home/jw/Desktop/sifive-standalone-project/freedom-metal/src/drivers/riscv_clint0.c:217
        (struct __metal_driver_riscv_clint0 *)(controller);
    unsigned long control_base =
        __metal_driver_sifive_clint0_control_base(controller);
20012e5c:	fdc42503          	lw	a0,-36(s0)
20012e60:	a55ff0ef          	jal	ra,200128b4 <__metal_driver_sifive_clint0_control_base>
20012e64:	fea42223          	sw	a0,-28(s0)
/home/jw/Desktop/sifive-standalone-project/freedom-metal/src/drivers/riscv_clint0.c:219

    switch (command) {
20012e68:	fd842703          	lw	a4,-40(s0)
20012e6c:	4791                	li	a5,4
20012e6e:	0cf70163          	beq	a4,a5,20012f30 <__metal_driver_riscv_clint0_command_request+0xf6>
20012e72:	fd842703          	lw	a4,-40(s0)
20012e76:	4791                	li	a5,4
20012e78:	0ee7c163          	blt	a5,a4,20012f5a <__metal_driver_riscv_clint0_command_request+0x120>
20012e7c:	fd842703          	lw	a4,-40(s0)
20012e80:	478d                	li	a5,3
20012e82:	06f70663          	beq	a4,a5,20012eee <__metal_driver_riscv_clint0_command_request+0xb4>
20012e86:	fd842703          	lw	a4,-40(s0)
20012e8a:	478d                	li	a5,3
20012e8c:	0ce7c763          	blt	a5,a4,20012f5a <__metal_driver_riscv_clint0_command_request+0x120>
20012e90:	fd842703          	lw	a4,-40(s0)
20012e94:	4785                	li	a5,1
20012e96:	00f70863          	beq	a4,a5,20012ea6 <__metal_driver_riscv_clint0_command_request+0x6c>
20012e9a:	fd842703          	lw	a4,-40(s0)
20012e9e:	4789                	li	a5,2
20012ea0:	02f70363          	beq	a4,a5,20012ec6 <__metal_driver_riscv_clint0_command_request+0x8c>
/home/jw/Desktop/sifive-standalone-project/freedom-metal/src/drivers/riscv_clint0.c:263
            rc = __METAL_ACCESS_ONCE(
                (__metal_io_u32 *)(control_base + (hartid * 4)));
        }
        break;
    default:
        break;
20012ea4:	a85d                	j	20012f5a <__metal_driver_riscv_clint0_command_request+0x120>
/home/jw/Desktop/sifive-standalone-project/freedom-metal/src/drivers/riscv_clint0.c:221
        if (data) {
20012ea6:	fd442783          	lw	a5,-44(s0)
20012eaa:	cbd5                	beqz	a5,20012f5e <__metal_driver_riscv_clint0_command_request+0x124>
/home/jw/Desktop/sifive-standalone-project/freedom-metal/src/drivers/riscv_clint0.c:222
            *(unsigned long long *)data = __metal_clint0_mtime_get(clint);
20012eac:	fe842503          	lw	a0,-24(s0)
20012eb0:	ac3ff0ef          	jal	ra,20012972 <__metal_clint0_mtime_get>
20012eb4:	872a                	mv	a4,a0
20012eb6:	87ae                	mv	a5,a1
20012eb8:	fd442683          	lw	a3,-44(s0)
20012ebc:	c298                	sw	a4,0(a3)
20012ebe:	c2dc                	sw	a5,4(a3)
/home/jw/Desktop/sifive-standalone-project/freedom-metal/src/drivers/riscv_clint0.c:223
            rc = 0;
20012ec0:	fe042623          	sw	zero,-20(s0)
/home/jw/Desktop/sifive-standalone-project/freedom-metal/src/drivers/riscv_clint0.c:225
        break;
20012ec4:	a869                	j	20012f5e <__metal_driver_riscv_clint0_command_request+0x124>
/home/jw/Desktop/sifive-standalone-project/freedom-metal/src/drivers/riscv_clint0.c:227
        if (data) {
20012ec6:	fd442783          	lw	a5,-44(s0)
20012eca:	cfc1                	beqz	a5,20012f62 <__metal_driver_riscv_clint0_command_request+0x128>
/home/jw/Desktop/sifive-standalone-project/freedom-metal/src/drivers/riscv_clint0.c:228
            hartid = *(int *)data;
20012ecc:	fd442783          	lw	a5,-44(s0)
20012ed0:	439c                	lw	a5,0(a5)
20012ed2:	fef42023          	sw	a5,-32(s0)
/home/jw/Desktop/sifive-standalone-project/freedom-metal/src/drivers/riscv_clint0.c:229
            __METAL_ACCESS_ONCE((
20012ed6:	fe042783          	lw	a5,-32(s0)
20012eda:	078a                	slli	a5,a5,0x2
20012edc:	873e                	mv	a4,a5
20012ede:	fe442783          	lw	a5,-28(s0)
20012ee2:	97ba                	add	a5,a5,a4
/home/jw/Desktop/sifive-standalone-project/freedom-metal/src/drivers/riscv_clint0.c:230
                __metal_io_u32 *)(control_base + (hartid * 4))) = METAL_DISABLE;
20012ee4:	0007a023          	sw	zero,0(a5) # 4000 <__heap_size+0x3800>
/home/jw/Desktop/sifive-standalone-project/freedom-metal/src/drivers/riscv_clint0.c:231
            rc = 0;
20012ee8:	fe042623          	sw	zero,-20(s0)
/home/jw/Desktop/sifive-standalone-project/freedom-metal/src/drivers/riscv_clint0.c:233
        break;
20012eec:	a89d                	j	20012f62 <__metal_driver_riscv_clint0_command_request+0x128>
/home/jw/Desktop/sifive-standalone-project/freedom-metal/src/drivers/riscv_clint0.c:235
        if (data) {
20012eee:	fd442783          	lw	a5,-44(s0)
20012ef2:	cbb5                	beqz	a5,20012f66 <__metal_driver_riscv_clint0_command_request+0x12c>
/home/jw/Desktop/sifive-standalone-project/freedom-metal/src/drivers/riscv_clint0.c:236
            hartid = *(int *)data;
20012ef4:	fd442783          	lw	a5,-44(s0)
20012ef8:	439c                	lw	a5,0(a5)
20012efa:	fef42023          	sw	a5,-32(s0)
/home/jw/Desktop/sifive-standalone-project/freedom-metal/src/drivers/riscv_clint0.c:237
            __METAL_ACCESS_ONCE(
20012efe:	fe042783          	lw	a5,-32(s0)
20012f02:	078a                	slli	a5,a5,0x2
20012f04:	873e                	mv	a4,a5
20012f06:	fe442783          	lw	a5,-28(s0)
20012f0a:	97ba                	add	a5,a5,a4
20012f0c:	873e                	mv	a4,a5
/home/jw/Desktop/sifive-standalone-project/freedom-metal/src/drivers/riscv_clint0.c:238
                (__metal_io_u32 *)(control_base + (hartid * 4))) = METAL_ENABLE;
20012f0e:	4785                	li	a5,1
20012f10:	c31c                	sw	a5,0(a4)
/home/jw/Desktop/sifive-standalone-project/freedom-metal/src/drivers/riscv_clint0.c:248
            __METAL_IO_FENCE(o, i);
20012f12:	0480000f          	fence	o,i
/home/jw/Desktop/sifive-standalone-project/freedom-metal/src/drivers/riscv_clint0.c:249
            rc = __METAL_ACCESS_ONCE(
20012f16:	fe042783          	lw	a5,-32(s0)
20012f1a:	078a                	slli	a5,a5,0x2
20012f1c:	873e                	mv	a4,a5
20012f1e:	fe442783          	lw	a5,-28(s0)
20012f22:	97ba                	add	a5,a5,a4
20012f24:	439c                	lw	a5,0(a5)
20012f26:	fef42623          	sw	a5,-20(s0)
/home/jw/Desktop/sifive-standalone-project/freedom-metal/src/drivers/riscv_clint0.c:251
            rc = 0;
20012f2a:	fe042623          	sw	zero,-20(s0)
/home/jw/Desktop/sifive-standalone-project/freedom-metal/src/drivers/riscv_clint0.c:253
        break;
20012f2e:	a825                	j	20012f66 <__metal_driver_riscv_clint0_command_request+0x12c>
/home/jw/Desktop/sifive-standalone-project/freedom-metal/src/drivers/riscv_clint0.c:255
        rc = 0;
20012f30:	fe042623          	sw	zero,-20(s0)
/home/jw/Desktop/sifive-standalone-project/freedom-metal/src/drivers/riscv_clint0.c:256
        if (data) {
20012f34:	fd442783          	lw	a5,-44(s0)
20012f38:	cb8d                	beqz	a5,20012f6a <__metal_driver_riscv_clint0_command_request+0x130>
/home/jw/Desktop/sifive-standalone-project/freedom-metal/src/drivers/riscv_clint0.c:257
            hartid = *(int *)data;
20012f3a:	fd442783          	lw	a5,-44(s0)
20012f3e:	439c                	lw	a5,0(a5)
20012f40:	fef42023          	sw	a5,-32(s0)
/home/jw/Desktop/sifive-standalone-project/freedom-metal/src/drivers/riscv_clint0.c:258
            rc = __METAL_ACCESS_ONCE(
20012f44:	fe042783          	lw	a5,-32(s0)
20012f48:	078a                	slli	a5,a5,0x2
20012f4a:	873e                	mv	a4,a5
20012f4c:	fe442783          	lw	a5,-28(s0)
20012f50:	97ba                	add	a5,a5,a4
20012f52:	439c                	lw	a5,0(a5)
20012f54:	fef42623          	sw	a5,-20(s0)
/home/jw/Desktop/sifive-standalone-project/freedom-metal/src/drivers/riscv_clint0.c:261
        break;
20012f58:	a809                	j	20012f6a <__metal_driver_riscv_clint0_command_request+0x130>
/home/jw/Desktop/sifive-standalone-project/freedom-metal/src/drivers/riscv_clint0.c:263
        break;
20012f5a:	0001                	nop
20012f5c:	a801                	j	20012f6c <__metal_driver_riscv_clint0_command_request+0x132>
/home/jw/Desktop/sifive-standalone-project/freedom-metal/src/drivers/riscv_clint0.c:225
        break;
20012f5e:	0001                	nop
20012f60:	a031                	j	20012f6c <__metal_driver_riscv_clint0_command_request+0x132>
/home/jw/Desktop/sifive-standalone-project/freedom-metal/src/drivers/riscv_clint0.c:233
        break;
20012f62:	0001                	nop
20012f64:	a021                	j	20012f6c <__metal_driver_riscv_clint0_command_request+0x132>
/home/jw/Desktop/sifive-standalone-project/freedom-metal/src/drivers/riscv_clint0.c:253
        break;
20012f66:	0001                	nop
20012f68:	a011                	j	20012f6c <__metal_driver_riscv_clint0_command_request+0x132>
/home/jw/Desktop/sifive-standalone-project/freedom-metal/src/drivers/riscv_clint0.c:261
        break;
20012f6a:	0001                	nop
/home/jw/Desktop/sifive-standalone-project/freedom-metal/src/drivers/riscv_clint0.c:266
    }

    return rc;
20012f6c:	fec42783          	lw	a5,-20(s0)
/home/jw/Desktop/sifive-standalone-project/freedom-metal/src/drivers/riscv_clint0.c:267
}
20012f70:	853e                	mv	a0,a5
20012f72:	50b2                	lw	ra,44(sp)
20012f74:	5422                	lw	s0,40(sp)
20012f76:	6145                	addi	sp,sp,48
20012f78:	8082                	ret

20012f7a <__metal_driver_riscv_clint0_clear_interrupt>:
__metal_driver_riscv_clint0_clear_interrupt():
/home/jw/Desktop/sifive-standalone-project/freedom-metal/src/drivers/riscv_clint0.c:270

int __metal_driver_riscv_clint0_clear_interrupt(
    struct metal_interrupt *controller, int id) {
20012f7a:	7179                	addi	sp,sp,-48
20012f7c:	d606                	sw	ra,44(sp)
20012f7e:	d422                	sw	s0,40(sp)
20012f80:	1800                	addi	s0,sp,48
20012f82:	fca42e23          	sw	a0,-36(s0)
20012f86:	fcb42c23          	sw	a1,-40(s0)
/home/jw/Desktop/sifive-standalone-project/freedom-metal/src/drivers/riscv_clint0.c:271
    int hartid = metal_cpu_get_current_hartid();
20012f8a:	7d1030ef          	jal	ra,20016f5a <metal_cpu_get_current_hartid>
20012f8e:	87aa                	mv	a5,a0
20012f90:	fef42623          	sw	a5,-20(s0)
/home/jw/Desktop/sifive-standalone-project/freedom-metal/src/drivers/riscv_clint0.c:272
    return __metal_driver_riscv_clint0_command_request(
20012f94:	fec40793          	addi	a5,s0,-20
20012f98:	863e                	mv	a2,a5
20012f9a:	4589                	li	a1,2
20012f9c:	fdc42503          	lw	a0,-36(s0)
20012fa0:	3d69                	jal	20012e3a <__metal_driver_riscv_clint0_command_request>
20012fa2:	87aa                	mv	a5,a0
/home/jw/Desktop/sifive-standalone-project/freedom-metal/src/drivers/riscv_clint0.c:274
        controller, METAL_SOFTWARE_IPI_CLEAR, &hartid);
}
20012fa4:	853e                	mv	a0,a5
20012fa6:	50b2                	lw	ra,44(sp)
20012fa8:	5422                	lw	s0,40(sp)
20012faa:	6145                	addi	sp,sp,48
20012fac:	8082                	ret

20012fae <__metal_driver_riscv_clint0_set_interrupt>:
__metal_driver_riscv_clint0_set_interrupt():
/home/jw/Desktop/sifive-standalone-project/freedom-metal/src/drivers/riscv_clint0.c:277

int __metal_driver_riscv_clint0_set_interrupt(
    struct metal_interrupt *controller, int id) {
20012fae:	7179                	addi	sp,sp,-48
20012fb0:	d606                	sw	ra,44(sp)
20012fb2:	d422                	sw	s0,40(sp)
20012fb4:	1800                	addi	s0,sp,48
20012fb6:	fca42e23          	sw	a0,-36(s0)
20012fba:	fcb42c23          	sw	a1,-40(s0)
/home/jw/Desktop/sifive-standalone-project/freedom-metal/src/drivers/riscv_clint0.c:278
    int hartid = metal_cpu_get_current_hartid();
20012fbe:	79d030ef          	jal	ra,20016f5a <metal_cpu_get_current_hartid>
20012fc2:	87aa                	mv	a5,a0
20012fc4:	fef42623          	sw	a5,-20(s0)
/home/jw/Desktop/sifive-standalone-project/freedom-metal/src/drivers/riscv_clint0.c:279
    return __metal_driver_riscv_clint0_command_request(
20012fc8:	fec40793          	addi	a5,s0,-20
20012fcc:	863e                	mv	a2,a5
20012fce:	458d                	li	a1,3
20012fd0:	fdc42503          	lw	a0,-36(s0)
20012fd4:	359d                	jal	20012e3a <__metal_driver_riscv_clint0_command_request>
20012fd6:	87aa                	mv	a5,a0
/home/jw/Desktop/sifive-standalone-project/freedom-metal/src/drivers/riscv_clint0.c:281
        controller, METAL_SOFTWARE_IPI_SET, &hartid);
}
20012fd8:	853e                	mv	a0,a5
20012fda:	50b2                	lw	ra,44(sp)
20012fdc:	5422                	lw	s0,40(sp)
20012fde:	6145                	addi	sp,sp,48
20012fe0:	8082                	ret

20012fe2 <__metal_driver_cpu_hartid>:
__metal_driver_cpu_hartid():
/home/jw/Desktop/sifive-standalone-project/bsp/build/debug/./metal/machine.h:292



/* --------------------- cpu ------------ */
static __inline__ int __metal_driver_cpu_hartid(struct metal_cpu *cpu)
{
20012fe2:	1101                	addi	sp,sp,-32
20012fe4:	ce22                	sw	s0,28(sp)
20012fe6:	1000                	addi	s0,sp,32
20012fe8:	fea42623          	sw	a0,-20(s0)
/home/jw/Desktop/sifive-standalone-project/bsp/build/debug/./metal/machine.h:293
	if ((uintptr_t)cpu == (uintptr_t)&__metal_dt_cpu_0) {
20012fec:	fec42703          	lw	a4,-20(s0)
20012ff0:	81418793          	addi	a5,gp,-2028 # 80000ab4 <__metal_dt_cpu_0>
20012ff4:	00f71463          	bne	a4,a5,20012ffc <__metal_driver_cpu_hartid+0x1a>
/home/jw/Desktop/sifive-standalone-project/bsp/build/debug/./metal/machine.h:294
		return 0;
20012ff8:	4781                	li	a5,0
20012ffa:	a011                	j	20012ffe <__metal_driver_cpu_hartid+0x1c>
/home/jw/Desktop/sifive-standalone-project/bsp/build/debug/./metal/machine.h:297
	}
	else {
		return -1;
20012ffc:	57fd                	li	a5,-1
/home/jw/Desktop/sifive-standalone-project/bsp/build/debug/./metal/machine.h:299
	}
}
20012ffe:	853e                	mv	a0,a5
20013000:	4472                	lw	s0,28(sp)
20013002:	6105                	addi	sp,sp,32
20013004:	8082                	ret

20013006 <__metal_driver_cpu_timebase>:
__metal_driver_cpu_timebase():
/home/jw/Desktop/sifive-standalone-project/bsp/build/debug/./metal/machine.h:302

static __inline__ int __metal_driver_cpu_timebase(struct metal_cpu *cpu)
{
20013006:	1101                	addi	sp,sp,-32
20013008:	ce22                	sw	s0,28(sp)
2001300a:	1000                	addi	s0,sp,32
2001300c:	fea42623          	sw	a0,-20(s0)
/home/jw/Desktop/sifive-standalone-project/bsp/build/debug/./metal/machine.h:303
	if ((uintptr_t)cpu == (uintptr_t)&__metal_dt_cpu_0) {
20013010:	fec42703          	lw	a4,-20(s0)
20013014:	81418793          	addi	a5,gp,-2028 # 80000ab4 <__metal_dt_cpu_0>
20013018:	00f71763          	bne	a4,a5,20013026 <__metal_driver_cpu_timebase+0x20>
/home/jw/Desktop/sifive-standalone-project/bsp/build/debug/./metal/machine.h:304
		return 16000000;
2001301c:	00f427b7          	lui	a5,0xf42
20013020:	40078793          	addi	a5,a5,1024 # f42400 <__heap_size+0xf41c00>
20013024:	a011                	j	20013028 <__metal_driver_cpu_timebase+0x22>
/home/jw/Desktop/sifive-standalone-project/bsp/build/debug/./metal/machine.h:307
	}
	else {
		return 0;
20013026:	4781                	li	a5,0
/home/jw/Desktop/sifive-standalone-project/bsp/build/debug/./metal/machine.h:309
	}
}
20013028:	853e                	mv	a0,a5
2001302a:	4472                	lw	s0,28(sp)
2001302c:	6105                	addi	sp,sp,32
2001302e:	8082                	ret

20013030 <__metal_driver_cpu_interrupt_controller>:
__metal_driver_cpu_interrupt_controller():
/home/jw/Desktop/sifive-standalone-project/bsp/build/debug/./metal/machine.h:312

static __inline__ struct metal_interrupt * __metal_driver_cpu_interrupt_controller(struct metal_cpu *cpu)
{
20013030:	1101                	addi	sp,sp,-32
20013032:	ce22                	sw	s0,28(sp)
20013034:	1000                	addi	s0,sp,32
20013036:	fea42623          	sw	a0,-20(s0)
/home/jw/Desktop/sifive-standalone-project/bsp/build/debug/./metal/machine.h:313
	if ((uintptr_t)cpu == (uintptr_t)&__metal_dt_cpu_0) {
2001303a:	fec42703          	lw	a4,-20(s0)
2001303e:	81418793          	addi	a5,gp,-2028 # 80000ab4 <__metal_dt_cpu_0>
20013042:	00f71763          	bne	a4,a5,20013050 <__metal_driver_cpu_interrupt_controller+0x20>
/home/jw/Desktop/sifive-standalone-project/bsp/build/debug/./metal/machine.h:314
		return &__metal_dt_cpu_0_interrupt_controller.controller;
20013046:	800007b7          	lui	a5,0x80000
2001304a:	09078793          	addi	a5,a5,144 # 80000090 <metal_segment_heap_target_end+0xffffe920>
2001304e:	a011                	j	20013052 <__metal_driver_cpu_interrupt_controller+0x22>
/home/jw/Desktop/sifive-standalone-project/bsp/build/debug/./metal/machine.h:317
	}
	else {
		return NULL;
20013050:	4781                	li	a5,0
/home/jw/Desktop/sifive-standalone-project/bsp/build/debug/./metal/machine.h:319
	}
}
20013052:	853e                	mv	a0,a5
20013054:	4472                	lw	s0,28(sp)
20013056:	6105                	addi	sp,sp,32
20013058:	8082                	ret

2001305a <__metal_driver_cpu_buserror>:
__metal_driver_cpu_buserror():
/home/jw/Desktop/sifive-standalone-project/bsp/build/debug/./metal/machine.h:332
		return 0;
	}
}

static __inline__ struct metal_buserror * __metal_driver_cpu_buserror(struct metal_cpu *cpu)
{
2001305a:	1101                	addi	sp,sp,-32
2001305c:	ce22                	sw	s0,28(sp)
2001305e:	1000                	addi	s0,sp,32
20013060:	fea42623          	sw	a0,-20(s0)
/home/jw/Desktop/sifive-standalone-project/bsp/build/debug/./metal/machine.h:333
	if ((uintptr_t)cpu == (uintptr_t)&__metal_dt_cpu_0) {
20013064:	fec42703          	lw	a4,-20(s0)
20013068:	81418793          	addi	a5,gp,-2028 # 80000ab4 <__metal_dt_cpu_0>
2001306c:	00f71463          	bne	a4,a5,20013074 <__metal_driver_cpu_buserror+0x1a>
/home/jw/Desktop/sifive-standalone-project/bsp/build/debug/./metal/machine.h:334
		return NULL;
20013070:	4781                	li	a5,0
20013072:	a011                	j	20013076 <__metal_driver_cpu_buserror+0x1c>
/home/jw/Desktop/sifive-standalone-project/bsp/build/debug/./metal/machine.h:337
	}
	else {
		return NULL;
20013074:	4781                	li	a5,0
/home/jw/Desktop/sifive-standalone-project/bsp/build/debug/./metal/machine.h:339
	}
}
20013076:	853e                	mv	a0,a5
20013078:	4472                	lw	s0,28(sp)
2001307a:	6105                	addi	sp,sp,32
2001307c:	8082                	ret

2001307e <__metal_driver_cpu_get>:
__metal_driver_cpu_get():
/home/jw/Desktop/sifive-standalone-project/freedom-metal/src/drivers/riscv_cpu.c:25
extern void __metal_vector_table();
unsigned long long __metal_driver_cpu_mtime_get(struct metal_cpu *cpu);
int __metal_driver_cpu_mtimecmp_set(struct metal_cpu *cpu,
                                    unsigned long long time);

struct metal_cpu *__metal_driver_cpu_get(int hartid) {
2001307e:	1101                	addi	sp,sp,-32
20013080:	ce22                	sw	s0,28(sp)
20013082:	1000                	addi	s0,sp,32
20013084:	fea42623          	sw	a0,-20(s0)
/home/jw/Desktop/sifive-standalone-project/freedom-metal/src/drivers/riscv_cpu.c:26
    if (hartid < __METAL_DT_MAX_HARTS) {
20013088:	fec42783          	lw	a5,-20(s0)
2001308c:	00f04c63          	bgtz	a5,200130a4 <__metal_driver_cpu_get+0x26>
/home/jw/Desktop/sifive-standalone-project/freedom-metal/src/drivers/riscv_cpu.c:27
        return &(__metal_cpu_table[hartid]->cpu);
20013090:	800017b7          	lui	a5,0x80001
20013094:	fec42703          	lw	a4,-20(s0)
20013098:	070a                	slli	a4,a4,0x2
2001309a:	aa878793          	addi	a5,a5,-1368 # 80000aa8 <metal_segment_heap_target_end+0xfffff338>
2001309e:	97ba                	add	a5,a5,a4
200130a0:	439c                	lw	a5,0(a5)
200130a2:	a011                	j	200130a6 <__metal_driver_cpu_get+0x28>
/home/jw/Desktop/sifive-standalone-project/freedom-metal/src/drivers/riscv_cpu.c:29
    }
    return (struct metal_cpu *)NULL;
200130a4:	4781                	li	a5,0
/home/jw/Desktop/sifive-standalone-project/freedom-metal/src/drivers/riscv_cpu.c:30
}
200130a6:	853e                	mv	a0,a5
200130a8:	4472                	lw	s0,28(sp)
200130aa:	6105                	addi	sp,sp,32
200130ac:	8082                	ret

200130ae <__metal_myhart_id>:
__metal_myhart_id():
/home/jw/Desktop/sifive-standalone-project/freedom-metal/src/drivers/riscv_cpu.c:32

uintptr_t __metal_myhart_id(void) {
200130ae:	1101                	addi	sp,sp,-32
200130b0:	ce22                	sw	s0,28(sp)
200130b2:	1000                	addi	s0,sp,32
/home/jw/Desktop/sifive-standalone-project/freedom-metal/src/drivers/riscv_cpu.c:34
    uintptr_t myhart;
    __asm__ volatile("csrr %0, mhartid" : "=r"(myhart));
200130b4:	f14027f3          	csrr	a5,mhartid
200130b8:	fef42623          	sw	a5,-20(s0)
/home/jw/Desktop/sifive-standalone-project/freedom-metal/src/drivers/riscv_cpu.c:35
    return myhart;
200130bc:	fec42783          	lw	a5,-20(s0)
/home/jw/Desktop/sifive-standalone-project/freedom-metal/src/drivers/riscv_cpu.c:36
}
200130c0:	853e                	mv	a0,a5
200130c2:	4472                	lw	s0,28(sp)
200130c4:	6105                	addi	sp,sp,32
200130c6:	8082                	ret

200130c8 <__metal_interrupt_global_enable>:
__metal_interrupt_global_enable():
/home/jw/Desktop/sifive-standalone-project/freedom-metal/src/drivers/riscv_cpu.c:45
    for (ptr = base; ptr < (base + size); ptr++) {
        *ptr = 0;
    }
}

void __metal_interrupt_global_enable(void) {
200130c8:	1101                	addi	sp,sp,-32
200130ca:	ce22                	sw	s0,28(sp)
200130cc:	1000                	addi	s0,sp,32
/home/jw/Desktop/sifive-standalone-project/freedom-metal/src/drivers/riscv_cpu.c:47
    uintptr_t m;
    __asm__ volatile("csrrs %0, mstatus, %1"
200130ce:	47a1                	li	a5,8
200130d0:	3007a7f3          	csrrs	a5,mstatus,a5
200130d4:	fef42623          	sw	a5,-20(s0)
/home/jw/Desktop/sifive-standalone-project/freedom-metal/src/drivers/riscv_cpu.c:50
                     : "=r"(m)
                     : "r"(METAL_MIE_INTERRUPT));
}
200130d8:	0001                	nop
200130da:	4472                	lw	s0,28(sp)
200130dc:	6105                	addi	sp,sp,32
200130de:	8082                	ret

200130e0 <__metal_interrupt_global_disable>:
__metal_interrupt_global_disable():
/home/jw/Desktop/sifive-standalone-project/freedom-metal/src/drivers/riscv_cpu.c:52

void __metal_interrupt_global_disable(void) {
200130e0:	1101                	addi	sp,sp,-32
200130e2:	ce22                	sw	s0,28(sp)
200130e4:	1000                	addi	s0,sp,32
/home/jw/Desktop/sifive-standalone-project/freedom-metal/src/drivers/riscv_cpu.c:54
    uintptr_t m;
    __asm__ volatile("csrrc %0, mstatus, %1"
200130e6:	47a1                	li	a5,8
200130e8:	3007b7f3          	csrrc	a5,mstatus,a5
200130ec:	fef42623          	sw	a5,-20(s0)
/home/jw/Desktop/sifive-standalone-project/freedom-metal/src/drivers/riscv_cpu.c:57
                     : "=r"(m)
                     : "r"(METAL_MIE_INTERRUPT));
}
200130f0:	0001                	nop
200130f2:	4472                	lw	s0,28(sp)
200130f4:	6105                	addi	sp,sp,32
200130f6:	8082                	ret

200130f8 <__metal_interrupt_software_enable>:
__metal_interrupt_software_enable():
/home/jw/Desktop/sifive-standalone-project/freedom-metal/src/drivers/riscv_cpu.c:59

void __metal_interrupt_software_enable(void) {
200130f8:	1101                	addi	sp,sp,-32
200130fa:	ce22                	sw	s0,28(sp)
200130fc:	1000                	addi	s0,sp,32
/home/jw/Desktop/sifive-standalone-project/freedom-metal/src/drivers/riscv_cpu.c:61
    uintptr_t m;
    __asm__ volatile("csrrs %0, mie, %1"
200130fe:	47a1                	li	a5,8
20013100:	3047a7f3          	csrrs	a5,mie,a5
20013104:	fef42623          	sw	a5,-20(s0)
/home/jw/Desktop/sifive-standalone-project/freedom-metal/src/drivers/riscv_cpu.c:64
                     : "=r"(m)
                     : "r"(METAL_LOCAL_INTERRUPT_SW));
}
20013108:	0001                	nop
2001310a:	4472                	lw	s0,28(sp)
2001310c:	6105                	addi	sp,sp,32
2001310e:	8082                	ret

20013110 <__metal_interrupt_software_disable>:
__metal_interrupt_software_disable():
/home/jw/Desktop/sifive-standalone-project/freedom-metal/src/drivers/riscv_cpu.c:66

void __metal_interrupt_software_disable(void) {
20013110:	1101                	addi	sp,sp,-32
20013112:	ce22                	sw	s0,28(sp)
20013114:	1000                	addi	s0,sp,32
/home/jw/Desktop/sifive-standalone-project/freedom-metal/src/drivers/riscv_cpu.c:68
    uintptr_t m;
    __asm__ volatile("csrrc %0, mie, %1"
20013116:	47a1                	li	a5,8
20013118:	3047b7f3          	csrrc	a5,mie,a5
2001311c:	fef42623          	sw	a5,-20(s0)
/home/jw/Desktop/sifive-standalone-project/freedom-metal/src/drivers/riscv_cpu.c:71
                     : "=r"(m)
                     : "r"(METAL_LOCAL_INTERRUPT_SW));
}
20013120:	0001                	nop
20013122:	4472                	lw	s0,28(sp)
20013124:	6105                	addi	sp,sp,32
20013126:	8082                	ret

20013128 <__metal_interrupt_timer_enable>:
__metal_interrupt_timer_enable():
/home/jw/Desktop/sifive-standalone-project/freedom-metal/src/drivers/riscv_cpu.c:73

void __metal_interrupt_timer_enable(void) {
20013128:	1101                	addi	sp,sp,-32
2001312a:	ce22                	sw	s0,28(sp)
2001312c:	1000                	addi	s0,sp,32
/home/jw/Desktop/sifive-standalone-project/freedom-metal/src/drivers/riscv_cpu.c:75
    uintptr_t m;
    __asm__ volatile("csrrs %0, mie, %1"
2001312e:	08000793          	li	a5,128
20013132:	3047a7f3          	csrrs	a5,mie,a5
20013136:	fef42623          	sw	a5,-20(s0)
/home/jw/Desktop/sifive-standalone-project/freedom-metal/src/drivers/riscv_cpu.c:78
                     : "=r"(m)
                     : "r"(METAL_LOCAL_INTERRUPT_TMR));
}
2001313a:	0001                	nop
2001313c:	4472                	lw	s0,28(sp)
2001313e:	6105                	addi	sp,sp,32
20013140:	8082                	ret

20013142 <__metal_interrupt_timer_disable>:
__metal_interrupt_timer_disable():
/home/jw/Desktop/sifive-standalone-project/freedom-metal/src/drivers/riscv_cpu.c:80

void __metal_interrupt_timer_disable(void) {
20013142:	1101                	addi	sp,sp,-32
20013144:	ce22                	sw	s0,28(sp)
20013146:	1000                	addi	s0,sp,32
/home/jw/Desktop/sifive-standalone-project/freedom-metal/src/drivers/riscv_cpu.c:82
    uintptr_t m;
    __asm__ volatile("csrrc %0, mie, %1"
20013148:	08000793          	li	a5,128
2001314c:	3047b7f3          	csrrc	a5,mie,a5
20013150:	fef42623          	sw	a5,-20(s0)
/home/jw/Desktop/sifive-standalone-project/freedom-metal/src/drivers/riscv_cpu.c:85
                     : "=r"(m)
                     : "r"(METAL_LOCAL_INTERRUPT_TMR));
}
20013154:	0001                	nop
20013156:	4472                	lw	s0,28(sp)
20013158:	6105                	addi	sp,sp,32
2001315a:	8082                	ret

2001315c <__metal_interrupt_external_enable>:
__metal_interrupt_external_enable():
/home/jw/Desktop/sifive-standalone-project/freedom-metal/src/drivers/riscv_cpu.c:87

void __metal_interrupt_external_enable(void) {
2001315c:	1101                	addi	sp,sp,-32
2001315e:	ce22                	sw	s0,28(sp)
20013160:	1000                	addi	s0,sp,32
/home/jw/Desktop/sifive-standalone-project/freedom-metal/src/drivers/riscv_cpu.c:89
    uintptr_t m;
    __asm__ volatile("csrrs %0, mie, %1"
20013162:	6785                	lui	a5,0x1
20013164:	80078793          	addi	a5,a5,-2048 # 800 <__heap_size>
20013168:	3047a7f3          	csrrs	a5,mie,a5
2001316c:	fef42623          	sw	a5,-20(s0)
/home/jw/Desktop/sifive-standalone-project/freedom-metal/src/drivers/riscv_cpu.c:92
                     : "=r"(m)
                     : "r"(METAL_LOCAL_INTERRUPT_EXT));
}
20013170:	0001                	nop
20013172:	4472                	lw	s0,28(sp)
20013174:	6105                	addi	sp,sp,32
20013176:	8082                	ret

20013178 <__metal_interrupt_external_disable>:
__metal_interrupt_external_disable():
/home/jw/Desktop/sifive-standalone-project/freedom-metal/src/drivers/riscv_cpu.c:94

void __metal_interrupt_external_disable(void) {
20013178:	1101                	addi	sp,sp,-32
2001317a:	ce22                	sw	s0,28(sp)
2001317c:	1000                	addi	s0,sp,32
/home/jw/Desktop/sifive-standalone-project/freedom-metal/src/drivers/riscv_cpu.c:96
    unsigned long m;
    __asm__ volatile("csrrc %0, mie, %1"
2001317e:	6785                	lui	a5,0x1
20013180:	80078793          	addi	a5,a5,-2048 # 800 <__heap_size>
20013184:	3047b7f3          	csrrc	a5,mie,a5
20013188:	fef42623          	sw	a5,-20(s0)
/home/jw/Desktop/sifive-standalone-project/freedom-metal/src/drivers/riscv_cpu.c:99
                     : "=r"(m)
                     : "r"(METAL_LOCAL_INTERRUPT_EXT));
}
2001318c:	0001                	nop
2001318e:	4472                	lw	s0,28(sp)
20013190:	6105                	addi	sp,sp,32
20013192:	8082                	ret

20013194 <__metal_interrupt_local_enable>:
__metal_interrupt_local_enable():
/home/jw/Desktop/sifive-standalone-project/freedom-metal/src/drivers/riscv_cpu.c:101

void __metal_interrupt_local_enable(int id) {
20013194:	7179                	addi	sp,sp,-48
20013196:	d622                	sw	s0,44(sp)
20013198:	1800                	addi	s0,sp,48
2001319a:	fca42e23          	sw	a0,-36(s0)
/home/jw/Desktop/sifive-standalone-project/freedom-metal/src/drivers/riscv_cpu.c:102
    uintptr_t b = 1 << id;
2001319e:	fdc42783          	lw	a5,-36(s0)
200131a2:	4705                	li	a4,1
200131a4:	00f717b3          	sll	a5,a4,a5
200131a8:	fef42623          	sw	a5,-20(s0)
/home/jw/Desktop/sifive-standalone-project/freedom-metal/src/drivers/riscv_cpu.c:104
    uintptr_t m;
    __asm__ volatile("csrrs %0, mie, %1" : "=r"(m) : "r"(b));
200131ac:	fec42783          	lw	a5,-20(s0)
200131b0:	3047a7f3          	csrrs	a5,mie,a5
200131b4:	fef42423          	sw	a5,-24(s0)
/home/jw/Desktop/sifive-standalone-project/freedom-metal/src/drivers/riscv_cpu.c:105
}
200131b8:	0001                	nop
200131ba:	5432                	lw	s0,44(sp)
200131bc:	6145                	addi	sp,sp,48
200131be:	8082                	ret

200131c0 <__metal_interrupt_local_disable>:
__metal_interrupt_local_disable():
/home/jw/Desktop/sifive-standalone-project/freedom-metal/src/drivers/riscv_cpu.c:107

void __metal_interrupt_local_disable(int id) {
200131c0:	7179                	addi	sp,sp,-48
200131c2:	d622                	sw	s0,44(sp)
200131c4:	1800                	addi	s0,sp,48
200131c6:	fca42e23          	sw	a0,-36(s0)
/home/jw/Desktop/sifive-standalone-project/freedom-metal/src/drivers/riscv_cpu.c:108
    uintptr_t b = 1 << id;
200131ca:	fdc42783          	lw	a5,-36(s0)
200131ce:	4705                	li	a4,1
200131d0:	00f717b3          	sll	a5,a4,a5
200131d4:	fef42623          	sw	a5,-20(s0)
/home/jw/Desktop/sifive-standalone-project/freedom-metal/src/drivers/riscv_cpu.c:110
    uintptr_t m;
    __asm__ volatile("csrrc %0, mie, %1" : "=r"(m) : "r"(b));
200131d8:	fec42783          	lw	a5,-20(s0)
200131dc:	3047b7f3          	csrrc	a5,mie,a5
200131e0:	fef42423          	sw	a5,-24(s0)
/home/jw/Desktop/sifive-standalone-project/freedom-metal/src/drivers/riscv_cpu.c:111
}
200131e4:	0001                	nop
200131e6:	5432                	lw	s0,44(sp)
200131e8:	6145                	addi	sp,sp,48
200131ea:	8082                	ret

200131ec <__metal_default_exception_handler>:
__metal_default_exception_handler():
/home/jw/Desktop/sifive-standalone-project/freedom-metal/src/drivers/riscv_cpu.c:113

void __metal_default_exception_handler(struct metal_cpu *cpu, int ecode) {
200131ec:	1101                	addi	sp,sp,-32
200131ee:	ce06                	sw	ra,28(sp)
200131f0:	cc22                	sw	s0,24(sp)
200131f2:	1000                	addi	s0,sp,32
200131f4:	fea42623          	sw	a0,-20(s0)
200131f8:	feb42423          	sw	a1,-24(s0)
/home/jw/Desktop/sifive-standalone-project/freedom-metal/src/drivers/riscv_cpu.c:114
    metal_shutdown(100);
200131fc:	06400513          	li	a0,100
20013200:	575030ef          	jal	ra,20016f74 <metal_shutdown>

20013204 <__metal_default_interrupt_handler>:
__metal_default_interrupt_handler():
/home/jw/Desktop/sifive-standalone-project/freedom-metal/src/drivers/riscv_cpu.c:117
}

void __metal_default_interrupt_handler(int id, void *priv) {
20013204:	1101                	addi	sp,sp,-32
20013206:	ce06                	sw	ra,28(sp)
20013208:	cc22                	sw	s0,24(sp)
2001320a:	1000                	addi	s0,sp,32
2001320c:	fea42623          	sw	a0,-20(s0)
20013210:	feb42423          	sw	a1,-24(s0)
/home/jw/Desktop/sifive-standalone-project/freedom-metal/src/drivers/riscv_cpu.c:118
    metal_shutdown(200);
20013214:	0c800513          	li	a0,200
20013218:	55d030ef          	jal	ra,20016f74 <metal_shutdown>

2001321c <metal_interrupt_vector_handler>:
metal_interrupt_vector_handler():
/home/jw/Desktop/sifive-standalone-project/freedom-metal/src/drivers/riscv_cpu.c:122
}

/* The metal_interrupt_vector_handler() function can be redefined. */
void __attribute__((weak, interrupt)) metal_interrupt_vector_handler(void) {
2001321c:	715d                	addi	sp,sp,-80
2001321e:	c686                	sw	ra,76(sp)
20013220:	c496                	sw	t0,72(sp)
20013222:	c29a                	sw	t1,68(sp)
20013224:	c09e                	sw	t2,64(sp)
20013226:	de22                	sw	s0,60(sp)
20013228:	dc2a                	sw	a0,56(sp)
2001322a:	da2e                	sw	a1,52(sp)
2001322c:	d832                	sw	a2,48(sp)
2001322e:	d636                	sw	a3,44(sp)
20013230:	d43a                	sw	a4,40(sp)
20013232:	d23e                	sw	a5,36(sp)
20013234:	d042                	sw	a6,32(sp)
20013236:	ce46                	sw	a7,28(sp)
20013238:	cc72                	sw	t3,24(sp)
2001323a:	ca76                	sw	t4,20(sp)
2001323c:	c87a                	sw	t5,16(sp)
2001323e:	c67e                	sw	t6,12(sp)
20013240:	0880                	addi	s0,sp,80
/home/jw/Desktop/sifive-standalone-project/freedom-metal/src/drivers/riscv_cpu.c:123
    metal_shutdown(300);
20013242:	12c00513          	li	a0,300
20013246:	52f030ef          	jal	ra,20016f74 <metal_shutdown>

2001324a <metal_software_interrupt_vector_handler>:
metal_software_interrupt_vector_handler():
/home/jw/Desktop/sifive-standalone-project/freedom-metal/src/drivers/riscv_cpu.c:128
}

/* The metal_software_interrupt_vector_handler() function can be redefined. */
void __attribute__((weak, interrupt))
metal_software_interrupt_vector_handler(void) {
2001324a:	711d                	addi	sp,sp,-96
2001324c:	ce86                	sw	ra,92(sp)
2001324e:	cc96                	sw	t0,88(sp)
20013250:	ca9a                	sw	t1,84(sp)
20013252:	c89e                	sw	t2,80(sp)
20013254:	c6a2                	sw	s0,76(sp)
20013256:	c4aa                	sw	a0,72(sp)
20013258:	c2ae                	sw	a1,68(sp)
2001325a:	c0b2                	sw	a2,64(sp)
2001325c:	de36                	sw	a3,60(sp)
2001325e:	dc3a                	sw	a4,56(sp)
20013260:	da3e                	sw	a5,52(sp)
20013262:	d842                	sw	a6,48(sp)
20013264:	d646                	sw	a7,44(sp)
20013266:	d472                	sw	t3,40(sp)
20013268:	d276                	sw	t4,36(sp)
2001326a:	d07a                	sw	t5,32(sp)
2001326c:	ce7e                	sw	t6,28(sp)
2001326e:	1080                	addi	s0,sp,96
/home/jw/Desktop/sifive-standalone-project/freedom-metal/src/drivers/riscv_cpu.c:129
    __METAL_IRQ_VECTOR_HANDLER(METAL_INTERRUPT_ID_SW);
20013270:	3d3d                	jal	200130ae <__metal_myhart_id>
20013272:	872a                	mv	a4,a0
20013274:	800017b7          	lui	a5,0x80001
20013278:	070a                	slli	a4,a4,0x2
2001327a:	aa878793          	addi	a5,a5,-1368 # 80000aa8 <metal_segment_heap_target_end+0xfffff338>
2001327e:	97ba                	add	a5,a5,a4
20013280:	439c                	lw	a5,0(a5)
20013282:	faf42623          	sw	a5,-84(s0)
20013286:	fac42783          	lw	a5,-84(s0)
2001328a:	c785                	beqz	a5,200132b2 <metal_software_interrupt_vector_handler+0x68>
/home/jw/Desktop/sifive-standalone-project/freedom-metal/src/drivers/riscv_cpu.c:129 (discriminator 1)
2001328c:	fac42503          	lw	a0,-84(s0)
20013290:	3345                	jal	20013030 <__metal_driver_cpu_interrupt_controller>
20013292:	faa42423          	sw	a0,-88(s0)
20013296:	fa842783          	lw	a5,-88(s0)
2001329a:	0e07a783          	lw	a5,224(a5)
2001329e:	faf42223          	sw	a5,-92(s0)
200132a2:	fa842783          	lw	a5,-88(s0)
200132a6:	0d87a783          	lw	a5,216(a5)
200132aa:	fa442583          	lw	a1,-92(s0)
200132ae:	450d                	li	a0,3
200132b0:	9782                	jalr	a5
/home/jw/Desktop/sifive-standalone-project/freedom-metal/src/drivers/riscv_cpu.c:130
}
200132b2:	0001                	nop
200132b4:	40f6                	lw	ra,92(sp)
200132b6:	42e6                	lw	t0,88(sp)
200132b8:	4356                	lw	t1,84(sp)
200132ba:	43c6                	lw	t2,80(sp)
200132bc:	4436                	lw	s0,76(sp)
200132be:	4526                	lw	a0,72(sp)
200132c0:	4596                	lw	a1,68(sp)
200132c2:	4606                	lw	a2,64(sp)
200132c4:	56f2                	lw	a3,60(sp)
200132c6:	5762                	lw	a4,56(sp)
200132c8:	57d2                	lw	a5,52(sp)
200132ca:	5842                	lw	a6,48(sp)
200132cc:	58b2                	lw	a7,44(sp)
200132ce:	5e22                	lw	t3,40(sp)
200132d0:	5e92                	lw	t4,36(sp)
200132d2:	5f02                	lw	t5,32(sp)
200132d4:	4ff2                	lw	t6,28(sp)
200132d6:	6125                	addi	sp,sp,96
200132d8:	30200073          	mret

200132dc <__metal_default_sw_handler>:
__metal_default_sw_handler():
/home/jw/Desktop/sifive-standalone-project/freedom-metal/src/drivers/riscv_cpu.c:132

void __metal_default_sw_handler(int id, void *priv) {
200132dc:	7179                	addi	sp,sp,-48
200132de:	d606                	sw	ra,44(sp)
200132e0:	d422                	sw	s0,40(sp)
200132e2:	1800                	addi	s0,sp,48
200132e4:	fca42e23          	sw	a0,-36(s0)
200132e8:	fcb42c23          	sw	a1,-40(s0)
/home/jw/Desktop/sifive-standalone-project/freedom-metal/src/drivers/riscv_cpu.c:135
    uintptr_t mcause;
    struct __metal_driver_riscv_cpu_intc *intc;
    struct __metal_driver_cpu *cpu = __metal_cpu_table[__metal_myhart_id()];
200132ec:	33c9                	jal	200130ae <__metal_myhart_id>
200132ee:	872a                	mv	a4,a0
200132f0:	800017b7          	lui	a5,0x80001
200132f4:	070a                	slli	a4,a4,0x2
200132f6:	aa878793          	addi	a5,a5,-1368 # 80000aa8 <metal_segment_heap_target_end+0xfffff338>
200132fa:	97ba                	add	a5,a5,a4
200132fc:	439c                	lw	a5,0(a5)
200132fe:	fef42623          	sw	a5,-20(s0)
/home/jw/Desktop/sifive-standalone-project/freedom-metal/src/drivers/riscv_cpu.c:137

    __asm__ volatile("csrr %0, mcause" : "=r"(mcause));
20013302:	342027f3          	csrr	a5,mcause
20013306:	fef42423          	sw	a5,-24(s0)
/home/jw/Desktop/sifive-standalone-project/freedom-metal/src/drivers/riscv_cpu.c:138
    if (cpu) {
2001330a:	fec42783          	lw	a5,-20(s0)
2001330e:	c795                	beqz	a5,2001333a <__metal_default_sw_handler+0x5e>
/home/jw/Desktop/sifive-standalone-project/freedom-metal/src/drivers/riscv_cpu.c:140
        intc = (struct __metal_driver_riscv_cpu_intc *)
            __metal_driver_cpu_interrupt_controller((struct metal_cpu *)cpu);
20013310:	fec42503          	lw	a0,-20(s0)
20013314:	3b31                	jal	20013030 <__metal_driver_cpu_interrupt_controller>
20013316:	fea42223          	sw	a0,-28(s0)
/home/jw/Desktop/sifive-standalone-project/freedom-metal/src/drivers/riscv_cpu.c:141
        intc->metal_exception_table[mcause & METAL_MCAUSE_CAUSE](
2001331a:	fe842783          	lw	a5,-24(s0)
2001331e:	3ff7f793          	andi	a5,a5,1023
20013322:	fe442703          	lw	a4,-28(s0)
20013326:	0e878793          	addi	a5,a5,232
2001332a:	078a                	slli	a5,a5,0x2
2001332c:	97ba                	add	a5,a5,a4
2001332e:	439c                	lw	a5,0(a5)
20013330:	fdc42583          	lw	a1,-36(s0)
20013334:	fec42503          	lw	a0,-20(s0)
20013338:	9782                	jalr	a5
/home/jw/Desktop/sifive-standalone-project/freedom-metal/src/drivers/riscv_cpu.c:144
            (struct metal_cpu *)cpu, id);
    }
}
2001333a:	0001                	nop
2001333c:	50b2                	lw	ra,44(sp)
2001333e:	5422                	lw	s0,40(sp)
20013340:	6145                	addi	sp,sp,48
20013342:	8082                	ret

20013344 <metal_timer_interrupt_vector_handler>:
metal_timer_interrupt_vector_handler():
/home/jw/Desktop/sifive-standalone-project/freedom-metal/src/drivers/riscv_cpu.c:148

/* The metal_timer_interrupt_vector_handler() function can be redefined. */
void __attribute__((weak, interrupt))
metal_timer_interrupt_vector_handler(void) {
20013344:	711d                	addi	sp,sp,-96
20013346:	ce86                	sw	ra,92(sp)
20013348:	cc96                	sw	t0,88(sp)
2001334a:	ca9a                	sw	t1,84(sp)
2001334c:	c89e                	sw	t2,80(sp)
2001334e:	c6a2                	sw	s0,76(sp)
20013350:	c4aa                	sw	a0,72(sp)
20013352:	c2ae                	sw	a1,68(sp)
20013354:	c0b2                	sw	a2,64(sp)
20013356:	de36                	sw	a3,60(sp)
20013358:	dc3a                	sw	a4,56(sp)
2001335a:	da3e                	sw	a5,52(sp)
2001335c:	d842                	sw	a6,48(sp)
2001335e:	d646                	sw	a7,44(sp)
20013360:	d472                	sw	t3,40(sp)
20013362:	d276                	sw	t4,36(sp)
20013364:	d07a                	sw	t5,32(sp)
20013366:	ce7e                	sw	t6,28(sp)
20013368:	1080                	addi	s0,sp,96
/home/jw/Desktop/sifive-standalone-project/freedom-metal/src/drivers/riscv_cpu.c:149
    __METAL_IRQ_VECTOR_HANDLER(METAL_INTERRUPT_ID_TMR);
2001336a:	3391                	jal	200130ae <__metal_myhart_id>
2001336c:	872a                	mv	a4,a0
2001336e:	800017b7          	lui	a5,0x80001
20013372:	070a                	slli	a4,a4,0x2
20013374:	aa878793          	addi	a5,a5,-1368 # 80000aa8 <metal_segment_heap_target_end+0xfffff338>
20013378:	97ba                	add	a5,a5,a4
2001337a:	439c                	lw	a5,0(a5)
2001337c:	faf42623          	sw	a5,-84(s0)
20013380:	fac42783          	lw	a5,-84(s0)
20013384:	c785                	beqz	a5,200133ac <metal_timer_interrupt_vector_handler+0x68>
/home/jw/Desktop/sifive-standalone-project/freedom-metal/src/drivers/riscv_cpu.c:149 (discriminator 1)
20013386:	fac42503          	lw	a0,-84(s0)
2001338a:	315d                	jal	20013030 <__metal_driver_cpu_interrupt_controller>
2001338c:	faa42423          	sw	a0,-88(s0)
20013390:	fa842783          	lw	a5,-88(s0)
20013394:	1407a783          	lw	a5,320(a5)
20013398:	faf42223          	sw	a5,-92(s0)
2001339c:	fa842783          	lw	a5,-88(s0)
200133a0:	1387a783          	lw	a5,312(a5)
200133a4:	fa442583          	lw	a1,-92(s0)
200133a8:	451d                	li	a0,7
200133aa:	9782                	jalr	a5
/home/jw/Desktop/sifive-standalone-project/freedom-metal/src/drivers/riscv_cpu.c:150
}
200133ac:	0001                	nop
200133ae:	40f6                	lw	ra,92(sp)
200133b0:	42e6                	lw	t0,88(sp)
200133b2:	4356                	lw	t1,84(sp)
200133b4:	43c6                	lw	t2,80(sp)
200133b6:	4436                	lw	s0,76(sp)
200133b8:	4526                	lw	a0,72(sp)
200133ba:	4596                	lw	a1,68(sp)
200133bc:	4606                	lw	a2,64(sp)
200133be:	56f2                	lw	a3,60(sp)
200133c0:	5762                	lw	a4,56(sp)
200133c2:	57d2                	lw	a5,52(sp)
200133c4:	5842                	lw	a6,48(sp)
200133c6:	58b2                	lw	a7,44(sp)
200133c8:	5e22                	lw	t3,40(sp)
200133ca:	5e92                	lw	t4,36(sp)
200133cc:	5f02                	lw	t5,32(sp)
200133ce:	4ff2                	lw	t6,28(sp)
200133d0:	6125                	addi	sp,sp,96
200133d2:	30200073          	mret

200133d6 <__metal_default_beu_handler>:
__metal_default_beu_handler():
/home/jw/Desktop/sifive-standalone-project/freedom-metal/src/drivers/riscv_cpu.c:152

void __metal_default_beu_handler(int id, void *priv) {}
200133d6:	1101                	addi	sp,sp,-32
200133d8:	ce22                	sw	s0,28(sp)
200133da:	1000                	addi	s0,sp,32
200133dc:	fea42623          	sw	a0,-20(s0)
200133e0:	feb42423          	sw	a1,-24(s0)
200133e4:	0001                	nop
200133e6:	4472                	lw	s0,28(sp)
200133e8:	6105                	addi	sp,sp,32
200133ea:	8082                	ret

200133ec <__metal_default_timer_handler>:
__metal_default_timer_handler():
/home/jw/Desktop/sifive-standalone-project/freedom-metal/src/drivers/riscv_cpu.c:154

void __metal_default_timer_handler(int id, void *priv) {
200133ec:	7179                	addi	sp,sp,-48
200133ee:	d606                	sw	ra,44(sp)
200133f0:	d422                	sw	s0,40(sp)
200133f2:	1800                	addi	s0,sp,48
200133f4:	fca42e23          	sw	a0,-36(s0)
200133f8:	fcb42c23          	sw	a1,-40(s0)
/home/jw/Desktop/sifive-standalone-project/freedom-metal/src/drivers/riscv_cpu.c:155
    struct metal_cpu *cpu = __metal_driver_cpu_get(__metal_myhart_id());
200133fc:	394d                	jal	200130ae <__metal_myhart_id>
200133fe:	87aa                	mv	a5,a0
20013400:	853e                	mv	a0,a5
20013402:	39b5                	jal	2001307e <__metal_driver_cpu_get>
20013404:	fea42623          	sw	a0,-20(s0)
/home/jw/Desktop/sifive-standalone-project/freedom-metal/src/drivers/riscv_cpu.c:156
    unsigned long long time = __metal_driver_cpu_mtime_get(cpu);
20013408:	fec42503          	lw	a0,-20(s0)
2001340c:	294010ef          	jal	ra,200146a0 <__metal_driver_cpu_mtime_get>
20013410:	fea42023          	sw	a0,-32(s0)
20013414:	feb42223          	sw	a1,-28(s0)
/home/jw/Desktop/sifive-standalone-project/freedom-metal/src/drivers/riscv_cpu.c:159

    /* Set a 10 cycle timer */
    __metal_driver_cpu_mtimecmp_set(cpu, time + 10);
20013418:	fe042703          	lw	a4,-32(s0)
2001341c:	fe442783          	lw	a5,-28(s0)
20013420:	4529                	li	a0,10
20013422:	4581                	li	a1,0
20013424:	00a70633          	add	a2,a4,a0
20013428:	8832                	mv	a6,a2
2001342a:	00e83833          	sltu	a6,a6,a4
2001342e:	00b786b3          	add	a3,a5,a1
20013432:	00d807b3          	add	a5,a6,a3
20013436:	86be                	mv	a3,a5
20013438:	8732                	mv	a4,a2
2001343a:	87b6                	mv	a5,a3
2001343c:	85ba                	mv	a1,a4
2001343e:	863e                	mv	a2,a5
20013440:	fec42503          	lw	a0,-20(s0)
20013444:	2c2010ef          	jal	ra,20014706 <__metal_driver_cpu_mtimecmp_set>
/home/jw/Desktop/sifive-standalone-project/freedom-metal/src/drivers/riscv_cpu.c:160
}
20013448:	0001                	nop
2001344a:	50b2                	lw	ra,44(sp)
2001344c:	5422                	lw	s0,40(sp)
2001344e:	6145                	addi	sp,sp,48
20013450:	8082                	ret
	...

20013480 <__metal_exception_handler>:
__metal_exception_handler():
/home/jw/Desktop/sifive-standalone-project/freedom-metal/src/drivers/riscv_cpu.c:169
metal_external_interrupt_vector_handler(void) {
    __METAL_IRQ_VECTOR_HANDLER(METAL_INTERRUPT_ID_EXT);
}

void __metal_exception_handler(void) __attribute__((interrupt, aligned(128)));
void __metal_exception_handler(void) {
20013480:	7119                	addi	sp,sp,-128
20013482:	de86                	sw	ra,124(sp)
20013484:	dc96                	sw	t0,120(sp)
20013486:	da9a                	sw	t1,116(sp)
20013488:	d89e                	sw	t2,112(sp)
2001348a:	d6a2                	sw	s0,108(sp)
2001348c:	d4aa                	sw	a0,104(sp)
2001348e:	d2ae                	sw	a1,100(sp)
20013490:	d0b2                	sw	a2,96(sp)
20013492:	ceb6                	sw	a3,92(sp)
20013494:	ccba                	sw	a4,88(sp)
20013496:	cabe                	sw	a5,84(sp)
20013498:	c8c2                	sw	a6,80(sp)
2001349a:	c6c6                	sw	a7,76(sp)
2001349c:	c4f2                	sw	t3,72(sp)
2001349e:	c2f6                	sw	t4,68(sp)
200134a0:	c0fa                	sw	t5,64(sp)
200134a2:	de7e                	sw	t6,60(sp)
200134a4:	0100                	addi	s0,sp,128
/home/jw/Desktop/sifive-standalone-project/freedom-metal/src/drivers/riscv_cpu.c:174
    int id;
    void *priv;
    uintptr_t mcause, mepc, mtval, mtvec;
    struct __metal_driver_riscv_cpu_intc *intc;
    struct __metal_driver_cpu *cpu = __metal_cpu_table[__metal_myhart_id()];
200134a6:	3121                	jal	200130ae <__metal_myhart_id>
200134a8:	872a                	mv	a4,a0
200134aa:	800017b7          	lui	a5,0x80001
200134ae:	070a                	slli	a4,a4,0x2
200134b0:	aa878793          	addi	a5,a5,-1368 # 80000aa8 <metal_segment_heap_target_end+0xfffff338>
200134b4:	97ba                	add	a5,a5,a4
200134b6:	439c                	lw	a5,0(a5)
200134b8:	faf42623          	sw	a5,-84(s0)
/home/jw/Desktop/sifive-standalone-project/freedom-metal/src/drivers/riscv_cpu.c:176

    __asm__ volatile("csrr %0, mcause" : "=r"(mcause));
200134bc:	342027f3          	csrr	a5,mcause
200134c0:	faf42423          	sw	a5,-88(s0)
/home/jw/Desktop/sifive-standalone-project/freedom-metal/src/drivers/riscv_cpu.c:177
    __asm__ volatile("csrr %0, mepc" : "=r"(mepc));
200134c4:	341027f3          	csrr	a5,mepc
200134c8:	faf42223          	sw	a5,-92(s0)
/home/jw/Desktop/sifive-standalone-project/freedom-metal/src/drivers/riscv_cpu.c:178
    __asm__ volatile("csrr %0, mtval" : "=r"(mtval));
200134cc:	343027f3          	csrr	a5,mtval
200134d0:	faf42023          	sw	a5,-96(s0)
/home/jw/Desktop/sifive-standalone-project/freedom-metal/src/drivers/riscv_cpu.c:179
    __asm__ volatile("csrr %0, mtvec" : "=r"(mtvec));
200134d4:	305027f3          	csrr	a5,mtvec
200134d8:	f8f42e23          	sw	a5,-100(s0)
/home/jw/Desktop/sifive-standalone-project/freedom-metal/src/drivers/riscv_cpu.c:181

    if (cpu) {
200134dc:	fac42783          	lw	a5,-84(s0)
200134e0:	cbfd                	beqz	a5,200135d6 <__metal_exception_handler+0x156>
/home/jw/Desktop/sifive-standalone-project/freedom-metal/src/drivers/riscv_cpu.c:183
        intc = (struct __metal_driver_riscv_cpu_intc *)
            __metal_driver_cpu_interrupt_controller((struct metal_cpu *)cpu);
200134e2:	fac42503          	lw	a0,-84(s0)
200134e6:	b4bff0ef          	jal	ra,20013030 <__metal_driver_cpu_interrupt_controller>
200134ea:	f8a42c23          	sw	a0,-104(s0)
/home/jw/Desktop/sifive-standalone-project/freedom-metal/src/drivers/riscv_cpu.c:184
        id = mcause & METAL_MCAUSE_CAUSE;
200134ee:	fa842783          	lw	a5,-88(s0)
200134f2:	3ff7f793          	andi	a5,a5,1023
200134f6:	f8f42a23          	sw	a5,-108(s0)
/home/jw/Desktop/sifive-standalone-project/freedom-metal/src/drivers/riscv_cpu.c:185
        if (mcause & METAL_MCAUSE_INTR) {
200134fa:	fa842783          	lw	a5,-88(s0)
200134fe:	0a07de63          	bgez	a5,200135ba <__metal_exception_handler+0x13a>
/home/jw/Desktop/sifive-standalone-project/freedom-metal/src/drivers/riscv_cpu.c:186
            if (id == METAL_INTERRUPT_ID_BEU) {
20013502:	f9442703          	lw	a4,-108(s0)
20013506:	08000793          	li	a5,128
2001350a:	02f71263          	bne	a4,a5,2001352e <__metal_exception_handler+0xae>
/home/jw/Desktop/sifive-standalone-project/freedom-metal/src/drivers/riscv_cpu.c:187
                priv = intc->metal_int_beu.exint_data;
2001350e:	f9842783          	lw	a5,-104(s0)
20013512:	3987a783          	lw	a5,920(a5)
20013516:	f8f42623          	sw	a5,-116(s0)
/home/jw/Desktop/sifive-standalone-project/freedom-metal/src/drivers/riscv_cpu.c:188
                intc->metal_int_beu.handler(id, priv);
2001351a:	f9842783          	lw	a5,-104(s0)
2001351e:	3907a783          	lw	a5,912(a5)
20013522:	f8c42583          	lw	a1,-116(s0)
20013526:	f9442503          	lw	a0,-108(s0)
2001352a:	9782                	jalr	a5
/home/jw/Desktop/sifive-standalone-project/freedom-metal/src/drivers/riscv_cpu.c:189
                return;
2001352c:	a06d                	j	200135d6 <__metal_exception_handler+0x156>
/home/jw/Desktop/sifive-standalone-project/freedom-metal/src/drivers/riscv_cpu.c:191
            }
            if ((id < METAL_INTERRUPT_ID_CSW) ||
2001352e:	f9442703          	lw	a4,-108(s0)
20013532:	47ad                	li	a5,11
20013534:	00e7d763          	bge	a5,a4,20013542 <__metal_exception_handler+0xc2>
/home/jw/Desktop/sifive-standalone-project/freedom-metal/src/drivers/riscv_cpu.c:192 (discriminator 1)
                ((mtvec & METAL_MTVEC_MASK) == METAL_MTVEC_DIRECT)) {
20013538:	f9c42783          	lw	a5,-100(s0)
2001353c:	03f7f793          	andi	a5,a5,63
/home/jw/Desktop/sifive-standalone-project/freedom-metal/src/drivers/riscv_cpu.c:191 (discriminator 1)
            if ((id < METAL_INTERRUPT_ID_CSW) ||
20013540:	ef9d                	bnez	a5,2001357e <__metal_exception_handler+0xfe>
/home/jw/Desktop/sifive-standalone-project/freedom-metal/src/drivers/riscv_cpu.c:193
                priv = intc->metal_int_table[id].exint_data;
20013542:	f9842683          	lw	a3,-104(s0)
20013546:	f9442703          	lw	a4,-108(s0)
2001354a:	87ba                	mv	a5,a4
2001354c:	0786                	slli	a5,a5,0x1
2001354e:	97ba                	add	a5,a5,a4
20013550:	078e                	slli	a5,a5,0x3
20013552:	97b6                	add	a5,a5,a3
20013554:	0987a783          	lw	a5,152(a5)
20013558:	f8f42623          	sw	a5,-116(s0)
/home/jw/Desktop/sifive-standalone-project/freedom-metal/src/drivers/riscv_cpu.c:194
                intc->metal_int_table[id].handler(id, priv);
2001355c:	f9842683          	lw	a3,-104(s0)
20013560:	f9442703          	lw	a4,-108(s0)
20013564:	87ba                	mv	a5,a4
20013566:	0786                	slli	a5,a5,0x1
20013568:	97ba                	add	a5,a5,a4
2001356a:	078e                	slli	a5,a5,0x3
2001356c:	97b6                	add	a5,a5,a3
2001356e:	0907a783          	lw	a5,144(a5)
20013572:	f8c42583          	lw	a1,-116(s0)
20013576:	f9442503          	lw	a0,-108(s0)
2001357a:	9782                	jalr	a5
/home/jw/Desktop/sifive-standalone-project/freedom-metal/src/drivers/riscv_cpu.c:195
                return;
2001357c:	a8a9                	j	200135d6 <__metal_exception_handler+0x156>
/home/jw/Desktop/sifive-standalone-project/freedom-metal/src/drivers/riscv_cpu.c:197
            }
            if ((mtvec & METAL_MTVEC_MASK) == METAL_MTVEC_CLIC) {
2001357e:	f9c42783          	lw	a5,-100(s0)
20013582:	03f7f713          	andi	a4,a5,63
20013586:	4789                	li	a5,2
20013588:	04f71763          	bne	a4,a5,200135d6 <__metal_exception_handler+0x156>
/home/jw/Desktop/sifive-standalone-project/freedom-metal/src/drivers/riscv_cpu.c:201
                uintptr_t mtvt;
                metal_interrupt_handler_t mtvt_handler;

                __asm__ volatile("csrr %0, 0x307" : "=r"(mtvt));
2001358c:	307027f3          	csrr	a5,mtvt
20013590:	f8f42823          	sw	a5,-112(s0)
/home/jw/Desktop/sifive-standalone-project/freedom-metal/src/drivers/riscv_cpu.c:202
                priv = intc->metal_int_table[METAL_INTERRUPT_ID_SW].sub_int;
20013594:	f9842783          	lw	a5,-104(s0)
20013598:	0dc7a783          	lw	a5,220(a5)
2001359c:	f8f42623          	sw	a5,-116(s0)
/home/jw/Desktop/sifive-standalone-project/freedom-metal/src/drivers/riscv_cpu.c:203
                mtvt_handler = (metal_interrupt_handler_t) * (uintptr_t *)mtvt;
200135a0:	f9042783          	lw	a5,-112(s0)
200135a4:	439c                	lw	a5,0(a5)
200135a6:	f8f42423          	sw	a5,-120(s0)
/home/jw/Desktop/sifive-standalone-project/freedom-metal/src/drivers/riscv_cpu.c:204
                mtvt_handler(id, priv);
200135aa:	f8842783          	lw	a5,-120(s0)
200135ae:	f8c42583          	lw	a1,-116(s0)
200135b2:	f9442503          	lw	a0,-108(s0)
200135b6:	9782                	jalr	a5
/home/jw/Desktop/sifive-standalone-project/freedom-metal/src/drivers/riscv_cpu.c:205
                return;
200135b8:	a839                	j	200135d6 <__metal_exception_handler+0x156>
/home/jw/Desktop/sifive-standalone-project/freedom-metal/src/drivers/riscv_cpu.c:208
            }
        } else {
            intc->metal_exception_table[id]((struct metal_cpu *)cpu, id);
200135ba:	f9842703          	lw	a4,-104(s0)
200135be:	f9442783          	lw	a5,-108(s0)
200135c2:	0e878793          	addi	a5,a5,232
200135c6:	078a                	slli	a5,a5,0x2
200135c8:	97ba                	add	a5,a5,a4
200135ca:	439c                	lw	a5,0(a5)
200135cc:	f9442583          	lw	a1,-108(s0)
200135d0:	fac42503          	lw	a0,-84(s0)
200135d4:	9782                	jalr	a5
/home/jw/Desktop/sifive-standalone-project/freedom-metal/src/drivers/riscv_cpu.c:211
        }
    }
}
200135d6:	50f6                	lw	ra,124(sp)
200135d8:	52e6                	lw	t0,120(sp)
200135da:	5356                	lw	t1,116(sp)
200135dc:	53c6                	lw	t2,112(sp)
200135de:	5436                	lw	s0,108(sp)
200135e0:	5526                	lw	a0,104(sp)
200135e2:	5596                	lw	a1,100(sp)
200135e4:	5606                	lw	a2,96(sp)
200135e6:	46f6                	lw	a3,92(sp)
200135e8:	4766                	lw	a4,88(sp)
200135ea:	47d6                	lw	a5,84(sp)
200135ec:	4846                	lw	a6,80(sp)
200135ee:	48b6                	lw	a7,76(sp)
200135f0:	4e26                	lw	t3,72(sp)
200135f2:	4e96                	lw	t4,68(sp)
200135f4:	4f06                	lw	t5,64(sp)
200135f6:	5ff2                	lw	t6,60(sp)
200135f8:	6109                	addi	sp,sp,128
200135fa:	30200073          	mret
	...

20013678 <metal_lc0_interrupt_vector_handler>:
metal_lc0_interrupt_vector_handler():
/home/jw/Desktop/sifive-standalone-project/freedom-metal/src/drivers/riscv_cpu.c:214

/* The metal_lc0_interrupt_vector_handler() function can be redefined. */
void __attribute__((weak, interrupt)) metal_lc0_interrupt_vector_handler(void) {
20013678:	711d                	addi	sp,sp,-96
2001367a:	ce86                	sw	ra,92(sp)
2001367c:	cc96                	sw	t0,88(sp)
2001367e:	ca9a                	sw	t1,84(sp)
20013680:	c89e                	sw	t2,80(sp)
20013682:	c6a2                	sw	s0,76(sp)
20013684:	c4aa                	sw	a0,72(sp)
20013686:	c2ae                	sw	a1,68(sp)
20013688:	c0b2                	sw	a2,64(sp)
2001368a:	de36                	sw	a3,60(sp)
2001368c:	dc3a                	sw	a4,56(sp)
2001368e:	da3e                	sw	a5,52(sp)
20013690:	d842                	sw	a6,48(sp)
20013692:	d646                	sw	a7,44(sp)
20013694:	d472                	sw	t3,40(sp)
20013696:	d276                	sw	t4,36(sp)
20013698:	d07a                	sw	t5,32(sp)
2001369a:	ce7e                	sw	t6,28(sp)
2001369c:	1080                	addi	s0,sp,96
/home/jw/Desktop/sifive-standalone-project/freedom-metal/src/drivers/riscv_cpu.c:215
    __METAL_IRQ_VECTOR_HANDLER(METAL_INTERRUPT_ID_LC0);
2001369e:	a11ff0ef          	jal	ra,200130ae <__metal_myhart_id>
200136a2:	872a                	mv	a4,a0
200136a4:	800017b7          	lui	a5,0x80001
200136a8:	070a                	slli	a4,a4,0x2
200136aa:	aa878793          	addi	a5,a5,-1368 # 80000aa8 <metal_segment_heap_target_end+0xfffff338>
200136ae:	97ba                	add	a5,a5,a4
200136b0:	439c                	lw	a5,0(a5)
200136b2:	faf42623          	sw	a5,-84(s0)
200136b6:	fac42783          	lw	a5,-84(s0)
200136ba:	c78d                	beqz	a5,200136e4 <metal_lc0_interrupt_vector_handler+0x6c>
/home/jw/Desktop/sifive-standalone-project/freedom-metal/src/drivers/riscv_cpu.c:215 (discriminator 1)
200136bc:	fac42503          	lw	a0,-84(s0)
200136c0:	971ff0ef          	jal	ra,20013030 <__metal_driver_cpu_interrupt_controller>
200136c4:	faa42423          	sw	a0,-88(s0)
200136c8:	fa842783          	lw	a5,-88(s0)
200136cc:	2187a783          	lw	a5,536(a5)
200136d0:	faf42223          	sw	a5,-92(s0)
200136d4:	fa842783          	lw	a5,-88(s0)
200136d8:	2107a783          	lw	a5,528(a5)
200136dc:	fa442583          	lw	a1,-92(s0)
200136e0:	4541                	li	a0,16
200136e2:	9782                	jalr	a5
/home/jw/Desktop/sifive-standalone-project/freedom-metal/src/drivers/riscv_cpu.c:216
}
200136e4:	0001                	nop
200136e6:	40f6                	lw	ra,92(sp)
200136e8:	42e6                	lw	t0,88(sp)
200136ea:	4356                	lw	t1,84(sp)
200136ec:	43c6                	lw	t2,80(sp)
200136ee:	4436                	lw	s0,76(sp)
200136f0:	4526                	lw	a0,72(sp)
200136f2:	4596                	lw	a1,68(sp)
200136f4:	4606                	lw	a2,64(sp)
200136f6:	56f2                	lw	a3,60(sp)
200136f8:	5762                	lw	a4,56(sp)
200136fa:	57d2                	lw	a5,52(sp)
200136fc:	5842                	lw	a6,48(sp)
200136fe:	58b2                	lw	a7,44(sp)
20013700:	5e22                	lw	t3,40(sp)
20013702:	5e92                	lw	t4,36(sp)
20013704:	5f02                	lw	t5,32(sp)
20013706:	4ff2                	lw	t6,28(sp)
20013708:	6125                	addi	sp,sp,96
2001370a:	30200073          	mret

2001370e <metal_lc1_interrupt_vector_handler>:
metal_lc1_interrupt_vector_handler():
/home/jw/Desktop/sifive-standalone-project/freedom-metal/src/drivers/riscv_cpu.c:219

/* The metal_lc1_interrupt_vector_handler() function can be redefined. */
void __attribute__((weak, interrupt)) metal_lc1_interrupt_vector_handler(void) {
2001370e:	711d                	addi	sp,sp,-96
20013710:	ce86                	sw	ra,92(sp)
20013712:	cc96                	sw	t0,88(sp)
20013714:	ca9a                	sw	t1,84(sp)
20013716:	c89e                	sw	t2,80(sp)
20013718:	c6a2                	sw	s0,76(sp)
2001371a:	c4aa                	sw	a0,72(sp)
2001371c:	c2ae                	sw	a1,68(sp)
2001371e:	c0b2                	sw	a2,64(sp)
20013720:	de36                	sw	a3,60(sp)
20013722:	dc3a                	sw	a4,56(sp)
20013724:	da3e                	sw	a5,52(sp)
20013726:	d842                	sw	a6,48(sp)
20013728:	d646                	sw	a7,44(sp)
2001372a:	d472                	sw	t3,40(sp)
2001372c:	d276                	sw	t4,36(sp)
2001372e:	d07a                	sw	t5,32(sp)
20013730:	ce7e                	sw	t6,28(sp)
20013732:	1080                	addi	s0,sp,96
/home/jw/Desktop/sifive-standalone-project/freedom-metal/src/drivers/riscv_cpu.c:220
    __METAL_IRQ_VECTOR_HANDLER(METAL_INTERRUPT_ID_LC1);
20013734:	97bff0ef          	jal	ra,200130ae <__metal_myhart_id>
20013738:	872a                	mv	a4,a0
2001373a:	800017b7          	lui	a5,0x80001
2001373e:	070a                	slli	a4,a4,0x2
20013740:	aa878793          	addi	a5,a5,-1368 # 80000aa8 <metal_segment_heap_target_end+0xfffff338>
20013744:	97ba                	add	a5,a5,a4
20013746:	439c                	lw	a5,0(a5)
20013748:	faf42623          	sw	a5,-84(s0)
2001374c:	fac42783          	lw	a5,-84(s0)
20013750:	c78d                	beqz	a5,2001377a <metal_lc1_interrupt_vector_handler+0x6c>
/home/jw/Desktop/sifive-standalone-project/freedom-metal/src/drivers/riscv_cpu.c:220 (discriminator 1)
20013752:	fac42503          	lw	a0,-84(s0)
20013756:	8dbff0ef          	jal	ra,20013030 <__metal_driver_cpu_interrupt_controller>
2001375a:	faa42423          	sw	a0,-88(s0)
2001375e:	fa842783          	lw	a5,-88(s0)
20013762:	2307a783          	lw	a5,560(a5)
20013766:	faf42223          	sw	a5,-92(s0)
2001376a:	fa842783          	lw	a5,-88(s0)
2001376e:	2287a783          	lw	a5,552(a5)
20013772:	fa442583          	lw	a1,-92(s0)
20013776:	4545                	li	a0,17
20013778:	9782                	jalr	a5
/home/jw/Desktop/sifive-standalone-project/freedom-metal/src/drivers/riscv_cpu.c:221
}
2001377a:	0001                	nop
2001377c:	40f6                	lw	ra,92(sp)
2001377e:	42e6                	lw	t0,88(sp)
20013780:	4356                	lw	t1,84(sp)
20013782:	43c6                	lw	t2,80(sp)
20013784:	4436                	lw	s0,76(sp)
20013786:	4526                	lw	a0,72(sp)
20013788:	4596                	lw	a1,68(sp)
2001378a:	4606                	lw	a2,64(sp)
2001378c:	56f2                	lw	a3,60(sp)
2001378e:	5762                	lw	a4,56(sp)
20013790:	57d2                	lw	a5,52(sp)
20013792:	5842                	lw	a6,48(sp)
20013794:	58b2                	lw	a7,44(sp)
20013796:	5e22                	lw	t3,40(sp)
20013798:	5e92                	lw	t4,36(sp)
2001379a:	5f02                	lw	t5,32(sp)
2001379c:	4ff2                	lw	t6,28(sp)
2001379e:	6125                	addi	sp,sp,96
200137a0:	30200073          	mret

200137a4 <metal_lc2_interrupt_vector_handler>:
metal_lc2_interrupt_vector_handler():
/home/jw/Desktop/sifive-standalone-project/freedom-metal/src/drivers/riscv_cpu.c:224

/* The metal_lc2_interrupt_vector_handler() function can be redefined. */
void __attribute__((weak, interrupt)) metal_lc2_interrupt_vector_handler(void) {
200137a4:	711d                	addi	sp,sp,-96
200137a6:	ce86                	sw	ra,92(sp)
200137a8:	cc96                	sw	t0,88(sp)
200137aa:	ca9a                	sw	t1,84(sp)
200137ac:	c89e                	sw	t2,80(sp)
200137ae:	c6a2                	sw	s0,76(sp)
200137b0:	c4aa                	sw	a0,72(sp)
200137b2:	c2ae                	sw	a1,68(sp)
200137b4:	c0b2                	sw	a2,64(sp)
200137b6:	de36                	sw	a3,60(sp)
200137b8:	dc3a                	sw	a4,56(sp)
200137ba:	da3e                	sw	a5,52(sp)
200137bc:	d842                	sw	a6,48(sp)
200137be:	d646                	sw	a7,44(sp)
200137c0:	d472                	sw	t3,40(sp)
200137c2:	d276                	sw	t4,36(sp)
200137c4:	d07a                	sw	t5,32(sp)
200137c6:	ce7e                	sw	t6,28(sp)
200137c8:	1080                	addi	s0,sp,96
/home/jw/Desktop/sifive-standalone-project/freedom-metal/src/drivers/riscv_cpu.c:225
    __METAL_IRQ_VECTOR_HANDLER(METAL_INTERRUPT_ID_LC2);
200137ca:	8e5ff0ef          	jal	ra,200130ae <__metal_myhart_id>
200137ce:	872a                	mv	a4,a0
200137d0:	800017b7          	lui	a5,0x80001
200137d4:	070a                	slli	a4,a4,0x2
200137d6:	aa878793          	addi	a5,a5,-1368 # 80000aa8 <metal_segment_heap_target_end+0xfffff338>
200137da:	97ba                	add	a5,a5,a4
200137dc:	439c                	lw	a5,0(a5)
200137de:	faf42623          	sw	a5,-84(s0)
200137e2:	fac42783          	lw	a5,-84(s0)
200137e6:	c78d                	beqz	a5,20013810 <metal_lc2_interrupt_vector_handler+0x6c>
/home/jw/Desktop/sifive-standalone-project/freedom-metal/src/drivers/riscv_cpu.c:225 (discriminator 1)
200137e8:	fac42503          	lw	a0,-84(s0)
200137ec:	845ff0ef          	jal	ra,20013030 <__metal_driver_cpu_interrupt_controller>
200137f0:	faa42423          	sw	a0,-88(s0)
200137f4:	fa842783          	lw	a5,-88(s0)
200137f8:	2487a783          	lw	a5,584(a5)
200137fc:	faf42223          	sw	a5,-92(s0)
20013800:	fa842783          	lw	a5,-88(s0)
20013804:	2407a783          	lw	a5,576(a5)
20013808:	fa442583          	lw	a1,-92(s0)
2001380c:	4549                	li	a0,18
2001380e:	9782                	jalr	a5
/home/jw/Desktop/sifive-standalone-project/freedom-metal/src/drivers/riscv_cpu.c:226
}
20013810:	0001                	nop
20013812:	40f6                	lw	ra,92(sp)
20013814:	42e6                	lw	t0,88(sp)
20013816:	4356                	lw	t1,84(sp)
20013818:	43c6                	lw	t2,80(sp)
2001381a:	4436                	lw	s0,76(sp)
2001381c:	4526                	lw	a0,72(sp)
2001381e:	4596                	lw	a1,68(sp)
20013820:	4606                	lw	a2,64(sp)
20013822:	56f2                	lw	a3,60(sp)
20013824:	5762                	lw	a4,56(sp)
20013826:	57d2                	lw	a5,52(sp)
20013828:	5842                	lw	a6,48(sp)
2001382a:	58b2                	lw	a7,44(sp)
2001382c:	5e22                	lw	t3,40(sp)
2001382e:	5e92                	lw	t4,36(sp)
20013830:	5f02                	lw	t5,32(sp)
20013832:	4ff2                	lw	t6,28(sp)
20013834:	6125                	addi	sp,sp,96
20013836:	30200073          	mret

2001383a <metal_lc3_interrupt_vector_handler>:
metal_lc3_interrupt_vector_handler():
/home/jw/Desktop/sifive-standalone-project/freedom-metal/src/drivers/riscv_cpu.c:229

/* The metal_lc3_interrupt_vector_handler() function can be redefined. */
void __attribute__((weak, interrupt)) metal_lc3_interrupt_vector_handler(void) {
2001383a:	711d                	addi	sp,sp,-96
2001383c:	ce86                	sw	ra,92(sp)
2001383e:	cc96                	sw	t0,88(sp)
20013840:	ca9a                	sw	t1,84(sp)
20013842:	c89e                	sw	t2,80(sp)
20013844:	c6a2                	sw	s0,76(sp)
20013846:	c4aa                	sw	a0,72(sp)
20013848:	c2ae                	sw	a1,68(sp)
2001384a:	c0b2                	sw	a2,64(sp)
2001384c:	de36                	sw	a3,60(sp)
2001384e:	dc3a                	sw	a4,56(sp)
20013850:	da3e                	sw	a5,52(sp)
20013852:	d842                	sw	a6,48(sp)
20013854:	d646                	sw	a7,44(sp)
20013856:	d472                	sw	t3,40(sp)
20013858:	d276                	sw	t4,36(sp)
2001385a:	d07a                	sw	t5,32(sp)
2001385c:	ce7e                	sw	t6,28(sp)
2001385e:	1080                	addi	s0,sp,96
/home/jw/Desktop/sifive-standalone-project/freedom-metal/src/drivers/riscv_cpu.c:230
    __METAL_IRQ_VECTOR_HANDLER(METAL_INTERRUPT_ID_LC3);
20013860:	84fff0ef          	jal	ra,200130ae <__metal_myhart_id>
20013864:	872a                	mv	a4,a0
20013866:	800017b7          	lui	a5,0x80001
2001386a:	070a                	slli	a4,a4,0x2
2001386c:	aa878793          	addi	a5,a5,-1368 # 80000aa8 <metal_segment_heap_target_end+0xfffff338>
20013870:	97ba                	add	a5,a5,a4
20013872:	439c                	lw	a5,0(a5)
20013874:	faf42623          	sw	a5,-84(s0)
20013878:	fac42783          	lw	a5,-84(s0)
2001387c:	c78d                	beqz	a5,200138a6 <metal_lc3_interrupt_vector_handler+0x6c>
/home/jw/Desktop/sifive-standalone-project/freedom-metal/src/drivers/riscv_cpu.c:230 (discriminator 1)
2001387e:	fac42503          	lw	a0,-84(s0)
20013882:	faeff0ef          	jal	ra,20013030 <__metal_driver_cpu_interrupt_controller>
20013886:	faa42423          	sw	a0,-88(s0)
2001388a:	fa842783          	lw	a5,-88(s0)
2001388e:	2607a783          	lw	a5,608(a5)
20013892:	faf42223          	sw	a5,-92(s0)
20013896:	fa842783          	lw	a5,-88(s0)
2001389a:	2587a783          	lw	a5,600(a5)
2001389e:	fa442583          	lw	a1,-92(s0)
200138a2:	454d                	li	a0,19
200138a4:	9782                	jalr	a5
/home/jw/Desktop/sifive-standalone-project/freedom-metal/src/drivers/riscv_cpu.c:231
}
200138a6:	0001                	nop
200138a8:	40f6                	lw	ra,92(sp)
200138aa:	42e6                	lw	t0,88(sp)
200138ac:	4356                	lw	t1,84(sp)
200138ae:	43c6                	lw	t2,80(sp)
200138b0:	4436                	lw	s0,76(sp)
200138b2:	4526                	lw	a0,72(sp)
200138b4:	4596                	lw	a1,68(sp)
200138b6:	4606                	lw	a2,64(sp)
200138b8:	56f2                	lw	a3,60(sp)
200138ba:	5762                	lw	a4,56(sp)
200138bc:	57d2                	lw	a5,52(sp)
200138be:	5842                	lw	a6,48(sp)
200138c0:	58b2                	lw	a7,44(sp)
200138c2:	5e22                	lw	t3,40(sp)
200138c4:	5e92                	lw	t4,36(sp)
200138c6:	5f02                	lw	t5,32(sp)
200138c8:	4ff2                	lw	t6,28(sp)
200138ca:	6125                	addi	sp,sp,96
200138cc:	30200073          	mret

200138d0 <metal_lc4_interrupt_vector_handler>:
metal_lc4_interrupt_vector_handler():
/home/jw/Desktop/sifive-standalone-project/freedom-metal/src/drivers/riscv_cpu.c:234

/* The metal_lc4_interrupt_vector_handler() function can be redefined. */
void __attribute__((weak, interrupt)) metal_lc4_interrupt_vector_handler(void) {
200138d0:	711d                	addi	sp,sp,-96
200138d2:	ce86                	sw	ra,92(sp)
200138d4:	cc96                	sw	t0,88(sp)
200138d6:	ca9a                	sw	t1,84(sp)
200138d8:	c89e                	sw	t2,80(sp)
200138da:	c6a2                	sw	s0,76(sp)
200138dc:	c4aa                	sw	a0,72(sp)
200138de:	c2ae                	sw	a1,68(sp)
200138e0:	c0b2                	sw	a2,64(sp)
200138e2:	de36                	sw	a3,60(sp)
200138e4:	dc3a                	sw	a4,56(sp)
200138e6:	da3e                	sw	a5,52(sp)
200138e8:	d842                	sw	a6,48(sp)
200138ea:	d646                	sw	a7,44(sp)
200138ec:	d472                	sw	t3,40(sp)
200138ee:	d276                	sw	t4,36(sp)
200138f0:	d07a                	sw	t5,32(sp)
200138f2:	ce7e                	sw	t6,28(sp)
200138f4:	1080                	addi	s0,sp,96
/home/jw/Desktop/sifive-standalone-project/freedom-metal/src/drivers/riscv_cpu.c:235
    __METAL_IRQ_VECTOR_HANDLER(METAL_INTERRUPT_ID_LC4);
200138f6:	fb8ff0ef          	jal	ra,200130ae <__metal_myhart_id>
200138fa:	872a                	mv	a4,a0
200138fc:	800017b7          	lui	a5,0x80001
20013900:	070a                	slli	a4,a4,0x2
20013902:	aa878793          	addi	a5,a5,-1368 # 80000aa8 <metal_segment_heap_target_end+0xfffff338>
20013906:	97ba                	add	a5,a5,a4
20013908:	439c                	lw	a5,0(a5)
2001390a:	faf42623          	sw	a5,-84(s0)
2001390e:	fac42783          	lw	a5,-84(s0)
20013912:	c78d                	beqz	a5,2001393c <metal_lc4_interrupt_vector_handler+0x6c>
/home/jw/Desktop/sifive-standalone-project/freedom-metal/src/drivers/riscv_cpu.c:235 (discriminator 1)
20013914:	fac42503          	lw	a0,-84(s0)
20013918:	f18ff0ef          	jal	ra,20013030 <__metal_driver_cpu_interrupt_controller>
2001391c:	faa42423          	sw	a0,-88(s0)
20013920:	fa842783          	lw	a5,-88(s0)
20013924:	2787a783          	lw	a5,632(a5)
20013928:	faf42223          	sw	a5,-92(s0)
2001392c:	fa842783          	lw	a5,-88(s0)
20013930:	2707a783          	lw	a5,624(a5)
20013934:	fa442583          	lw	a1,-92(s0)
20013938:	4551                	li	a0,20
2001393a:	9782                	jalr	a5
/home/jw/Desktop/sifive-standalone-project/freedom-metal/src/drivers/riscv_cpu.c:236
}
2001393c:	0001                	nop
2001393e:	40f6                	lw	ra,92(sp)
20013940:	42e6                	lw	t0,88(sp)
20013942:	4356                	lw	t1,84(sp)
20013944:	43c6                	lw	t2,80(sp)
20013946:	4436                	lw	s0,76(sp)
20013948:	4526                	lw	a0,72(sp)
2001394a:	4596                	lw	a1,68(sp)
2001394c:	4606                	lw	a2,64(sp)
2001394e:	56f2                	lw	a3,60(sp)
20013950:	5762                	lw	a4,56(sp)
20013952:	57d2                	lw	a5,52(sp)
20013954:	5842                	lw	a6,48(sp)
20013956:	58b2                	lw	a7,44(sp)
20013958:	5e22                	lw	t3,40(sp)
2001395a:	5e92                	lw	t4,36(sp)
2001395c:	5f02                	lw	t5,32(sp)
2001395e:	4ff2                	lw	t6,28(sp)
20013960:	6125                	addi	sp,sp,96
20013962:	30200073          	mret

20013966 <metal_lc5_interrupt_vector_handler>:
metal_lc5_interrupt_vector_handler():
/home/jw/Desktop/sifive-standalone-project/freedom-metal/src/drivers/riscv_cpu.c:239

/* The metal_lc5_interrupt_vector_handler() function can be redefined. */
void __attribute__((weak, interrupt)) metal_lc5_interrupt_vector_handler(void) {
20013966:	711d                	addi	sp,sp,-96
20013968:	ce86                	sw	ra,92(sp)
2001396a:	cc96                	sw	t0,88(sp)
2001396c:	ca9a                	sw	t1,84(sp)
2001396e:	c89e                	sw	t2,80(sp)
20013970:	c6a2                	sw	s0,76(sp)
20013972:	c4aa                	sw	a0,72(sp)
20013974:	c2ae                	sw	a1,68(sp)
20013976:	c0b2                	sw	a2,64(sp)
20013978:	de36                	sw	a3,60(sp)
2001397a:	dc3a                	sw	a4,56(sp)
2001397c:	da3e                	sw	a5,52(sp)
2001397e:	d842                	sw	a6,48(sp)
20013980:	d646                	sw	a7,44(sp)
20013982:	d472                	sw	t3,40(sp)
20013984:	d276                	sw	t4,36(sp)
20013986:	d07a                	sw	t5,32(sp)
20013988:	ce7e                	sw	t6,28(sp)
2001398a:	1080                	addi	s0,sp,96
/home/jw/Desktop/sifive-standalone-project/freedom-metal/src/drivers/riscv_cpu.c:240
    __METAL_IRQ_VECTOR_HANDLER(METAL_INTERRUPT_ID_LC5);
2001398c:	f22ff0ef          	jal	ra,200130ae <__metal_myhart_id>
20013990:	872a                	mv	a4,a0
20013992:	800017b7          	lui	a5,0x80001
20013996:	070a                	slli	a4,a4,0x2
20013998:	aa878793          	addi	a5,a5,-1368 # 80000aa8 <metal_segment_heap_target_end+0xfffff338>
2001399c:	97ba                	add	a5,a5,a4
2001399e:	439c                	lw	a5,0(a5)
200139a0:	faf42623          	sw	a5,-84(s0)
200139a4:	fac42783          	lw	a5,-84(s0)
200139a8:	c78d                	beqz	a5,200139d2 <metal_lc5_interrupt_vector_handler+0x6c>
/home/jw/Desktop/sifive-standalone-project/freedom-metal/src/drivers/riscv_cpu.c:240 (discriminator 1)
200139aa:	fac42503          	lw	a0,-84(s0)
200139ae:	e82ff0ef          	jal	ra,20013030 <__metal_driver_cpu_interrupt_controller>
200139b2:	faa42423          	sw	a0,-88(s0)
200139b6:	fa842783          	lw	a5,-88(s0)
200139ba:	2907a783          	lw	a5,656(a5)
200139be:	faf42223          	sw	a5,-92(s0)
200139c2:	fa842783          	lw	a5,-88(s0)
200139c6:	2887a783          	lw	a5,648(a5)
200139ca:	fa442583          	lw	a1,-92(s0)
200139ce:	4555                	li	a0,21
200139d0:	9782                	jalr	a5
/home/jw/Desktop/sifive-standalone-project/freedom-metal/src/drivers/riscv_cpu.c:241
}
200139d2:	0001                	nop
200139d4:	40f6                	lw	ra,92(sp)
200139d6:	42e6                	lw	t0,88(sp)
200139d8:	4356                	lw	t1,84(sp)
200139da:	43c6                	lw	t2,80(sp)
200139dc:	4436                	lw	s0,76(sp)
200139de:	4526                	lw	a0,72(sp)
200139e0:	4596                	lw	a1,68(sp)
200139e2:	4606                	lw	a2,64(sp)
200139e4:	56f2                	lw	a3,60(sp)
200139e6:	5762                	lw	a4,56(sp)
200139e8:	57d2                	lw	a5,52(sp)
200139ea:	5842                	lw	a6,48(sp)
200139ec:	58b2                	lw	a7,44(sp)
200139ee:	5e22                	lw	t3,40(sp)
200139f0:	5e92                	lw	t4,36(sp)
200139f2:	5f02                	lw	t5,32(sp)
200139f4:	4ff2                	lw	t6,28(sp)
200139f6:	6125                	addi	sp,sp,96
200139f8:	30200073          	mret

200139fc <metal_lc6_interrupt_vector_handler>:
metal_lc6_interrupt_vector_handler():
/home/jw/Desktop/sifive-standalone-project/freedom-metal/src/drivers/riscv_cpu.c:244

/* The metal_lc6_interrupt_vector_handler() function can be redefined. */
void __attribute__((weak, interrupt)) metal_lc6_interrupt_vector_handler(void) {
200139fc:	711d                	addi	sp,sp,-96
200139fe:	ce86                	sw	ra,92(sp)
20013a00:	cc96                	sw	t0,88(sp)
20013a02:	ca9a                	sw	t1,84(sp)
20013a04:	c89e                	sw	t2,80(sp)
20013a06:	c6a2                	sw	s0,76(sp)
20013a08:	c4aa                	sw	a0,72(sp)
20013a0a:	c2ae                	sw	a1,68(sp)
20013a0c:	c0b2                	sw	a2,64(sp)
20013a0e:	de36                	sw	a3,60(sp)
20013a10:	dc3a                	sw	a4,56(sp)
20013a12:	da3e                	sw	a5,52(sp)
20013a14:	d842                	sw	a6,48(sp)
20013a16:	d646                	sw	a7,44(sp)
20013a18:	d472                	sw	t3,40(sp)
20013a1a:	d276                	sw	t4,36(sp)
20013a1c:	d07a                	sw	t5,32(sp)
20013a1e:	ce7e                	sw	t6,28(sp)
20013a20:	1080                	addi	s0,sp,96
/home/jw/Desktop/sifive-standalone-project/freedom-metal/src/drivers/riscv_cpu.c:245
    __METAL_IRQ_VECTOR_HANDLER(METAL_INTERRUPT_ID_LC6);
20013a22:	e8cff0ef          	jal	ra,200130ae <__metal_myhart_id>
20013a26:	872a                	mv	a4,a0
20013a28:	800017b7          	lui	a5,0x80001
20013a2c:	070a                	slli	a4,a4,0x2
20013a2e:	aa878793          	addi	a5,a5,-1368 # 80000aa8 <metal_segment_heap_target_end+0xfffff338>
20013a32:	97ba                	add	a5,a5,a4
20013a34:	439c                	lw	a5,0(a5)
20013a36:	faf42623          	sw	a5,-84(s0)
20013a3a:	fac42783          	lw	a5,-84(s0)
20013a3e:	c78d                	beqz	a5,20013a68 <metal_lc6_interrupt_vector_handler+0x6c>
/home/jw/Desktop/sifive-standalone-project/freedom-metal/src/drivers/riscv_cpu.c:245 (discriminator 1)
20013a40:	fac42503          	lw	a0,-84(s0)
20013a44:	decff0ef          	jal	ra,20013030 <__metal_driver_cpu_interrupt_controller>
20013a48:	faa42423          	sw	a0,-88(s0)
20013a4c:	fa842783          	lw	a5,-88(s0)
20013a50:	2a87a783          	lw	a5,680(a5)
20013a54:	faf42223          	sw	a5,-92(s0)
20013a58:	fa842783          	lw	a5,-88(s0)
20013a5c:	2a07a783          	lw	a5,672(a5)
20013a60:	fa442583          	lw	a1,-92(s0)
20013a64:	4559                	li	a0,22
20013a66:	9782                	jalr	a5
/home/jw/Desktop/sifive-standalone-project/freedom-metal/src/drivers/riscv_cpu.c:246
}
20013a68:	0001                	nop
20013a6a:	40f6                	lw	ra,92(sp)
20013a6c:	42e6                	lw	t0,88(sp)
20013a6e:	4356                	lw	t1,84(sp)
20013a70:	43c6                	lw	t2,80(sp)
20013a72:	4436                	lw	s0,76(sp)
20013a74:	4526                	lw	a0,72(sp)
20013a76:	4596                	lw	a1,68(sp)
20013a78:	4606                	lw	a2,64(sp)
20013a7a:	56f2                	lw	a3,60(sp)
20013a7c:	5762                	lw	a4,56(sp)
20013a7e:	57d2                	lw	a5,52(sp)
20013a80:	5842                	lw	a6,48(sp)
20013a82:	58b2                	lw	a7,44(sp)
20013a84:	5e22                	lw	t3,40(sp)
20013a86:	5e92                	lw	t4,36(sp)
20013a88:	5f02                	lw	t5,32(sp)
20013a8a:	4ff2                	lw	t6,28(sp)
20013a8c:	6125                	addi	sp,sp,96
20013a8e:	30200073          	mret

20013a92 <metal_lc7_interrupt_vector_handler>:
metal_lc7_interrupt_vector_handler():
/home/jw/Desktop/sifive-standalone-project/freedom-metal/src/drivers/riscv_cpu.c:249

/* The metal_lc7_interrupt_vector_handler() function can be redefined. */
void __attribute__((weak, interrupt)) metal_lc7_interrupt_vector_handler(void) {
20013a92:	711d                	addi	sp,sp,-96
20013a94:	ce86                	sw	ra,92(sp)
20013a96:	cc96                	sw	t0,88(sp)
20013a98:	ca9a                	sw	t1,84(sp)
20013a9a:	c89e                	sw	t2,80(sp)
20013a9c:	c6a2                	sw	s0,76(sp)
20013a9e:	c4aa                	sw	a0,72(sp)
20013aa0:	c2ae                	sw	a1,68(sp)
20013aa2:	c0b2                	sw	a2,64(sp)
20013aa4:	de36                	sw	a3,60(sp)
20013aa6:	dc3a                	sw	a4,56(sp)
20013aa8:	da3e                	sw	a5,52(sp)
20013aaa:	d842                	sw	a6,48(sp)
20013aac:	d646                	sw	a7,44(sp)
20013aae:	d472                	sw	t3,40(sp)
20013ab0:	d276                	sw	t4,36(sp)
20013ab2:	d07a                	sw	t5,32(sp)
20013ab4:	ce7e                	sw	t6,28(sp)
20013ab6:	1080                	addi	s0,sp,96
/home/jw/Desktop/sifive-standalone-project/freedom-metal/src/drivers/riscv_cpu.c:250
    __METAL_IRQ_VECTOR_HANDLER(METAL_INTERRUPT_ID_LC7);
20013ab8:	df6ff0ef          	jal	ra,200130ae <__metal_myhart_id>
20013abc:	872a                	mv	a4,a0
20013abe:	800017b7          	lui	a5,0x80001
20013ac2:	070a                	slli	a4,a4,0x2
20013ac4:	aa878793          	addi	a5,a5,-1368 # 80000aa8 <metal_segment_heap_target_end+0xfffff338>
20013ac8:	97ba                	add	a5,a5,a4
20013aca:	439c                	lw	a5,0(a5)
20013acc:	faf42623          	sw	a5,-84(s0)
20013ad0:	fac42783          	lw	a5,-84(s0)
20013ad4:	c78d                	beqz	a5,20013afe <metal_lc7_interrupt_vector_handler+0x6c>
/home/jw/Desktop/sifive-standalone-project/freedom-metal/src/drivers/riscv_cpu.c:250 (discriminator 1)
20013ad6:	fac42503          	lw	a0,-84(s0)
20013ada:	d56ff0ef          	jal	ra,20013030 <__metal_driver_cpu_interrupt_controller>
20013ade:	faa42423          	sw	a0,-88(s0)
20013ae2:	fa842783          	lw	a5,-88(s0)
20013ae6:	2c07a783          	lw	a5,704(a5)
20013aea:	faf42223          	sw	a5,-92(s0)
20013aee:	fa842783          	lw	a5,-88(s0)
20013af2:	2b87a783          	lw	a5,696(a5)
20013af6:	fa442583          	lw	a1,-92(s0)
20013afa:	455d                	li	a0,23
20013afc:	9782                	jalr	a5
/home/jw/Desktop/sifive-standalone-project/freedom-metal/src/drivers/riscv_cpu.c:251
}
20013afe:	0001                	nop
20013b00:	40f6                	lw	ra,92(sp)
20013b02:	42e6                	lw	t0,88(sp)
20013b04:	4356                	lw	t1,84(sp)
20013b06:	43c6                	lw	t2,80(sp)
20013b08:	4436                	lw	s0,76(sp)
20013b0a:	4526                	lw	a0,72(sp)
20013b0c:	4596                	lw	a1,68(sp)
20013b0e:	4606                	lw	a2,64(sp)
20013b10:	56f2                	lw	a3,60(sp)
20013b12:	5762                	lw	a4,56(sp)
20013b14:	57d2                	lw	a5,52(sp)
20013b16:	5842                	lw	a6,48(sp)
20013b18:	58b2                	lw	a7,44(sp)
20013b1a:	5e22                	lw	t3,40(sp)
20013b1c:	5e92                	lw	t4,36(sp)
20013b1e:	5f02                	lw	t5,32(sp)
20013b20:	4ff2                	lw	t6,28(sp)
20013b22:	6125                	addi	sp,sp,96
20013b24:	30200073          	mret

20013b28 <metal_lc8_interrupt_vector_handler>:
metal_lc8_interrupt_vector_handler():
/home/jw/Desktop/sifive-standalone-project/freedom-metal/src/drivers/riscv_cpu.c:254

/* The metal_lc8_interrupt_vector_handler() function can be redefined. */
void __attribute__((weak, interrupt)) metal_lc8_interrupt_vector_handler(void) {
20013b28:	711d                	addi	sp,sp,-96
20013b2a:	ce86                	sw	ra,92(sp)
20013b2c:	cc96                	sw	t0,88(sp)
20013b2e:	ca9a                	sw	t1,84(sp)
20013b30:	c89e                	sw	t2,80(sp)
20013b32:	c6a2                	sw	s0,76(sp)
20013b34:	c4aa                	sw	a0,72(sp)
20013b36:	c2ae                	sw	a1,68(sp)
20013b38:	c0b2                	sw	a2,64(sp)
20013b3a:	de36                	sw	a3,60(sp)
20013b3c:	dc3a                	sw	a4,56(sp)
20013b3e:	da3e                	sw	a5,52(sp)
20013b40:	d842                	sw	a6,48(sp)
20013b42:	d646                	sw	a7,44(sp)
20013b44:	d472                	sw	t3,40(sp)
20013b46:	d276                	sw	t4,36(sp)
20013b48:	d07a                	sw	t5,32(sp)
20013b4a:	ce7e                	sw	t6,28(sp)
20013b4c:	1080                	addi	s0,sp,96
/home/jw/Desktop/sifive-standalone-project/freedom-metal/src/drivers/riscv_cpu.c:255
    __METAL_IRQ_VECTOR_HANDLER(METAL_INTERRUPT_ID_LC8);
20013b4e:	d60ff0ef          	jal	ra,200130ae <__metal_myhart_id>
20013b52:	872a                	mv	a4,a0
20013b54:	800017b7          	lui	a5,0x80001
20013b58:	070a                	slli	a4,a4,0x2
20013b5a:	aa878793          	addi	a5,a5,-1368 # 80000aa8 <metal_segment_heap_target_end+0xfffff338>
20013b5e:	97ba                	add	a5,a5,a4
20013b60:	439c                	lw	a5,0(a5)
20013b62:	faf42623          	sw	a5,-84(s0)
20013b66:	fac42783          	lw	a5,-84(s0)
20013b6a:	c78d                	beqz	a5,20013b94 <metal_lc8_interrupt_vector_handler+0x6c>
/home/jw/Desktop/sifive-standalone-project/freedom-metal/src/drivers/riscv_cpu.c:255 (discriminator 1)
20013b6c:	fac42503          	lw	a0,-84(s0)
20013b70:	cc0ff0ef          	jal	ra,20013030 <__metal_driver_cpu_interrupt_controller>
20013b74:	faa42423          	sw	a0,-88(s0)
20013b78:	fa842783          	lw	a5,-88(s0)
20013b7c:	2d87a783          	lw	a5,728(a5)
20013b80:	faf42223          	sw	a5,-92(s0)
20013b84:	fa842783          	lw	a5,-88(s0)
20013b88:	2d07a783          	lw	a5,720(a5)
20013b8c:	fa442583          	lw	a1,-92(s0)
20013b90:	4561                	li	a0,24
20013b92:	9782                	jalr	a5
/home/jw/Desktop/sifive-standalone-project/freedom-metal/src/drivers/riscv_cpu.c:256
}
20013b94:	0001                	nop
20013b96:	40f6                	lw	ra,92(sp)
20013b98:	42e6                	lw	t0,88(sp)
20013b9a:	4356                	lw	t1,84(sp)
20013b9c:	43c6                	lw	t2,80(sp)
20013b9e:	4436                	lw	s0,76(sp)
20013ba0:	4526                	lw	a0,72(sp)
20013ba2:	4596                	lw	a1,68(sp)
20013ba4:	4606                	lw	a2,64(sp)
20013ba6:	56f2                	lw	a3,60(sp)
20013ba8:	5762                	lw	a4,56(sp)
20013baa:	57d2                	lw	a5,52(sp)
20013bac:	5842                	lw	a6,48(sp)
20013bae:	58b2                	lw	a7,44(sp)
20013bb0:	5e22                	lw	t3,40(sp)
20013bb2:	5e92                	lw	t4,36(sp)
20013bb4:	5f02                	lw	t5,32(sp)
20013bb6:	4ff2                	lw	t6,28(sp)
20013bb8:	6125                	addi	sp,sp,96
20013bba:	30200073          	mret

20013bbe <metal_lc9_interrupt_vector_handler>:
metal_lc9_interrupt_vector_handler():
/home/jw/Desktop/sifive-standalone-project/freedom-metal/src/drivers/riscv_cpu.c:259

/* The metal_lc9_interrupt_vector_handler() function can be redefined. */
void __attribute__((weak, interrupt)) metal_lc9_interrupt_vector_handler(void) {
20013bbe:	711d                	addi	sp,sp,-96
20013bc0:	ce86                	sw	ra,92(sp)
20013bc2:	cc96                	sw	t0,88(sp)
20013bc4:	ca9a                	sw	t1,84(sp)
20013bc6:	c89e                	sw	t2,80(sp)
20013bc8:	c6a2                	sw	s0,76(sp)
20013bca:	c4aa                	sw	a0,72(sp)
20013bcc:	c2ae                	sw	a1,68(sp)
20013bce:	c0b2                	sw	a2,64(sp)
20013bd0:	de36                	sw	a3,60(sp)
20013bd2:	dc3a                	sw	a4,56(sp)
20013bd4:	da3e                	sw	a5,52(sp)
20013bd6:	d842                	sw	a6,48(sp)
20013bd8:	d646                	sw	a7,44(sp)
20013bda:	d472                	sw	t3,40(sp)
20013bdc:	d276                	sw	t4,36(sp)
20013bde:	d07a                	sw	t5,32(sp)
20013be0:	ce7e                	sw	t6,28(sp)
20013be2:	1080                	addi	s0,sp,96
/home/jw/Desktop/sifive-standalone-project/freedom-metal/src/drivers/riscv_cpu.c:260
    __METAL_IRQ_VECTOR_HANDLER(METAL_INTERRUPT_ID_LC9);
20013be4:	ccaff0ef          	jal	ra,200130ae <__metal_myhart_id>
20013be8:	872a                	mv	a4,a0
20013bea:	800017b7          	lui	a5,0x80001
20013bee:	070a                	slli	a4,a4,0x2
20013bf0:	aa878793          	addi	a5,a5,-1368 # 80000aa8 <metal_segment_heap_target_end+0xfffff338>
20013bf4:	97ba                	add	a5,a5,a4
20013bf6:	439c                	lw	a5,0(a5)
20013bf8:	faf42623          	sw	a5,-84(s0)
20013bfc:	fac42783          	lw	a5,-84(s0)
20013c00:	c78d                	beqz	a5,20013c2a <metal_lc9_interrupt_vector_handler+0x6c>
/home/jw/Desktop/sifive-standalone-project/freedom-metal/src/drivers/riscv_cpu.c:260 (discriminator 1)
20013c02:	fac42503          	lw	a0,-84(s0)
20013c06:	c2aff0ef          	jal	ra,20013030 <__metal_driver_cpu_interrupt_controller>
20013c0a:	faa42423          	sw	a0,-88(s0)
20013c0e:	fa842783          	lw	a5,-88(s0)
20013c12:	2f07a783          	lw	a5,752(a5)
20013c16:	faf42223          	sw	a5,-92(s0)
20013c1a:	fa842783          	lw	a5,-88(s0)
20013c1e:	2e87a783          	lw	a5,744(a5)
20013c22:	fa442583          	lw	a1,-92(s0)
20013c26:	4565                	li	a0,25
20013c28:	9782                	jalr	a5
/home/jw/Desktop/sifive-standalone-project/freedom-metal/src/drivers/riscv_cpu.c:261
}
20013c2a:	0001                	nop
20013c2c:	40f6                	lw	ra,92(sp)
20013c2e:	42e6                	lw	t0,88(sp)
20013c30:	4356                	lw	t1,84(sp)
20013c32:	43c6                	lw	t2,80(sp)
20013c34:	4436                	lw	s0,76(sp)
20013c36:	4526                	lw	a0,72(sp)
20013c38:	4596                	lw	a1,68(sp)
20013c3a:	4606                	lw	a2,64(sp)
20013c3c:	56f2                	lw	a3,60(sp)
20013c3e:	5762                	lw	a4,56(sp)
20013c40:	57d2                	lw	a5,52(sp)
20013c42:	5842                	lw	a6,48(sp)
20013c44:	58b2                	lw	a7,44(sp)
20013c46:	5e22                	lw	t3,40(sp)
20013c48:	5e92                	lw	t4,36(sp)
20013c4a:	5f02                	lw	t5,32(sp)
20013c4c:	4ff2                	lw	t6,28(sp)
20013c4e:	6125                	addi	sp,sp,96
20013c50:	30200073          	mret

20013c54 <metal_lc10_interrupt_vector_handler>:
metal_lc10_interrupt_vector_handler():
/home/jw/Desktop/sifive-standalone-project/freedom-metal/src/drivers/riscv_cpu.c:265

/* The metal_lc10_interrupt_vector_handler() function can be redefined. */
void __attribute__((weak, interrupt))
metal_lc10_interrupt_vector_handler(void) {
20013c54:	711d                	addi	sp,sp,-96
20013c56:	ce86                	sw	ra,92(sp)
20013c58:	cc96                	sw	t0,88(sp)
20013c5a:	ca9a                	sw	t1,84(sp)
20013c5c:	c89e                	sw	t2,80(sp)
20013c5e:	c6a2                	sw	s0,76(sp)
20013c60:	c4aa                	sw	a0,72(sp)
20013c62:	c2ae                	sw	a1,68(sp)
20013c64:	c0b2                	sw	a2,64(sp)
20013c66:	de36                	sw	a3,60(sp)
20013c68:	dc3a                	sw	a4,56(sp)
20013c6a:	da3e                	sw	a5,52(sp)
20013c6c:	d842                	sw	a6,48(sp)
20013c6e:	d646                	sw	a7,44(sp)
20013c70:	d472                	sw	t3,40(sp)
20013c72:	d276                	sw	t4,36(sp)
20013c74:	d07a                	sw	t5,32(sp)
20013c76:	ce7e                	sw	t6,28(sp)
20013c78:	1080                	addi	s0,sp,96
/home/jw/Desktop/sifive-standalone-project/freedom-metal/src/drivers/riscv_cpu.c:266
    __METAL_IRQ_VECTOR_HANDLER(METAL_INTERRUPT_ID_LC10);
20013c7a:	c34ff0ef          	jal	ra,200130ae <__metal_myhart_id>
20013c7e:	872a                	mv	a4,a0
20013c80:	800017b7          	lui	a5,0x80001
20013c84:	070a                	slli	a4,a4,0x2
20013c86:	aa878793          	addi	a5,a5,-1368 # 80000aa8 <metal_segment_heap_target_end+0xfffff338>
20013c8a:	97ba                	add	a5,a5,a4
20013c8c:	439c                	lw	a5,0(a5)
20013c8e:	faf42623          	sw	a5,-84(s0)
20013c92:	fac42783          	lw	a5,-84(s0)
20013c96:	c78d                	beqz	a5,20013cc0 <metal_lc10_interrupt_vector_handler+0x6c>
/home/jw/Desktop/sifive-standalone-project/freedom-metal/src/drivers/riscv_cpu.c:266 (discriminator 1)
20013c98:	fac42503          	lw	a0,-84(s0)
20013c9c:	b94ff0ef          	jal	ra,20013030 <__metal_driver_cpu_interrupt_controller>
20013ca0:	faa42423          	sw	a0,-88(s0)
20013ca4:	fa842783          	lw	a5,-88(s0)
20013ca8:	3087a783          	lw	a5,776(a5)
20013cac:	faf42223          	sw	a5,-92(s0)
20013cb0:	fa842783          	lw	a5,-88(s0)
20013cb4:	3007a783          	lw	a5,768(a5)
20013cb8:	fa442583          	lw	a1,-92(s0)
20013cbc:	4569                	li	a0,26
20013cbe:	9782                	jalr	a5
/home/jw/Desktop/sifive-standalone-project/freedom-metal/src/drivers/riscv_cpu.c:267
}
20013cc0:	0001                	nop
20013cc2:	40f6                	lw	ra,92(sp)
20013cc4:	42e6                	lw	t0,88(sp)
20013cc6:	4356                	lw	t1,84(sp)
20013cc8:	43c6                	lw	t2,80(sp)
20013cca:	4436                	lw	s0,76(sp)
20013ccc:	4526                	lw	a0,72(sp)
20013cce:	4596                	lw	a1,68(sp)
20013cd0:	4606                	lw	a2,64(sp)
20013cd2:	56f2                	lw	a3,60(sp)
20013cd4:	5762                	lw	a4,56(sp)
20013cd6:	57d2                	lw	a5,52(sp)
20013cd8:	5842                	lw	a6,48(sp)
20013cda:	58b2                	lw	a7,44(sp)
20013cdc:	5e22                	lw	t3,40(sp)
20013cde:	5e92                	lw	t4,36(sp)
20013ce0:	5f02                	lw	t5,32(sp)
20013ce2:	4ff2                	lw	t6,28(sp)
20013ce4:	6125                	addi	sp,sp,96
20013ce6:	30200073          	mret

20013cea <metal_lc11_interrupt_vector_handler>:
metal_lc11_interrupt_vector_handler():
/home/jw/Desktop/sifive-standalone-project/freedom-metal/src/drivers/riscv_cpu.c:271

/* The metal_lc11_interrupt_vector_handler() function can be redefined. */
void __attribute__((weak, interrupt))
metal_lc11_interrupt_vector_handler(void) {
20013cea:	711d                	addi	sp,sp,-96
20013cec:	ce86                	sw	ra,92(sp)
20013cee:	cc96                	sw	t0,88(sp)
20013cf0:	ca9a                	sw	t1,84(sp)
20013cf2:	c89e                	sw	t2,80(sp)
20013cf4:	c6a2                	sw	s0,76(sp)
20013cf6:	c4aa                	sw	a0,72(sp)
20013cf8:	c2ae                	sw	a1,68(sp)
20013cfa:	c0b2                	sw	a2,64(sp)
20013cfc:	de36                	sw	a3,60(sp)
20013cfe:	dc3a                	sw	a4,56(sp)
20013d00:	da3e                	sw	a5,52(sp)
20013d02:	d842                	sw	a6,48(sp)
20013d04:	d646                	sw	a7,44(sp)
20013d06:	d472                	sw	t3,40(sp)
20013d08:	d276                	sw	t4,36(sp)
20013d0a:	d07a                	sw	t5,32(sp)
20013d0c:	ce7e                	sw	t6,28(sp)
20013d0e:	1080                	addi	s0,sp,96
/home/jw/Desktop/sifive-standalone-project/freedom-metal/src/drivers/riscv_cpu.c:272
    __METAL_IRQ_VECTOR_HANDLER(METAL_INTERRUPT_ID_LC11);
20013d10:	b9eff0ef          	jal	ra,200130ae <__metal_myhart_id>
20013d14:	872a                	mv	a4,a0
20013d16:	800017b7          	lui	a5,0x80001
20013d1a:	070a                	slli	a4,a4,0x2
20013d1c:	aa878793          	addi	a5,a5,-1368 # 80000aa8 <metal_segment_heap_target_end+0xfffff338>
20013d20:	97ba                	add	a5,a5,a4
20013d22:	439c                	lw	a5,0(a5)
20013d24:	faf42623          	sw	a5,-84(s0)
20013d28:	fac42783          	lw	a5,-84(s0)
20013d2c:	c78d                	beqz	a5,20013d56 <metal_lc11_interrupt_vector_handler+0x6c>
/home/jw/Desktop/sifive-standalone-project/freedom-metal/src/drivers/riscv_cpu.c:272 (discriminator 1)
20013d2e:	fac42503          	lw	a0,-84(s0)
20013d32:	afeff0ef          	jal	ra,20013030 <__metal_driver_cpu_interrupt_controller>
20013d36:	faa42423          	sw	a0,-88(s0)
20013d3a:	fa842783          	lw	a5,-88(s0)
20013d3e:	3207a783          	lw	a5,800(a5)
20013d42:	faf42223          	sw	a5,-92(s0)
20013d46:	fa842783          	lw	a5,-88(s0)
20013d4a:	3187a783          	lw	a5,792(a5)
20013d4e:	fa442583          	lw	a1,-92(s0)
20013d52:	456d                	li	a0,27
20013d54:	9782                	jalr	a5
/home/jw/Desktop/sifive-standalone-project/freedom-metal/src/drivers/riscv_cpu.c:273
}
20013d56:	0001                	nop
20013d58:	40f6                	lw	ra,92(sp)
20013d5a:	42e6                	lw	t0,88(sp)
20013d5c:	4356                	lw	t1,84(sp)
20013d5e:	43c6                	lw	t2,80(sp)
20013d60:	4436                	lw	s0,76(sp)
20013d62:	4526                	lw	a0,72(sp)
20013d64:	4596                	lw	a1,68(sp)
20013d66:	4606                	lw	a2,64(sp)
20013d68:	56f2                	lw	a3,60(sp)
20013d6a:	5762                	lw	a4,56(sp)
20013d6c:	57d2                	lw	a5,52(sp)
20013d6e:	5842                	lw	a6,48(sp)
20013d70:	58b2                	lw	a7,44(sp)
20013d72:	5e22                	lw	t3,40(sp)
20013d74:	5e92                	lw	t4,36(sp)
20013d76:	5f02                	lw	t5,32(sp)
20013d78:	4ff2                	lw	t6,28(sp)
20013d7a:	6125                	addi	sp,sp,96
20013d7c:	30200073          	mret

20013d80 <metal_lc12_interrupt_vector_handler>:
metal_lc12_interrupt_vector_handler():
/home/jw/Desktop/sifive-standalone-project/freedom-metal/src/drivers/riscv_cpu.c:277

/* The metal_lc12_interrupt_vector_handler() function can be redefined. */
void __attribute__((weak, interrupt))
metal_lc12_interrupt_vector_handler(void) {
20013d80:	711d                	addi	sp,sp,-96
20013d82:	ce86                	sw	ra,92(sp)
20013d84:	cc96                	sw	t0,88(sp)
20013d86:	ca9a                	sw	t1,84(sp)
20013d88:	c89e                	sw	t2,80(sp)
20013d8a:	c6a2                	sw	s0,76(sp)
20013d8c:	c4aa                	sw	a0,72(sp)
20013d8e:	c2ae                	sw	a1,68(sp)
20013d90:	c0b2                	sw	a2,64(sp)
20013d92:	de36                	sw	a3,60(sp)
20013d94:	dc3a                	sw	a4,56(sp)
20013d96:	da3e                	sw	a5,52(sp)
20013d98:	d842                	sw	a6,48(sp)
20013d9a:	d646                	sw	a7,44(sp)
20013d9c:	d472                	sw	t3,40(sp)
20013d9e:	d276                	sw	t4,36(sp)
20013da0:	d07a                	sw	t5,32(sp)
20013da2:	ce7e                	sw	t6,28(sp)
20013da4:	1080                	addi	s0,sp,96
/home/jw/Desktop/sifive-standalone-project/freedom-metal/src/drivers/riscv_cpu.c:278
    __METAL_IRQ_VECTOR_HANDLER(METAL_INTERRUPT_ID_LC12);
20013da6:	b08ff0ef          	jal	ra,200130ae <__metal_myhart_id>
20013daa:	872a                	mv	a4,a0
20013dac:	800017b7          	lui	a5,0x80001
20013db0:	070a                	slli	a4,a4,0x2
20013db2:	aa878793          	addi	a5,a5,-1368 # 80000aa8 <metal_segment_heap_target_end+0xfffff338>
20013db6:	97ba                	add	a5,a5,a4
20013db8:	439c                	lw	a5,0(a5)
20013dba:	faf42623          	sw	a5,-84(s0)
20013dbe:	fac42783          	lw	a5,-84(s0)
20013dc2:	c78d                	beqz	a5,20013dec <metal_lc12_interrupt_vector_handler+0x6c>
/home/jw/Desktop/sifive-standalone-project/freedom-metal/src/drivers/riscv_cpu.c:278 (discriminator 1)
20013dc4:	fac42503          	lw	a0,-84(s0)
20013dc8:	a68ff0ef          	jal	ra,20013030 <__metal_driver_cpu_interrupt_controller>
20013dcc:	faa42423          	sw	a0,-88(s0)
20013dd0:	fa842783          	lw	a5,-88(s0)
20013dd4:	3387a783          	lw	a5,824(a5)
20013dd8:	faf42223          	sw	a5,-92(s0)
20013ddc:	fa842783          	lw	a5,-88(s0)
20013de0:	3307a783          	lw	a5,816(a5)
20013de4:	fa442583          	lw	a1,-92(s0)
20013de8:	4571                	li	a0,28
20013dea:	9782                	jalr	a5
/home/jw/Desktop/sifive-standalone-project/freedom-metal/src/drivers/riscv_cpu.c:279
}
20013dec:	0001                	nop
20013dee:	40f6                	lw	ra,92(sp)
20013df0:	42e6                	lw	t0,88(sp)
20013df2:	4356                	lw	t1,84(sp)
20013df4:	43c6                	lw	t2,80(sp)
20013df6:	4436                	lw	s0,76(sp)
20013df8:	4526                	lw	a0,72(sp)
20013dfa:	4596                	lw	a1,68(sp)
20013dfc:	4606                	lw	a2,64(sp)
20013dfe:	56f2                	lw	a3,60(sp)
20013e00:	5762                	lw	a4,56(sp)
20013e02:	57d2                	lw	a5,52(sp)
20013e04:	5842                	lw	a6,48(sp)
20013e06:	58b2                	lw	a7,44(sp)
20013e08:	5e22                	lw	t3,40(sp)
20013e0a:	5e92                	lw	t4,36(sp)
20013e0c:	5f02                	lw	t5,32(sp)
20013e0e:	4ff2                	lw	t6,28(sp)
20013e10:	6125                	addi	sp,sp,96
20013e12:	30200073          	mret

20013e16 <metal_lc13_interrupt_vector_handler>:
metal_lc13_interrupt_vector_handler():
/home/jw/Desktop/sifive-standalone-project/freedom-metal/src/drivers/riscv_cpu.c:283

/* The metal_lc13_interrupt_vector_handler() function can be redefined. */
void __attribute__((weak, interrupt))
metal_lc13_interrupt_vector_handler(void) {
20013e16:	711d                	addi	sp,sp,-96
20013e18:	ce86                	sw	ra,92(sp)
20013e1a:	cc96                	sw	t0,88(sp)
20013e1c:	ca9a                	sw	t1,84(sp)
20013e1e:	c89e                	sw	t2,80(sp)
20013e20:	c6a2                	sw	s0,76(sp)
20013e22:	c4aa                	sw	a0,72(sp)
20013e24:	c2ae                	sw	a1,68(sp)
20013e26:	c0b2                	sw	a2,64(sp)
20013e28:	de36                	sw	a3,60(sp)
20013e2a:	dc3a                	sw	a4,56(sp)
20013e2c:	da3e                	sw	a5,52(sp)
20013e2e:	d842                	sw	a6,48(sp)
20013e30:	d646                	sw	a7,44(sp)
20013e32:	d472                	sw	t3,40(sp)
20013e34:	d276                	sw	t4,36(sp)
20013e36:	d07a                	sw	t5,32(sp)
20013e38:	ce7e                	sw	t6,28(sp)
20013e3a:	1080                	addi	s0,sp,96
/home/jw/Desktop/sifive-standalone-project/freedom-metal/src/drivers/riscv_cpu.c:284
    __METAL_IRQ_VECTOR_HANDLER(METAL_INTERRUPT_ID_LC13);
20013e3c:	a72ff0ef          	jal	ra,200130ae <__metal_myhart_id>
20013e40:	872a                	mv	a4,a0
20013e42:	800017b7          	lui	a5,0x80001
20013e46:	070a                	slli	a4,a4,0x2
20013e48:	aa878793          	addi	a5,a5,-1368 # 80000aa8 <metal_segment_heap_target_end+0xfffff338>
20013e4c:	97ba                	add	a5,a5,a4
20013e4e:	439c                	lw	a5,0(a5)
20013e50:	faf42623          	sw	a5,-84(s0)
20013e54:	fac42783          	lw	a5,-84(s0)
20013e58:	c78d                	beqz	a5,20013e82 <metal_lc13_interrupt_vector_handler+0x6c>
/home/jw/Desktop/sifive-standalone-project/freedom-metal/src/drivers/riscv_cpu.c:284 (discriminator 1)
20013e5a:	fac42503          	lw	a0,-84(s0)
20013e5e:	9d2ff0ef          	jal	ra,20013030 <__metal_driver_cpu_interrupt_controller>
20013e62:	faa42423          	sw	a0,-88(s0)
20013e66:	fa842783          	lw	a5,-88(s0)
20013e6a:	3507a783          	lw	a5,848(a5)
20013e6e:	faf42223          	sw	a5,-92(s0)
20013e72:	fa842783          	lw	a5,-88(s0)
20013e76:	3487a783          	lw	a5,840(a5)
20013e7a:	fa442583          	lw	a1,-92(s0)
20013e7e:	4575                	li	a0,29
20013e80:	9782                	jalr	a5
/home/jw/Desktop/sifive-standalone-project/freedom-metal/src/drivers/riscv_cpu.c:285
}
20013e82:	0001                	nop
20013e84:	40f6                	lw	ra,92(sp)
20013e86:	42e6                	lw	t0,88(sp)
20013e88:	4356                	lw	t1,84(sp)
20013e8a:	43c6                	lw	t2,80(sp)
20013e8c:	4436                	lw	s0,76(sp)
20013e8e:	4526                	lw	a0,72(sp)
20013e90:	4596                	lw	a1,68(sp)
20013e92:	4606                	lw	a2,64(sp)
20013e94:	56f2                	lw	a3,60(sp)
20013e96:	5762                	lw	a4,56(sp)
20013e98:	57d2                	lw	a5,52(sp)
20013e9a:	5842                	lw	a6,48(sp)
20013e9c:	58b2                	lw	a7,44(sp)
20013e9e:	5e22                	lw	t3,40(sp)
20013ea0:	5e92                	lw	t4,36(sp)
20013ea2:	5f02                	lw	t5,32(sp)
20013ea4:	4ff2                	lw	t6,28(sp)
20013ea6:	6125                	addi	sp,sp,96
20013ea8:	30200073          	mret

20013eac <metal_lc14_interrupt_vector_handler>:
metal_lc14_interrupt_vector_handler():
/home/jw/Desktop/sifive-standalone-project/freedom-metal/src/drivers/riscv_cpu.c:289

/* The metal_lc14_interrupt_vector_handler() function can be redefined. */
void __attribute__((weak, interrupt))
metal_lc14_interrupt_vector_handler(void) {
20013eac:	711d                	addi	sp,sp,-96
20013eae:	ce86                	sw	ra,92(sp)
20013eb0:	cc96                	sw	t0,88(sp)
20013eb2:	ca9a                	sw	t1,84(sp)
20013eb4:	c89e                	sw	t2,80(sp)
20013eb6:	c6a2                	sw	s0,76(sp)
20013eb8:	c4aa                	sw	a0,72(sp)
20013eba:	c2ae                	sw	a1,68(sp)
20013ebc:	c0b2                	sw	a2,64(sp)
20013ebe:	de36                	sw	a3,60(sp)
20013ec0:	dc3a                	sw	a4,56(sp)
20013ec2:	da3e                	sw	a5,52(sp)
20013ec4:	d842                	sw	a6,48(sp)
20013ec6:	d646                	sw	a7,44(sp)
20013ec8:	d472                	sw	t3,40(sp)
20013eca:	d276                	sw	t4,36(sp)
20013ecc:	d07a                	sw	t5,32(sp)
20013ece:	ce7e                	sw	t6,28(sp)
20013ed0:	1080                	addi	s0,sp,96
/home/jw/Desktop/sifive-standalone-project/freedom-metal/src/drivers/riscv_cpu.c:290
    __METAL_IRQ_VECTOR_HANDLER(METAL_INTERRUPT_ID_LC14);
20013ed2:	9dcff0ef          	jal	ra,200130ae <__metal_myhart_id>
20013ed6:	872a                	mv	a4,a0
20013ed8:	800017b7          	lui	a5,0x80001
20013edc:	070a                	slli	a4,a4,0x2
20013ede:	aa878793          	addi	a5,a5,-1368 # 80000aa8 <metal_segment_heap_target_end+0xfffff338>
20013ee2:	97ba                	add	a5,a5,a4
20013ee4:	439c                	lw	a5,0(a5)
20013ee6:	faf42623          	sw	a5,-84(s0)
20013eea:	fac42783          	lw	a5,-84(s0)
20013eee:	c78d                	beqz	a5,20013f18 <metal_lc14_interrupt_vector_handler+0x6c>
/home/jw/Desktop/sifive-standalone-project/freedom-metal/src/drivers/riscv_cpu.c:290 (discriminator 1)
20013ef0:	fac42503          	lw	a0,-84(s0)
20013ef4:	93cff0ef          	jal	ra,20013030 <__metal_driver_cpu_interrupt_controller>
20013ef8:	faa42423          	sw	a0,-88(s0)
20013efc:	fa842783          	lw	a5,-88(s0)
20013f00:	3687a783          	lw	a5,872(a5)
20013f04:	faf42223          	sw	a5,-92(s0)
20013f08:	fa842783          	lw	a5,-88(s0)
20013f0c:	3607a783          	lw	a5,864(a5)
20013f10:	fa442583          	lw	a1,-92(s0)
20013f14:	4579                	li	a0,30
20013f16:	9782                	jalr	a5
/home/jw/Desktop/sifive-standalone-project/freedom-metal/src/drivers/riscv_cpu.c:291
}
20013f18:	0001                	nop
20013f1a:	40f6                	lw	ra,92(sp)
20013f1c:	42e6                	lw	t0,88(sp)
20013f1e:	4356                	lw	t1,84(sp)
20013f20:	43c6                	lw	t2,80(sp)
20013f22:	4436                	lw	s0,76(sp)
20013f24:	4526                	lw	a0,72(sp)
20013f26:	4596                	lw	a1,68(sp)
20013f28:	4606                	lw	a2,64(sp)
20013f2a:	56f2                	lw	a3,60(sp)
20013f2c:	5762                	lw	a4,56(sp)
20013f2e:	57d2                	lw	a5,52(sp)
20013f30:	5842                	lw	a6,48(sp)
20013f32:	58b2                	lw	a7,44(sp)
20013f34:	5e22                	lw	t3,40(sp)
20013f36:	5e92                	lw	t4,36(sp)
20013f38:	5f02                	lw	t5,32(sp)
20013f3a:	4ff2                	lw	t6,28(sp)
20013f3c:	6125                	addi	sp,sp,96
20013f3e:	30200073          	mret

20013f42 <metal_lc15_interrupt_vector_handler>:
metal_lc15_interrupt_vector_handler():
/home/jw/Desktop/sifive-standalone-project/freedom-metal/src/drivers/riscv_cpu.c:295

/* The metal_lc15_interrupt_vector_handler() function can be redefined. */
void __attribute__((weak, interrupt))
metal_lc15_interrupt_vector_handler(void) {
20013f42:	711d                	addi	sp,sp,-96
20013f44:	ce86                	sw	ra,92(sp)
20013f46:	cc96                	sw	t0,88(sp)
20013f48:	ca9a                	sw	t1,84(sp)
20013f4a:	c89e                	sw	t2,80(sp)
20013f4c:	c6a2                	sw	s0,76(sp)
20013f4e:	c4aa                	sw	a0,72(sp)
20013f50:	c2ae                	sw	a1,68(sp)
20013f52:	c0b2                	sw	a2,64(sp)
20013f54:	de36                	sw	a3,60(sp)
20013f56:	dc3a                	sw	a4,56(sp)
20013f58:	da3e                	sw	a5,52(sp)
20013f5a:	d842                	sw	a6,48(sp)
20013f5c:	d646                	sw	a7,44(sp)
20013f5e:	d472                	sw	t3,40(sp)
20013f60:	d276                	sw	t4,36(sp)
20013f62:	d07a                	sw	t5,32(sp)
20013f64:	ce7e                	sw	t6,28(sp)
20013f66:	1080                	addi	s0,sp,96
/home/jw/Desktop/sifive-standalone-project/freedom-metal/src/drivers/riscv_cpu.c:296
    __METAL_IRQ_VECTOR_HANDLER(METAL_INTERRUPT_ID_LC15);
20013f68:	946ff0ef          	jal	ra,200130ae <__metal_myhart_id>
20013f6c:	872a                	mv	a4,a0
20013f6e:	800017b7          	lui	a5,0x80001
20013f72:	070a                	slli	a4,a4,0x2
20013f74:	aa878793          	addi	a5,a5,-1368 # 80000aa8 <metal_segment_heap_target_end+0xfffff338>
20013f78:	97ba                	add	a5,a5,a4
20013f7a:	439c                	lw	a5,0(a5)
20013f7c:	faf42623          	sw	a5,-84(s0)
20013f80:	fac42783          	lw	a5,-84(s0)
20013f84:	c78d                	beqz	a5,20013fae <metal_lc15_interrupt_vector_handler+0x6c>
/home/jw/Desktop/sifive-standalone-project/freedom-metal/src/drivers/riscv_cpu.c:296 (discriminator 1)
20013f86:	fac42503          	lw	a0,-84(s0)
20013f8a:	8a6ff0ef          	jal	ra,20013030 <__metal_driver_cpu_interrupt_controller>
20013f8e:	faa42423          	sw	a0,-88(s0)
20013f92:	fa842783          	lw	a5,-88(s0)
20013f96:	3807a783          	lw	a5,896(a5)
20013f9a:	faf42223          	sw	a5,-92(s0)
20013f9e:	fa842783          	lw	a5,-88(s0)
20013fa2:	3787a783          	lw	a5,888(a5)
20013fa6:	fa442583          	lw	a1,-92(s0)
20013faa:	457d                	li	a0,31
20013fac:	9782                	jalr	a5
/home/jw/Desktop/sifive-standalone-project/freedom-metal/src/drivers/riscv_cpu.c:297
}
20013fae:	0001                	nop
20013fb0:	40f6                	lw	ra,92(sp)
20013fb2:	42e6                	lw	t0,88(sp)
20013fb4:	4356                	lw	t1,84(sp)
20013fb6:	43c6                	lw	t2,80(sp)
20013fb8:	4436                	lw	s0,76(sp)
20013fba:	4526                	lw	a0,72(sp)
20013fbc:	4596                	lw	a1,68(sp)
20013fbe:	4606                	lw	a2,64(sp)
20013fc0:	56f2                	lw	a3,60(sp)
20013fc2:	5762                	lw	a4,56(sp)
20013fc4:	57d2                	lw	a5,52(sp)
20013fc6:	5842                	lw	a6,48(sp)
20013fc8:	58b2                	lw	a7,44(sp)
20013fca:	5e22                	lw	t3,40(sp)
20013fcc:	5e92                	lw	t4,36(sp)
20013fce:	5f02                	lw	t5,32(sp)
20013fd0:	4ff2                	lw	t6,28(sp)
20013fd2:	6125                	addi	sp,sp,96
20013fd4:	30200073          	mret

20013fd8 <__metal_controller_interrupt_vector_mode>:
__metal_controller_interrupt_vector_mode():
/home/jw/Desktop/sifive-standalone-project/freedom-metal/src/drivers/riscv_cpu.c:299

metal_vector_mode __metal_controller_interrupt_vector_mode(void) {
20013fd8:	1101                	addi	sp,sp,-32
20013fda:	ce22                	sw	s0,28(sp)
20013fdc:	1000                	addi	s0,sp,32
/home/jw/Desktop/sifive-standalone-project/freedom-metal/src/drivers/riscv_cpu.c:302
    uintptr_t val;

    __asm__ volatile("csrr %0, mtvec" : "=r"(val));
20013fde:	305027f3          	csrr	a5,mtvec
20013fe2:	fef42623          	sw	a5,-20(s0)
/home/jw/Desktop/sifive-standalone-project/freedom-metal/src/drivers/riscv_cpu.c:303
    val &= METAL_MTVEC_MASK;
20013fe6:	fec42783          	lw	a5,-20(s0)
20013fea:	03f7f793          	andi	a5,a5,63
20013fee:	fef42623          	sw	a5,-20(s0)
/home/jw/Desktop/sifive-standalone-project/freedom-metal/src/drivers/riscv_cpu.c:305

    switch (val) {
20013ff2:	fec42703          	lw	a4,-20(s0)
20013ff6:	478d                	li	a5,3
20013ff8:	02f70363          	beq	a4,a5,2001401e <__metal_controller_interrupt_vector_mode+0x46>
20013ffc:	fec42703          	lw	a4,-20(s0)
20014000:	478d                	li	a5,3
20014002:	02e7e263          	bltu	a5,a4,20014026 <__metal_controller_interrupt_vector_mode+0x4e>
20014006:	fec42703          	lw	a4,-20(s0)
2001400a:	4785                	li	a5,1
2001400c:	00f70b63          	beq	a4,a5,20014022 <__metal_controller_interrupt_vector_mode+0x4a>
20014010:	fec42703          	lw	a4,-20(s0)
20014014:	4789                	li	a5,2
20014016:	00f71863          	bne	a4,a5,20014026 <__metal_controller_interrupt_vector_mode+0x4e>
/home/jw/Desktop/sifive-standalone-project/freedom-metal/src/drivers/riscv_cpu.c:307
    case METAL_MTVEC_CLIC:
        return METAL_SELECTIVE_VECTOR_MODE;
2001401a:	478d                	li	a5,3
2001401c:	a031                	j	20014028 <__metal_controller_interrupt_vector_mode+0x50>
/home/jw/Desktop/sifive-standalone-project/freedom-metal/src/drivers/riscv_cpu.c:309
    case METAL_MTVEC_CLIC_VECTORED:
        return METAL_HARDWARE_VECTOR_MODE;
2001401e:	4791                	li	a5,4
20014020:	a021                	j	20014028 <__metal_controller_interrupt_vector_mode+0x50>
/home/jw/Desktop/sifive-standalone-project/freedom-metal/src/drivers/riscv_cpu.c:311
    case METAL_MTVEC_VECTORED:
        return METAL_VECTOR_MODE;
20014022:	4785                	li	a5,1
20014024:	a011                	j	20014028 <__metal_controller_interrupt_vector_mode+0x50>
/home/jw/Desktop/sifive-standalone-project/freedom-metal/src/drivers/riscv_cpu.c:313
    }
    return METAL_DIRECT_MODE;
20014026:	4781                	li	a5,0
/home/jw/Desktop/sifive-standalone-project/freedom-metal/src/drivers/riscv_cpu.c:314
}
20014028:	853e                	mv	a0,a5
2001402a:	4472                	lw	s0,28(sp)
2001402c:	6105                	addi	sp,sp,32
2001402e:	8082                	ret

20014030 <__metal_controller_interrupt_vector>:
__metal_controller_interrupt_vector():
/home/jw/Desktop/sifive-standalone-project/freedom-metal/src/drivers/riscv_cpu.c:317

void __metal_controller_interrupt_vector(metal_vector_mode mode,
                                         void *vec_table) {
20014030:	7179                	addi	sp,sp,-48
20014032:	d622                	sw	s0,44(sp)
20014034:	1800                	addi	s0,sp,48
20014036:	fca42e23          	sw	a0,-36(s0)
2001403a:	fcb42c23          	sw	a1,-40(s0)
/home/jw/Desktop/sifive-standalone-project/freedom-metal/src/drivers/riscv_cpu.c:320
    uintptr_t trap_entry, val;

    __asm__ volatile("csrr %0, mtvec" : "=r"(val));
2001403e:	305027f3          	csrr	a5,mtvec
20014042:	fef42623          	sw	a5,-20(s0)
/home/jw/Desktop/sifive-standalone-project/freedom-metal/src/drivers/riscv_cpu.c:321
    val &= ~(METAL_MTVEC_CLIC_VECTORED | METAL_MTVEC_CLIC_RESERVED);
20014046:	fec42783          	lw	a5,-20(s0)
2001404a:	fc07f793          	andi	a5,a5,-64
2001404e:	fef42623          	sw	a5,-20(s0)
/home/jw/Desktop/sifive-standalone-project/freedom-metal/src/drivers/riscv_cpu.c:322
    trap_entry = (uintptr_t)vec_table;
20014052:	fd842783          	lw	a5,-40(s0)
20014056:	fef42423          	sw	a5,-24(s0)
/home/jw/Desktop/sifive-standalone-project/freedom-metal/src/drivers/riscv_cpu.c:324

    switch (mode) {
2001405a:	fdc42703          	lw	a4,-36(s0)
2001405e:	4791                	li	a5,4
20014060:	04f70563          	beq	a4,a5,200140aa <__metal_controller_interrupt_vector+0x7a>
20014064:	fdc42703          	lw	a4,-36(s0)
20014068:	4791                	li	a5,4
2001406a:	06e7e863          	bltu	a5,a4,200140da <__metal_controller_interrupt_vector+0xaa>
2001406e:	fdc42703          	lw	a4,-36(s0)
20014072:	478d                	li	a5,3
20014074:	06e7e363          	bltu	a5,a4,200140da <__metal_controller_interrupt_vector+0xaa>
20014078:	fdc42703          	lw	a4,-36(s0)
2001407c:	4789                	li	a5,2
2001407e:	00f77b63          	bgeu	a4,a5,20014094 <__metal_controller_interrupt_vector+0x64>
20014082:	fdc42783          	lw	a5,-36(s0)
20014086:	c7a1                	beqz	a5,200140ce <__metal_controller_interrupt_vector+0x9e>
20014088:	fdc42703          	lw	a4,-36(s0)
2001408c:	4785                	li	a5,1
2001408e:	02f70963          	beq	a4,a5,200140c0 <__metal_controller_interrupt_vector+0x90>
/home/jw/Desktop/sifive-standalone-project/freedom-metal/src/drivers/riscv_cpu.c:344
    case METAL_DIRECT_MODE:
        __asm__ volatile(
            "csrw mtvec, %0" ::"r"(trap_entry & ~METAL_MTVEC_CLIC_VECTORED));
        break;
    }
}
20014092:	a0a1                	j	200140da <__metal_controller_interrupt_vector+0xaa>
/home/jw/Desktop/sifive-standalone-project/freedom-metal/src/drivers/riscv_cpu.c:327
        __asm__ volatile("csrw 0x307, %0" ::"r"(trap_entry));
20014094:	fe842783          	lw	a5,-24(s0)
20014098:	30779073          	csrw	mtvt,a5
/home/jw/Desktop/sifive-standalone-project/freedom-metal/src/drivers/riscv_cpu.c:328
        __asm__ volatile("csrw mtvec, %0" ::"r"(val | METAL_MTVEC_CLIC));
2001409c:	fec42783          	lw	a5,-20(s0)
200140a0:	0027e793          	ori	a5,a5,2
200140a4:	30579073          	csrw	mtvec,a5
/home/jw/Desktop/sifive-standalone-project/freedom-metal/src/drivers/riscv_cpu.c:329
        break;
200140a8:	a80d                	j	200140da <__metal_controller_interrupt_vector+0xaa>
/home/jw/Desktop/sifive-standalone-project/freedom-metal/src/drivers/riscv_cpu.c:331
        __asm__ volatile("csrw 0x307, %0" ::"r"(trap_entry));
200140aa:	fe842783          	lw	a5,-24(s0)
200140ae:	30779073          	csrw	mtvt,a5
/home/jw/Desktop/sifive-standalone-project/freedom-metal/src/drivers/riscv_cpu.c:333
            "csrw mtvec, %0" ::"r"(val | METAL_MTVEC_CLIC_VECTORED));
200140b2:	fec42783          	lw	a5,-20(s0)
200140b6:	0037e793          	ori	a5,a5,3
/home/jw/Desktop/sifive-standalone-project/freedom-metal/src/drivers/riscv_cpu.c:332
        __asm__ volatile(
200140ba:	30579073          	csrw	mtvec,a5
/home/jw/Desktop/sifive-standalone-project/freedom-metal/src/drivers/riscv_cpu.c:334
        break;
200140be:	a831                	j	200140da <__metal_controller_interrupt_vector+0xaa>
/home/jw/Desktop/sifive-standalone-project/freedom-metal/src/drivers/riscv_cpu.c:337
            "csrw mtvec, %0" ::"r"(trap_entry | METAL_MTVEC_VECTORED));
200140c0:	fe842783          	lw	a5,-24(s0)
200140c4:	0017e793          	ori	a5,a5,1
/home/jw/Desktop/sifive-standalone-project/freedom-metal/src/drivers/riscv_cpu.c:336
        __asm__ volatile(
200140c8:	30579073          	csrw	mtvec,a5
/home/jw/Desktop/sifive-standalone-project/freedom-metal/src/drivers/riscv_cpu.c:338
        break;
200140cc:	a039                	j	200140da <__metal_controller_interrupt_vector+0xaa>
/home/jw/Desktop/sifive-standalone-project/freedom-metal/src/drivers/riscv_cpu.c:341
            "csrw mtvec, %0" ::"r"(trap_entry & ~METAL_MTVEC_CLIC_VECTORED));
200140ce:	fe842783          	lw	a5,-24(s0)
200140d2:	9bf1                	andi	a5,a5,-4
/home/jw/Desktop/sifive-standalone-project/freedom-metal/src/drivers/riscv_cpu.c:340
        __asm__ volatile(
200140d4:	30579073          	csrw	mtvec,a5
/home/jw/Desktop/sifive-standalone-project/freedom-metal/src/drivers/riscv_cpu.c:342
        break;
200140d8:	0001                	nop
/home/jw/Desktop/sifive-standalone-project/freedom-metal/src/drivers/riscv_cpu.c:344
}
200140da:	0001                	nop
200140dc:	5432                	lw	s0,44(sp)
200140de:	6145                	addi	sp,sp,48
200140e0:	8082                	ret

200140e2 <__metal_valid_interrupt_id>:
__metal_valid_interrupt_id():
/home/jw/Desktop/sifive-standalone-project/freedom-metal/src/drivers/riscv_cpu.c:346

int __metal_valid_interrupt_id(int id) {
200140e2:	1101                	addi	sp,sp,-32
200140e4:	ce22                	sw	s0,28(sp)
200140e6:	1000                	addi	s0,sp,32
200140e8:	fea42623          	sw	a0,-20(s0)
/home/jw/Desktop/sifive-standalone-project/freedom-metal/src/drivers/riscv_cpu.c:347
    switch (id) {
200140ec:	fec42703          	lw	a4,-20(s0)
200140f0:	47fd                	li	a5,31
200140f2:	02e7c663          	blt	a5,a4,2001411e <__metal_valid_interrupt_id+0x3c>
200140f6:	fec42703          	lw	a4,-20(s0)
200140fa:	478d                	li	a5,3
200140fc:	02f74963          	blt	a4,a5,2001412e <__metal_valid_interrupt_id+0x4c>
20014100:	fec42783          	lw	a5,-20(s0)
20014104:	4705                	li	a4,1
20014106:	00f71733          	sll	a4,a4,a5
2001410a:	77c5                	lui	a5,0xffff1
2001410c:	88878793          	addi	a5,a5,-1912 # ffff0888 <metal_segment_heap_target_end+0x7ffef118>
20014110:	8ff9                	and	a5,a5,a4
20014112:	00f037b3          	snez	a5,a5
20014116:	0ff7f793          	zext.b	a5,a5
2001411a:	eb81                	bnez	a5,2001412a <__metal_valid_interrupt_id+0x48>
/home/jw/Desktop/sifive-standalone-project/freedom-metal/src/drivers/riscv_cpu.c:370
    case METAL_INTERRUPT_ID_LC14:
    case METAL_INTERRUPT_ID_LC15:
    case METAL_INTERRUPT_ID_BEU:
        return 1;
    default:
        break;
2001411c:	a809                	j	2001412e <__metal_valid_interrupt_id+0x4c>
/home/jw/Desktop/sifive-standalone-project/freedom-metal/src/drivers/riscv_cpu.c:347
    switch (id) {
2001411e:	fec42703          	lw	a4,-20(s0)
20014122:	08000793          	li	a5,128
20014126:	00f71463          	bne	a4,a5,2001412e <__metal_valid_interrupt_id+0x4c>
/home/jw/Desktop/sifive-standalone-project/freedom-metal/src/drivers/riscv_cpu.c:368
        return 1;
2001412a:	4785                	li	a5,1
2001412c:	a019                	j	20014132 <__metal_valid_interrupt_id+0x50>
/home/jw/Desktop/sifive-standalone-project/freedom-metal/src/drivers/riscv_cpu.c:370
        break;
2001412e:	0001                	nop
/home/jw/Desktop/sifive-standalone-project/freedom-metal/src/drivers/riscv_cpu.c:373
    }

    return 0;
20014130:	4781                	li	a5,0
/home/jw/Desktop/sifive-standalone-project/freedom-metal/src/drivers/riscv_cpu.c:374
}
20014132:	853e                	mv	a0,a5
20014134:	4472                	lw	s0,28(sp)
20014136:	6105                	addi	sp,sp,32
20014138:	8082                	ret

2001413a <__metal_local_interrupt_enable>:
__metal_local_interrupt_enable():
/home/jw/Desktop/sifive-standalone-project/freedom-metal/src/drivers/riscv_cpu.c:377

int __metal_local_interrupt_enable(struct metal_interrupt *controller,
                                   metal_interrupt_id_e id, int enable) {
2001413a:	7179                	addi	sp,sp,-48
2001413c:	d606                	sw	ra,44(sp)
2001413e:	d422                	sw	s0,40(sp)
20014140:	1800                	addi	s0,sp,48
20014142:	fca42e23          	sw	a0,-36(s0)
20014146:	fcb42c23          	sw	a1,-40(s0)
2001414a:	fcc42a23          	sw	a2,-44(s0)
/home/jw/Desktop/sifive-standalone-project/freedom-metal/src/drivers/riscv_cpu.c:378
    int rc = 0;
2001414e:	fe042623          	sw	zero,-20(s0)
/home/jw/Desktop/sifive-standalone-project/freedom-metal/src/drivers/riscv_cpu.c:380

    if (!controller) {
20014152:	fdc42783          	lw	a5,-36(s0)
20014156:	e399                	bnez	a5,2001415c <__metal_local_interrupt_enable+0x22>
/home/jw/Desktop/sifive-standalone-project/freedom-metal/src/drivers/riscv_cpu.c:381
        return -1;
20014158:	57fd                	li	a5,-1
2001415a:	a849                	j	200141ec <__metal_local_interrupt_enable+0xb2>
2001415c:	fd842703          	lw	a4,-40(s0)
20014160:	47fd                	li	a5,31
20014162:	08e7e063          	bltu	a5,a4,200141e2 <__metal_local_interrupt_enable+0xa8>
20014166:	fd842783          	lw	a5,-40(s0)
2001416a:	00279713          	slli	a4,a5,0x2
2001416e:	200107b7          	lui	a5,0x20010
20014172:	51078793          	addi	a5,a5,1296 # 20010510 <__metal_driver_vtable_riscv_clint0+0x64>
20014176:	97ba                	add	a5,a5,a4
20014178:	439c                	lw	a5,0(a5)
2001417a:	8782                	jr	a5
/home/jw/Desktop/sifive-standalone-project/freedom-metal/src/drivers/riscv_cpu.c:386
    }

    switch (id) {
    case METAL_INTERRUPT_ID_BASE:
        if (enable) {
2001417c:	fd442783          	lw	a5,-44(s0)
20014180:	c781                	beqz	a5,20014188 <__metal_local_interrupt_enable+0x4e>
/home/jw/Desktop/sifive-standalone-project/freedom-metal/src/drivers/riscv_cpu.c:387
            __metal_interrupt_global_enable();
20014182:	f47fe0ef          	jal	ra,200130c8 <__metal_interrupt_global_enable>
/home/jw/Desktop/sifive-standalone-project/freedom-metal/src/drivers/riscv_cpu.c:391
        } else {
            __metal_interrupt_global_disable();
        }
        break;
20014186:	a08d                	j	200141e8 <__metal_local_interrupt_enable+0xae>
/home/jw/Desktop/sifive-standalone-project/freedom-metal/src/drivers/riscv_cpu.c:389
            __metal_interrupt_global_disable();
20014188:	f59fe0ef          	jal	ra,200130e0 <__metal_interrupt_global_disable>
/home/jw/Desktop/sifive-standalone-project/freedom-metal/src/drivers/riscv_cpu.c:391
        break;
2001418c:	a8b1                	j	200141e8 <__metal_local_interrupt_enable+0xae>
/home/jw/Desktop/sifive-standalone-project/freedom-metal/src/drivers/riscv_cpu.c:393
    case METAL_INTERRUPT_ID_SW:
        if (enable) {
2001418e:	fd442783          	lw	a5,-44(s0)
20014192:	c781                	beqz	a5,2001419a <__metal_local_interrupt_enable+0x60>
/home/jw/Desktop/sifive-standalone-project/freedom-metal/src/drivers/riscv_cpu.c:394
            __metal_interrupt_software_enable();
20014194:	f65fe0ef          	jal	ra,200130f8 <__metal_interrupt_software_enable>
/home/jw/Desktop/sifive-standalone-project/freedom-metal/src/drivers/riscv_cpu.c:398
        } else {
            __metal_interrupt_software_disable();
        }
        break;
20014198:	a881                	j	200141e8 <__metal_local_interrupt_enable+0xae>
/home/jw/Desktop/sifive-standalone-project/freedom-metal/src/drivers/riscv_cpu.c:396
            __metal_interrupt_software_disable();
2001419a:	f77fe0ef          	jal	ra,20013110 <__metal_interrupt_software_disable>
/home/jw/Desktop/sifive-standalone-project/freedom-metal/src/drivers/riscv_cpu.c:398
        break;
2001419e:	a0a9                	j	200141e8 <__metal_local_interrupt_enable+0xae>
/home/jw/Desktop/sifive-standalone-project/freedom-metal/src/drivers/riscv_cpu.c:400
    case METAL_INTERRUPT_ID_TMR:
        if (enable) {
200141a0:	fd442783          	lw	a5,-44(s0)
200141a4:	c781                	beqz	a5,200141ac <__metal_local_interrupt_enable+0x72>
/home/jw/Desktop/sifive-standalone-project/freedom-metal/src/drivers/riscv_cpu.c:401
            __metal_interrupt_timer_enable();
200141a6:	f83fe0ef          	jal	ra,20013128 <__metal_interrupt_timer_enable>
/home/jw/Desktop/sifive-standalone-project/freedom-metal/src/drivers/riscv_cpu.c:405
        } else {
            __metal_interrupt_timer_disable();
        }
        break;
200141aa:	a83d                	j	200141e8 <__metal_local_interrupt_enable+0xae>
/home/jw/Desktop/sifive-standalone-project/freedom-metal/src/drivers/riscv_cpu.c:403
            __metal_interrupt_timer_disable();
200141ac:	f97fe0ef          	jal	ra,20013142 <__metal_interrupt_timer_disable>
/home/jw/Desktop/sifive-standalone-project/freedom-metal/src/drivers/riscv_cpu.c:405
        break;
200141b0:	a825                	j	200141e8 <__metal_local_interrupt_enable+0xae>
/home/jw/Desktop/sifive-standalone-project/freedom-metal/src/drivers/riscv_cpu.c:407
    case METAL_INTERRUPT_ID_EXT:
        if (enable) {
200141b2:	fd442783          	lw	a5,-44(s0)
200141b6:	c781                	beqz	a5,200141be <__metal_local_interrupt_enable+0x84>
/home/jw/Desktop/sifive-standalone-project/freedom-metal/src/drivers/riscv_cpu.c:408
            __metal_interrupt_external_enable();
200141b8:	fa5fe0ef          	jal	ra,2001315c <__metal_interrupt_external_enable>
/home/jw/Desktop/sifive-standalone-project/freedom-metal/src/drivers/riscv_cpu.c:412
        } else {
            __metal_interrupt_external_disable();
        }
        break;
200141bc:	a035                	j	200141e8 <__metal_local_interrupt_enable+0xae>
/home/jw/Desktop/sifive-standalone-project/freedom-metal/src/drivers/riscv_cpu.c:410
            __metal_interrupt_external_disable();
200141be:	fbbfe0ef          	jal	ra,20013178 <__metal_interrupt_external_disable>
/home/jw/Desktop/sifive-standalone-project/freedom-metal/src/drivers/riscv_cpu.c:412
        break;
200141c2:	a01d                	j	200141e8 <__metal_local_interrupt_enable+0xae>
/home/jw/Desktop/sifive-standalone-project/freedom-metal/src/drivers/riscv_cpu.c:429
    case METAL_INTERRUPT_ID_LC11:
    case METAL_INTERRUPT_ID_LC12:
    case METAL_INTERRUPT_ID_LC13:
    case METAL_INTERRUPT_ID_LC14:
    case METAL_INTERRUPT_ID_LC15:
        if (enable) {
200141c4:	fd442783          	lw	a5,-44(s0)
200141c8:	c799                	beqz	a5,200141d6 <__metal_local_interrupt_enable+0x9c>
/home/jw/Desktop/sifive-standalone-project/freedom-metal/src/drivers/riscv_cpu.c:430
            __metal_interrupt_local_enable(id);
200141ca:	fd842783          	lw	a5,-40(s0)
200141ce:	853e                	mv	a0,a5
200141d0:	fc5fe0ef          	jal	ra,20013194 <__metal_interrupt_local_enable>
/home/jw/Desktop/sifive-standalone-project/freedom-metal/src/drivers/riscv_cpu.c:434
        } else {
            __metal_interrupt_local_disable(id);
        }
        break;
200141d4:	a811                	j	200141e8 <__metal_local_interrupt_enable+0xae>
/home/jw/Desktop/sifive-standalone-project/freedom-metal/src/drivers/riscv_cpu.c:432
            __metal_interrupt_local_disable(id);
200141d6:	fd842783          	lw	a5,-40(s0)
200141da:	853e                	mv	a0,a5
200141dc:	fe5fe0ef          	jal	ra,200131c0 <__metal_interrupt_local_disable>
/home/jw/Desktop/sifive-standalone-project/freedom-metal/src/drivers/riscv_cpu.c:434
        break;
200141e0:	a021                	j	200141e8 <__metal_local_interrupt_enable+0xae>
/home/jw/Desktop/sifive-standalone-project/freedom-metal/src/drivers/riscv_cpu.c:436
    default:
        rc = -1;
200141e2:	57fd                	li	a5,-1
200141e4:	fef42623          	sw	a5,-20(s0)
/home/jw/Desktop/sifive-standalone-project/freedom-metal/src/drivers/riscv_cpu.c:438
    }
    return rc;
200141e8:	fec42783          	lw	a5,-20(s0)
/home/jw/Desktop/sifive-standalone-project/freedom-metal/src/drivers/riscv_cpu.c:439
}
200141ec:	853e                	mv	a0,a5
200141ee:	50b2                	lw	ra,44(sp)
200141f0:	5422                	lw	s0,40(sp)
200141f2:	6145                	addi	sp,sp,48
200141f4:	8082                	ret

200141f6 <__metal_exception_register>:
__metal_exception_register():
/home/jw/Desktop/sifive-standalone-project/freedom-metal/src/drivers/riscv_cpu.c:442

int __metal_exception_register(struct metal_interrupt *controller, int ecode,
                               metal_exception_handler_t isr) {
200141f6:	7179                	addi	sp,sp,-48
200141f8:	d622                	sw	s0,44(sp)
200141fa:	1800                	addi	s0,sp,48
200141fc:	fca42e23          	sw	a0,-36(s0)
20014200:	fcb42c23          	sw	a1,-40(s0)
20014204:	fcc42a23          	sw	a2,-44(s0)
/home/jw/Desktop/sifive-standalone-project/freedom-metal/src/drivers/riscv_cpu.c:443
    struct __metal_driver_riscv_cpu_intc *intc = (void *)(controller);
20014208:	fdc42783          	lw	a5,-36(s0)
2001420c:	fef42623          	sw	a5,-20(s0)
/home/jw/Desktop/sifive-standalone-project/freedom-metal/src/drivers/riscv_cpu.c:445

    if ((ecode < METAL_MAX_EXCEPTION_CODE) && isr) {
20014210:	fd842703          	lw	a4,-40(s0)
20014214:	47ad                	li	a5,11
20014216:	02e7c263          	blt	a5,a4,2001423a <__metal_exception_register+0x44>
/home/jw/Desktop/sifive-standalone-project/freedom-metal/src/drivers/riscv_cpu.c:445 (discriminator 1)
2001421a:	fd442783          	lw	a5,-44(s0)
2001421e:	cf91                	beqz	a5,2001423a <__metal_exception_register+0x44>
/home/jw/Desktop/sifive-standalone-project/freedom-metal/src/drivers/riscv_cpu.c:446
        intc->metal_exception_table[ecode] = isr;
20014220:	fec42703          	lw	a4,-20(s0)
20014224:	fd842783          	lw	a5,-40(s0)
20014228:	0e878793          	addi	a5,a5,232
2001422c:	078a                	slli	a5,a5,0x2
2001422e:	97ba                	add	a5,a5,a4
20014230:	fd442703          	lw	a4,-44(s0)
20014234:	c398                	sw	a4,0(a5)
/home/jw/Desktop/sifive-standalone-project/freedom-metal/src/drivers/riscv_cpu.c:447
        return 0;
20014236:	4781                	li	a5,0
20014238:	a011                	j	2001423c <__metal_exception_register+0x46>
/home/jw/Desktop/sifive-standalone-project/freedom-metal/src/drivers/riscv_cpu.c:449
    }
    return -1;
2001423a:	57fd                	li	a5,-1
/home/jw/Desktop/sifive-standalone-project/freedom-metal/src/drivers/riscv_cpu.c:450
}
2001423c:	853e                	mv	a0,a5
2001423e:	5432                	lw	s0,44(sp)
20014240:	6145                	addi	sp,sp,48
20014242:	8082                	ret

20014244 <__metal_driver_riscv_cpu_controller_interrupt_init>:
__metal_driver_riscv_cpu_controller_interrupt_init():
/home/jw/Desktop/sifive-standalone-project/freedom-metal/src/drivers/riscv_cpu.c:454

extern void early_trap_vector(void);
void __metal_driver_riscv_cpu_controller_interrupt_init(
    struct metal_interrupt *controller) {
20014244:	7179                	addi	sp,sp,-48
20014246:	d606                	sw	ra,44(sp)
20014248:	d422                	sw	s0,40(sp)
2001424a:	1800                	addi	s0,sp,48
2001424c:	fca42e23          	sw	a0,-36(s0)
/home/jw/Desktop/sifive-standalone-project/freedom-metal/src/drivers/riscv_cpu.c:455
    struct __metal_driver_riscv_cpu_intc *intc = (void *)(controller);
20014250:	fdc42783          	lw	a5,-36(s0)
20014254:	fef42223          	sw	a5,-28(s0)
/home/jw/Desktop/sifive-standalone-project/freedom-metal/src/drivers/riscv_cpu.c:457

    if (!intc->init_done) {
20014258:	fe442783          	lw	a5,-28(s0)
2001425c:	43dc                	lw	a5,4(a5)
2001425e:	efdd                	bnez	a5,2001431c <__metal_driver_riscv_cpu_controller_interrupt_init+0xd8>
/home/jw/Desktop/sifive-standalone-project/freedom-metal/src/drivers/riscv_cpu.c:459
        /* Default to use direct interrupt, setup sw cb table*/
        for (int i = 0; i < METAL_MAX_MI; i++) {
20014260:	fe042623          	sw	zero,-20(s0)
20014264:	a0b9                	j	200142b2 <__metal_driver_riscv_cpu_controller_interrupt_init+0x6e>
/home/jw/Desktop/sifive-standalone-project/freedom-metal/src/drivers/riscv_cpu.c:460 (discriminator 3)
            intc->metal_int_table[i].handler = NULL;
20014266:	fe442683          	lw	a3,-28(s0)
2001426a:	fec42703          	lw	a4,-20(s0)
2001426e:	87ba                	mv	a5,a4
20014270:	0786                	slli	a5,a5,0x1
20014272:	97ba                	add	a5,a5,a4
20014274:	078e                	slli	a5,a5,0x3
20014276:	97b6                	add	a5,a5,a3
20014278:	0807a823          	sw	zero,144(a5)
/home/jw/Desktop/sifive-standalone-project/freedom-metal/src/drivers/riscv_cpu.c:461 (discriminator 3)
            intc->metal_int_table[i].sub_int = NULL;
2001427c:	fe442683          	lw	a3,-28(s0)
20014280:	fec42703          	lw	a4,-20(s0)
20014284:	87ba                	mv	a5,a4
20014286:	0786                	slli	a5,a5,0x1
20014288:	97ba                	add	a5,a5,a4
2001428a:	078e                	slli	a5,a5,0x3
2001428c:	97b6                	add	a5,a5,a3
2001428e:	0807aa23          	sw	zero,148(a5)
/home/jw/Desktop/sifive-standalone-project/freedom-metal/src/drivers/riscv_cpu.c:462 (discriminator 3)
            intc->metal_int_table[i].exint_data = NULL;
20014292:	fe442683          	lw	a3,-28(s0)
20014296:	fec42703          	lw	a4,-20(s0)
2001429a:	87ba                	mv	a5,a4
2001429c:	0786                	slli	a5,a5,0x1
2001429e:	97ba                	add	a5,a5,a4
200142a0:	078e                	slli	a5,a5,0x3
200142a2:	97b6                	add	a5,a5,a3
200142a4:	0807ac23          	sw	zero,152(a5)
/home/jw/Desktop/sifive-standalone-project/freedom-metal/src/drivers/riscv_cpu.c:459 (discriminator 3)
        for (int i = 0; i < METAL_MAX_MI; i++) {
200142a8:	fec42783          	lw	a5,-20(s0)
200142ac:	0785                	addi	a5,a5,1
200142ae:	fef42623          	sw	a5,-20(s0)
/home/jw/Desktop/sifive-standalone-project/freedom-metal/src/drivers/riscv_cpu.c:459 (discriminator 1)
200142b2:	fec42703          	lw	a4,-20(s0)
200142b6:	47fd                	li	a5,31
200142b8:	fae7d7e3          	bge	a5,a4,20014266 <__metal_driver_riscv_cpu_controller_interrupt_init+0x22>
/home/jw/Desktop/sifive-standalone-project/freedom-metal/src/drivers/riscv_cpu.c:465
        }

        for (int i = 0; i < METAL_MAX_ME; i++) {
200142bc:	fe042423          	sw	zero,-24(s0)
200142c0:	a01d                	j	200142e6 <__metal_driver_riscv_cpu_controller_interrupt_init+0xa2>
/home/jw/Desktop/sifive-standalone-project/freedom-metal/src/drivers/riscv_cpu.c:466 (discriminator 3)
            intc->metal_exception_table[i] = __metal_default_exception_handler;
200142c2:	fe442703          	lw	a4,-28(s0)
200142c6:	fe842783          	lw	a5,-24(s0)
200142ca:	0e878793          	addi	a5,a5,232
200142ce:	078a                	slli	a5,a5,0x2
200142d0:	97ba                	add	a5,a5,a4
200142d2:	20013737          	lui	a4,0x20013
200142d6:	1ec70713          	addi	a4,a4,492 # 200131ec <__metal_default_exception_handler>
200142da:	c398                	sw	a4,0(a5)
/home/jw/Desktop/sifive-standalone-project/freedom-metal/src/drivers/riscv_cpu.c:465 (discriminator 3)
        for (int i = 0; i < METAL_MAX_ME; i++) {
200142dc:	fe842783          	lw	a5,-24(s0)
200142e0:	0785                	addi	a5,a5,1
200142e2:	fef42423          	sw	a5,-24(s0)
/home/jw/Desktop/sifive-standalone-project/freedom-metal/src/drivers/riscv_cpu.c:465 (discriminator 1)
200142e6:	fe842703          	lw	a4,-24(s0)
200142ea:	47ad                	li	a5,11
200142ec:	fce7dbe3          	bge	a5,a4,200142c2 <__metal_driver_riscv_cpu_controller_interrupt_init+0x7e>
/home/jw/Desktop/sifive-standalone-project/freedom-metal/src/drivers/riscv_cpu.c:475
         * Set the real trap handler if the value of mtvec is equal to
         * early_trap_vector. If mtvec is not equal to early_trap_vector,
         * that means user has own trap handler, then we don't overwrite it.
         */
        uintptr_t mtvec;
        __asm__ volatile("csrr %0, mtvec" : "=r"(mtvec));
200142f0:	305027f3          	csrr	a5,mtvec
200142f4:	fef42023          	sw	a5,-32(s0)
/home/jw/Desktop/sifive-standalone-project/freedom-metal/src/drivers/riscv_cpu.c:476
        if (mtvec == (uintptr_t)&early_trap_vector) {
200142f8:	200107b7          	lui	a5,0x20010
200142fc:	13478793          	addi	a5,a5,308 # 20010134 <early_trap_vector>
20014300:	fe042703          	lw	a4,-32(s0)
20014304:	00f71863          	bne	a4,a5,20014314 <__metal_driver_riscv_cpu_controller_interrupt_init+0xd0>
/home/jw/Desktop/sifive-standalone-project/freedom-metal/src/drivers/riscv_cpu.c:477
            __metal_controller_interrupt_vector(
20014308:	200137b7          	lui	a5,0x20013
2001430c:	48078593          	addi	a1,a5,1152 # 20013480 <__metal_exception_handler>
20014310:	4501                	li	a0,0
20014312:	3b39                	jal	20014030 <__metal_controller_interrupt_vector>
/home/jw/Desktop/sifive-standalone-project/freedom-metal/src/drivers/riscv_cpu.c:481
                METAL_DIRECT_MODE,
                (void *)(uintptr_t)&__metal_exception_handler);
        }
        intc->init_done = 1;
20014314:	fe442783          	lw	a5,-28(s0)
20014318:	4705                	li	a4,1
2001431a:	c3d8                	sw	a4,4(a5)
/home/jw/Desktop/sifive-standalone-project/freedom-metal/src/drivers/riscv_cpu.c:483
    }
}
2001431c:	0001                	nop
2001431e:	50b2                	lw	ra,44(sp)
20014320:	5422                	lw	s0,40(sp)
20014322:	6145                	addi	sp,sp,48
20014324:	8082                	ret

20014326 <__metal_driver_riscv_cpu_controller_interrupt_register>:
__metal_driver_riscv_cpu_controller_interrupt_register():
/home/jw/Desktop/sifive-standalone-project/freedom-metal/src/drivers/riscv_cpu.c:487

int __metal_driver_riscv_cpu_controller_interrupt_register(
    struct metal_interrupt *controller, int id, metal_interrupt_handler_t isr,
    void *priv) {
20014326:	7179                	addi	sp,sp,-48
20014328:	d606                	sw	ra,44(sp)
2001432a:	d422                	sw	s0,40(sp)
2001432c:	1800                	addi	s0,sp,48
2001432e:	fca42e23          	sw	a0,-36(s0)
20014332:	fcb42c23          	sw	a1,-40(s0)
20014336:	fcc42a23          	sw	a2,-44(s0)
2001433a:	fcd42823          	sw	a3,-48(s0)
/home/jw/Desktop/sifive-standalone-project/freedom-metal/src/drivers/riscv_cpu.c:488
    int rc = 0;
2001433e:	fe042623          	sw	zero,-20(s0)
/home/jw/Desktop/sifive-standalone-project/freedom-metal/src/drivers/riscv_cpu.c:489
    struct __metal_driver_riscv_cpu_intc *intc = (void *)(controller);
20014342:	fdc42783          	lw	a5,-36(s0)
20014346:	fef42423          	sw	a5,-24(s0)
/home/jw/Desktop/sifive-standalone-project/freedom-metal/src/drivers/riscv_cpu.c:491

    if (!__metal_valid_interrupt_id(id)) {
2001434a:	fd842503          	lw	a0,-40(s0)
2001434e:	3b51                	jal	200140e2 <__metal_valid_interrupt_id>
20014350:	87aa                	mv	a5,a0
20014352:	e399                	bnez	a5,20014358 <__metal_driver_riscv_cpu_controller_interrupt_register+0x32>
/home/jw/Desktop/sifive-standalone-project/freedom-metal/src/drivers/riscv_cpu.c:492
        return -11;
20014354:	57d5                	li	a5,-11
20014356:	a25d                	j	200144fc <__metal_driver_riscv_cpu_controller_interrupt_register+0x1d6>
/home/jw/Desktop/sifive-standalone-project/freedom-metal/src/drivers/riscv_cpu.c:494
    }
    if ((id == METAL_INTERRUPT_ID_BEU) &&
20014358:	fd842703          	lw	a4,-40(s0)
2001435c:	08000793          	li	a5,128
20014360:	00f71763          	bne	a4,a5,2001436e <__metal_driver_riscv_cpu_controller_interrupt_register+0x48>
/home/jw/Desktop/sifive-standalone-project/freedom-metal/src/drivers/riscv_cpu.c:495 (discriminator 1)
        (__metal_controller_interrupt_vector_mode() != METAL_DIRECT_MODE)) {
20014364:	3995                	jal	20013fd8 <__metal_controller_interrupt_vector_mode>
20014366:	87aa                	mv	a5,a0
/home/jw/Desktop/sifive-standalone-project/freedom-metal/src/drivers/riscv_cpu.c:494 (discriminator 1)
    if ((id == METAL_INTERRUPT_ID_BEU) &&
20014368:	c399                	beqz	a5,2001436e <__metal_driver_riscv_cpu_controller_interrupt_register+0x48>
/home/jw/Desktop/sifive-standalone-project/freedom-metal/src/drivers/riscv_cpu.c:498
        /* Only allow registration of the bus error unit interrupt if
         * interrupt vectoring if off */
        return -13;
2001436a:	57cd                	li	a5,-13
2001436c:	aa41                	j	200144fc <__metal_driver_riscv_cpu_controller_interrupt_register+0x1d6>
/home/jw/Desktop/sifive-standalone-project/freedom-metal/src/drivers/riscv_cpu.c:501
    }

    if (isr) {
2001436e:	fd442783          	lw	a5,-44(s0)
20014372:	cfb9                	beqz	a5,200143d0 <__metal_driver_riscv_cpu_controller_interrupt_register+0xaa>
/home/jw/Desktop/sifive-standalone-project/freedom-metal/src/drivers/riscv_cpu.c:502
        if (id == METAL_INTERRUPT_ID_BEU) {
20014374:	fd842703          	lw	a4,-40(s0)
20014378:	08000793          	li	a5,128
2001437c:	00f71f63          	bne	a4,a5,2001439a <__metal_driver_riscv_cpu_controller_interrupt_register+0x74>
/home/jw/Desktop/sifive-standalone-project/freedom-metal/src/drivers/riscv_cpu.c:503
            intc->metal_int_beu.handler = isr;
20014380:	fe842783          	lw	a5,-24(s0)
20014384:	fd442703          	lw	a4,-44(s0)
20014388:	38e7a823          	sw	a4,912(a5)
/home/jw/Desktop/sifive-standalone-project/freedom-metal/src/drivers/riscv_cpu.c:504
            intc->metal_int_beu.exint_data = priv;
2001438c:	fe842783          	lw	a5,-24(s0)
20014390:	fd042703          	lw	a4,-48(s0)
20014394:	38e7ac23          	sw	a4,920(a5)
20014398:	a285                	j	200144f8 <__metal_driver_riscv_cpu_controller_interrupt_register+0x1d2>
/home/jw/Desktop/sifive-standalone-project/freedom-metal/src/drivers/riscv_cpu.c:506
        } else {
            intc->metal_int_table[id].handler = isr;
2001439a:	fe842683          	lw	a3,-24(s0)
2001439e:	fd842703          	lw	a4,-40(s0)
200143a2:	87ba                	mv	a5,a4
200143a4:	0786                	slli	a5,a5,0x1
200143a6:	97ba                	add	a5,a5,a4
200143a8:	078e                	slli	a5,a5,0x3
200143aa:	97b6                	add	a5,a5,a3
200143ac:	fd442703          	lw	a4,-44(s0)
200143b0:	08e7a823          	sw	a4,144(a5)
/home/jw/Desktop/sifive-standalone-project/freedom-metal/src/drivers/riscv_cpu.c:507
            intc->metal_int_table[id].exint_data = priv;
200143b4:	fe842683          	lw	a3,-24(s0)
200143b8:	fd842703          	lw	a4,-40(s0)
200143bc:	87ba                	mv	a5,a4
200143be:	0786                	slli	a5,a5,0x1
200143c0:	97ba                	add	a5,a5,a4
200143c2:	078e                	slli	a5,a5,0x3
200143c4:	97b6                	add	a5,a5,a3
200143c6:	fd042703          	lw	a4,-48(s0)
200143ca:	08e7ac23          	sw	a4,152(a5)
200143ce:	a22d                	j	200144f8 <__metal_driver_riscv_cpu_controller_interrupt_register+0x1d2>
/home/jw/Desktop/sifive-standalone-project/freedom-metal/src/drivers/riscv_cpu.c:510
        }
    } else {
        switch (id) {
200143d0:	fd842703          	lw	a4,-40(s0)
200143d4:	08000793          	li	a5,128
200143d8:	0cf70163          	beq	a4,a5,2001449a <__metal_driver_riscv_cpu_controller_interrupt_register+0x174>
200143dc:	fd842703          	lw	a4,-40(s0)
200143e0:	08000793          	li	a5,128
200143e4:	10e7c763          	blt	a5,a4,200144f2 <__metal_driver_riscv_cpu_controller_interrupt_register+0x1cc>
200143e8:	fd842703          	lw	a4,-40(s0)
200143ec:	47fd                	li	a5,31
200143ee:	10e7c263          	blt	a5,a4,200144f2 <__metal_driver_riscv_cpu_controller_interrupt_register+0x1cc>
200143f2:	fd842703          	lw	a4,-40(s0)
200143f6:	47c1                	li	a5,16
200143f8:	0cf75063          	bge	a4,a5,200144b8 <__metal_driver_riscv_cpu_controller_interrupt_register+0x192>
200143fc:	fd842703          	lw	a4,-40(s0)
20014400:	47ad                	li	a5,11
20014402:	0af70b63          	beq	a4,a5,200144b8 <__metal_driver_riscv_cpu_controller_interrupt_register+0x192>
20014406:	fd842703          	lw	a4,-40(s0)
2001440a:	47ad                	li	a5,11
2001440c:	0ee7c363          	blt	a5,a4,200144f2 <__metal_driver_riscv_cpu_controller_interrupt_register+0x1cc>
20014410:	fd842703          	lw	a4,-40(s0)
20014414:	478d                	li	a5,3
20014416:	00f70863          	beq	a4,a5,20014426 <__metal_driver_riscv_cpu_controller_interrupt_register+0x100>
2001441a:	fd842703          	lw	a4,-40(s0)
2001441e:	479d                	li	a5,7
20014420:	04f70063          	beq	a4,a5,20014460 <__metal_driver_riscv_cpu_controller_interrupt_register+0x13a>
20014424:	a0f9                	j	200144f2 <__metal_driver_riscv_cpu_controller_interrupt_register+0x1cc>
/home/jw/Desktop/sifive-standalone-project/freedom-metal/src/drivers/riscv_cpu.c:512
        case METAL_INTERRUPT_ID_SW:
            intc->metal_int_table[id].handler = __metal_default_sw_handler;
20014426:	fe842683          	lw	a3,-24(s0)
2001442a:	fd842703          	lw	a4,-40(s0)
2001442e:	87ba                	mv	a5,a4
20014430:	0786                	slli	a5,a5,0x1
20014432:	97ba                	add	a5,a5,a4
20014434:	078e                	slli	a5,a5,0x3
20014436:	97b6                	add	a5,a5,a3
20014438:	20013737          	lui	a4,0x20013
2001443c:	2dc70713          	addi	a4,a4,732 # 200132dc <__metal_default_sw_handler>
20014440:	08e7a823          	sw	a4,144(a5)
/home/jw/Desktop/sifive-standalone-project/freedom-metal/src/drivers/riscv_cpu.c:513
            intc->metal_int_table[id].sub_int = priv;
20014444:	fe842683          	lw	a3,-24(s0)
20014448:	fd842703          	lw	a4,-40(s0)
2001444c:	87ba                	mv	a5,a4
2001444e:	0786                	slli	a5,a5,0x1
20014450:	97ba                	add	a5,a5,a4
20014452:	078e                	slli	a5,a5,0x3
20014454:	97b6                	add	a5,a5,a3
20014456:	fd042703          	lw	a4,-48(s0)
2001445a:	08e7aa23          	sw	a4,148(a5)
/home/jw/Desktop/sifive-standalone-project/freedom-metal/src/drivers/riscv_cpu.c:514
            break;
2001445e:	a869                	j	200144f8 <__metal_driver_riscv_cpu_controller_interrupt_register+0x1d2>
/home/jw/Desktop/sifive-standalone-project/freedom-metal/src/drivers/riscv_cpu.c:516
        case METAL_INTERRUPT_ID_TMR:
            intc->metal_int_table[id].handler = __metal_default_timer_handler;
20014460:	fe842683          	lw	a3,-24(s0)
20014464:	fd842703          	lw	a4,-40(s0)
20014468:	87ba                	mv	a5,a4
2001446a:	0786                	slli	a5,a5,0x1
2001446c:	97ba                	add	a5,a5,a4
2001446e:	078e                	slli	a5,a5,0x3
20014470:	97b6                	add	a5,a5,a3
20014472:	20013737          	lui	a4,0x20013
20014476:	3ec70713          	addi	a4,a4,1004 # 200133ec <__metal_default_timer_handler>
2001447a:	08e7a823          	sw	a4,144(a5)
/home/jw/Desktop/sifive-standalone-project/freedom-metal/src/drivers/riscv_cpu.c:517
            intc->metal_int_table[id].sub_int = priv;
2001447e:	fe842683          	lw	a3,-24(s0)
20014482:	fd842703          	lw	a4,-40(s0)
20014486:	87ba                	mv	a5,a4
20014488:	0786                	slli	a5,a5,0x1
2001448a:	97ba                	add	a5,a5,a4
2001448c:	078e                	slli	a5,a5,0x3
2001448e:	97b6                	add	a5,a5,a3
20014490:	fd042703          	lw	a4,-48(s0)
20014494:	08e7aa23          	sw	a4,148(a5)
/home/jw/Desktop/sifive-standalone-project/freedom-metal/src/drivers/riscv_cpu.c:518
            break;
20014498:	a085                	j	200144f8 <__metal_driver_riscv_cpu_controller_interrupt_register+0x1d2>
/home/jw/Desktop/sifive-standalone-project/freedom-metal/src/drivers/riscv_cpu.c:520
        case METAL_INTERRUPT_ID_BEU:
            intc->metal_int_beu.handler = __metal_default_beu_handler;
2001449a:	fe842783          	lw	a5,-24(s0)
2001449e:	20013737          	lui	a4,0x20013
200144a2:	3d670713          	addi	a4,a4,982 # 200133d6 <__metal_default_beu_handler>
200144a6:	38e7a823          	sw	a4,912(a5)
/home/jw/Desktop/sifive-standalone-project/freedom-metal/src/drivers/riscv_cpu.c:521
            intc->metal_int_beu.exint_data = priv;
200144aa:	fe842783          	lw	a5,-24(s0)
200144ae:	fd042703          	lw	a4,-48(s0)
200144b2:	38e7ac23          	sw	a4,920(a5)
/home/jw/Desktop/sifive-standalone-project/freedom-metal/src/drivers/riscv_cpu.c:522
            break;
200144b6:	a089                	j	200144f8 <__metal_driver_riscv_cpu_controller_interrupt_register+0x1d2>
/home/jw/Desktop/sifive-standalone-project/freedom-metal/src/drivers/riscv_cpu.c:540
        case METAL_INTERRUPT_ID_LC11:
        case METAL_INTERRUPT_ID_LC12:
        case METAL_INTERRUPT_ID_LC13:
        case METAL_INTERRUPT_ID_LC14:
        case METAL_INTERRUPT_ID_LC15:
            intc->metal_int_table[id].handler =
200144b8:	fe842683          	lw	a3,-24(s0)
200144bc:	fd842703          	lw	a4,-40(s0)
200144c0:	87ba                	mv	a5,a4
200144c2:	0786                	slli	a5,a5,0x1
200144c4:	97ba                	add	a5,a5,a4
200144c6:	078e                	slli	a5,a5,0x3
200144c8:	97b6                	add	a5,a5,a3
200144ca:	20013737          	lui	a4,0x20013
200144ce:	20470713          	addi	a4,a4,516 # 20013204 <__metal_default_interrupt_handler>
200144d2:	08e7a823          	sw	a4,144(a5)
/home/jw/Desktop/sifive-standalone-project/freedom-metal/src/drivers/riscv_cpu.c:542
                __metal_default_interrupt_handler;
            intc->metal_int_table[id].sub_int = priv;
200144d6:	fe842683          	lw	a3,-24(s0)
200144da:	fd842703          	lw	a4,-40(s0)
200144de:	87ba                	mv	a5,a4
200144e0:	0786                	slli	a5,a5,0x1
200144e2:	97ba                	add	a5,a5,a4
200144e4:	078e                	slli	a5,a5,0x3
200144e6:	97b6                	add	a5,a5,a3
200144e8:	fd042703          	lw	a4,-48(s0)
200144ec:	08e7aa23          	sw	a4,148(a5)
/home/jw/Desktop/sifive-standalone-project/freedom-metal/src/drivers/riscv_cpu.c:543
            break;
200144f0:	a021                	j	200144f8 <__metal_driver_riscv_cpu_controller_interrupt_register+0x1d2>
/home/jw/Desktop/sifive-standalone-project/freedom-metal/src/drivers/riscv_cpu.c:545
        default:
            rc = -12;
200144f2:	57d1                	li	a5,-12
200144f4:	fef42623          	sw	a5,-20(s0)
/home/jw/Desktop/sifive-standalone-project/freedom-metal/src/drivers/riscv_cpu.c:548
        }
    }
    return rc;
200144f8:	fec42783          	lw	a5,-20(s0)
/home/jw/Desktop/sifive-standalone-project/freedom-metal/src/drivers/riscv_cpu.c:549
}
200144fc:	853e                	mv	a0,a5
200144fe:	50b2                	lw	ra,44(sp)
20014500:	5422                	lw	s0,40(sp)
20014502:	6145                	addi	sp,sp,48
20014504:	8082                	ret

20014506 <__metal_driver_riscv_cpu_controller_interrupt_enable>:
__metal_driver_riscv_cpu_controller_interrupt_enable():
/home/jw/Desktop/sifive-standalone-project/freedom-metal/src/drivers/riscv_cpu.c:552

int __metal_driver_riscv_cpu_controller_interrupt_enable(
    struct metal_interrupt *controller, int id) {
20014506:	1101                	addi	sp,sp,-32
20014508:	ce06                	sw	ra,28(sp)
2001450a:	cc22                	sw	s0,24(sp)
2001450c:	1000                	addi	s0,sp,32
2001450e:	fea42623          	sw	a0,-20(s0)
20014512:	feb42423          	sw	a1,-24(s0)
/home/jw/Desktop/sifive-standalone-project/freedom-metal/src/drivers/riscv_cpu.c:553
    return __metal_local_interrupt_enable(controller, id, METAL_ENABLE);
20014516:	fe842783          	lw	a5,-24(s0)
2001451a:	4605                	li	a2,1
2001451c:	85be                	mv	a1,a5
2001451e:	fec42503          	lw	a0,-20(s0)
20014522:	c19ff0ef          	jal	ra,2001413a <__metal_local_interrupt_enable>
20014526:	87aa                	mv	a5,a0
/home/jw/Desktop/sifive-standalone-project/freedom-metal/src/drivers/riscv_cpu.c:554
}
20014528:	853e                	mv	a0,a5
2001452a:	40f2                	lw	ra,28(sp)
2001452c:	4462                	lw	s0,24(sp)
2001452e:	6105                	addi	sp,sp,32
20014530:	8082                	ret

20014532 <__metal_driver_riscv_cpu_controller_interrupt_disable>:
__metal_driver_riscv_cpu_controller_interrupt_disable():
/home/jw/Desktop/sifive-standalone-project/freedom-metal/src/drivers/riscv_cpu.c:557

int __metal_driver_riscv_cpu_controller_interrupt_disable(
    struct metal_interrupt *controller, int id) {
20014532:	1101                	addi	sp,sp,-32
20014534:	ce06                	sw	ra,28(sp)
20014536:	cc22                	sw	s0,24(sp)
20014538:	1000                	addi	s0,sp,32
2001453a:	fea42623          	sw	a0,-20(s0)
2001453e:	feb42423          	sw	a1,-24(s0)
/home/jw/Desktop/sifive-standalone-project/freedom-metal/src/drivers/riscv_cpu.c:558
    return __metal_local_interrupt_enable(controller, id, METAL_DISABLE);
20014542:	fe842783          	lw	a5,-24(s0)
20014546:	4601                	li	a2,0
20014548:	85be                	mv	a1,a5
2001454a:	fec42503          	lw	a0,-20(s0)
2001454e:	bedff0ef          	jal	ra,2001413a <__metal_local_interrupt_enable>
20014552:	87aa                	mv	a5,a0
/home/jw/Desktop/sifive-standalone-project/freedom-metal/src/drivers/riscv_cpu.c:559
}
20014554:	853e                	mv	a0,a5
20014556:	40f2                	lw	ra,28(sp)
20014558:	4462                	lw	s0,24(sp)
2001455a:	6105                	addi	sp,sp,32
2001455c:	8082                	ret

2001455e <__metal_driver_riscv_cpu_controller_get_vector_mode>:
__metal_driver_riscv_cpu_controller_get_vector_mode():
/home/jw/Desktop/sifive-standalone-project/freedom-metal/src/drivers/riscv_cpu.c:591
    }
    return -1;
}

metal_vector_mode __metal_driver_riscv_cpu_controller_get_vector_mode(
    struct metal_interrupt *controller) {
2001455e:	1101                	addi	sp,sp,-32
20014560:	ce06                	sw	ra,28(sp)
20014562:	cc22                	sw	s0,24(sp)
20014564:	1000                	addi	s0,sp,32
20014566:	fea42623          	sw	a0,-20(s0)
/home/jw/Desktop/sifive-standalone-project/freedom-metal/src/drivers/riscv_cpu.c:592
    return __metal_controller_interrupt_vector_mode();
2001456a:	a6fff0ef          	jal	ra,20013fd8 <__metal_controller_interrupt_vector_mode>
2001456e:	87aa                	mv	a5,a0
/home/jw/Desktop/sifive-standalone-project/freedom-metal/src/drivers/riscv_cpu.c:593
}
20014570:	853e                	mv	a0,a5
20014572:	40f2                	lw	ra,28(sp)
20014574:	4462                	lw	s0,24(sp)
20014576:	6105                	addi	sp,sp,32
20014578:	8082                	ret

2001457a <__metal_driver_riscv_cpu_controller_set_vector_mode>:
__metal_driver_riscv_cpu_controller_set_vector_mode():
/home/jw/Desktop/sifive-standalone-project/freedom-metal/src/drivers/riscv_cpu.c:596

int __metal_driver_riscv_cpu_controller_set_vector_mode(
    struct metal_interrupt *controller, metal_vector_mode mode) {
2001457a:	1101                	addi	sp,sp,-32
2001457c:	ce06                	sw	ra,28(sp)
2001457e:	cc22                	sw	s0,24(sp)
20014580:	1000                	addi	s0,sp,32
20014582:	fea42623          	sw	a0,-20(s0)
20014586:	feb42423          	sw	a1,-24(s0)
/home/jw/Desktop/sifive-standalone-project/freedom-metal/src/drivers/riscv_cpu.c:598

    if (mode == METAL_DIRECT_MODE) {
2001458a:	fe842783          	lw	a5,-24(s0)
2001458e:	eb99                	bnez	a5,200145a4 <__metal_driver_riscv_cpu_controller_set_vector_mode+0x2a>
/home/jw/Desktop/sifive-standalone-project/freedom-metal/src/drivers/riscv_cpu.c:599
        __metal_controller_interrupt_vector(
20014590:	200137b7          	lui	a5,0x20013
20014594:	48078593          	addi	a1,a5,1152 # 20013480 <__metal_exception_handler>
20014598:	fe842503          	lw	a0,-24(s0)
2001459c:	a95ff0ef          	jal	ra,20014030 <__metal_controller_interrupt_vector>
/home/jw/Desktop/sifive-standalone-project/freedom-metal/src/drivers/riscv_cpu.c:601
            mode, (void *)(uintptr_t)&__metal_exception_handler);
        return 0;
200145a0:	4781                	li	a5,0
200145a2:	a00d                	j	200145c4 <__metal_driver_riscv_cpu_controller_set_vector_mode+0x4a>
/home/jw/Desktop/sifive-standalone-project/freedom-metal/src/drivers/riscv_cpu.c:603
    }
    if (mode == METAL_VECTOR_MODE) {
200145a4:	fe842703          	lw	a4,-24(s0)
200145a8:	4785                	li	a5,1
200145aa:	00f71c63          	bne	a4,a5,200145c2 <__metal_driver_riscv_cpu_controller_set_vector_mode+0x48>
/home/jw/Desktop/sifive-standalone-project/freedom-metal/src/drivers/riscv_cpu.c:604
        __metal_controller_interrupt_vector(
200145ae:	200177b7          	lui	a5,0x20017
200145b2:	00078593          	mv	a1,a5
200145b6:	fe842503          	lw	a0,-24(s0)
200145ba:	a77ff0ef          	jal	ra,20014030 <__metal_controller_interrupt_vector>
/home/jw/Desktop/sifive-standalone-project/freedom-metal/src/drivers/riscv_cpu.c:606
            mode, (void *)(uintptr_t)__metal_vector_table);
        return 0;
200145be:	4781                	li	a5,0
200145c0:	a011                	j	200145c4 <__metal_driver_riscv_cpu_controller_set_vector_mode+0x4a>
/home/jw/Desktop/sifive-standalone-project/freedom-metal/src/drivers/riscv_cpu.c:608
    }
    return -1;
200145c2:	57fd                	li	a5,-1
/home/jw/Desktop/sifive-standalone-project/freedom-metal/src/drivers/riscv_cpu.c:609
}
200145c4:	853e                	mv	a0,a5
200145c6:	40f2                	lw	ra,28(sp)
200145c8:	4462                	lw	s0,24(sp)
200145ca:	6105                	addi	sp,sp,32
200145cc:	8082                	ret

200145ce <__metal_driver_riscv_cpu_controller_command_request>:
__metal_driver_riscv_cpu_controller_command_request():
/home/jw/Desktop/sifive-standalone-project/freedom-metal/src/drivers/riscv_cpu.c:612

int __metal_driver_riscv_cpu_controller_command_request(
    struct metal_interrupt *controller, int cmd, void *data) {
200145ce:	1101                	addi	sp,sp,-32
200145d0:	ce22                	sw	s0,28(sp)
200145d2:	1000                	addi	s0,sp,32
200145d4:	fea42623          	sw	a0,-20(s0)
200145d8:	feb42423          	sw	a1,-24(s0)
200145dc:	fec42223          	sw	a2,-28(s0)
/home/jw/Desktop/sifive-standalone-project/freedom-metal/src/drivers/riscv_cpu.c:615
    /* NOP for now, unless local interrupt lines the like of clic, clint, plic
     */
    return 0;
200145e0:	4781                	li	a5,0
/home/jw/Desktop/sifive-standalone-project/freedom-metal/src/drivers/riscv_cpu.c:616
}
200145e2:	853e                	mv	a0,a5
200145e4:	4472                	lw	s0,28(sp)
200145e6:	6105                	addi	sp,sp,32
200145e8:	8082                	ret

200145ea <__metal_driver_cpu_mcycle_get>:
__metal_driver_cpu_mcycle_get():
/home/jw/Desktop/sifive-standalone-project/freedom-metal/src/drivers/riscv_cpu.c:620

/* CPU driver !!! */

unsigned long long __metal_driver_cpu_mcycle_get(struct metal_cpu *cpu) {
200145ea:	7139                	addi	sp,sp,-64
200145ec:	de22                	sw	s0,60(sp)
200145ee:	0080                	addi	s0,sp,64
200145f0:	fca42623          	sw	a0,-52(s0)
/home/jw/Desktop/sifive-standalone-project/freedom-metal/src/drivers/riscv_cpu.c:621
    unsigned long long val = 0;
200145f4:	4501                	li	a0,0
200145f6:	4581                	li	a1,0
200145f8:	fea42423          	sw	a0,-24(s0)
200145fc:	feb42623          	sw	a1,-20(s0)
/home/jw/Desktop/sifive-standalone-project/freedom-metal/src/drivers/riscv_cpu.c:627 (discriminator 1)

#if __riscv_xlen == 32
    unsigned long hi, hi1, lo;

    do {
        __asm__ volatile("csrr %0, mcycleh" : "=r"(hi));
20014600:	b80025f3          	csrr	a1,mcycleh
20014604:	feb42223          	sw	a1,-28(s0)
/home/jw/Desktop/sifive-standalone-project/freedom-metal/src/drivers/riscv_cpu.c:628 (discriminator 1)
        __asm__ volatile("csrr %0, mcycle" : "=r"(lo));
20014608:	b00025f3          	csrr	a1,mcycle
2001460c:	feb42023          	sw	a1,-32(s0)
/home/jw/Desktop/sifive-standalone-project/freedom-metal/src/drivers/riscv_cpu.c:629 (discriminator 1)
        __asm__ volatile("csrr %0, mcycleh" : "=r"(hi1));
20014610:	b80025f3          	csrr	a1,mcycleh
20014614:	fcb42e23          	sw	a1,-36(s0)
/home/jw/Desktop/sifive-standalone-project/freedom-metal/src/drivers/riscv_cpu.c:632 (discriminator 1)
        /* hi != hi1 means mcycle overflow during we get value,
         * so we must retry. */
    } while (hi != hi1);
20014618:	fe442503          	lw	a0,-28(s0)
2001461c:	fdc42583          	lw	a1,-36(s0)
20014620:	feb510e3          	bne	a0,a1,20014600 <__metal_driver_cpu_mcycle_get+0x16>
/home/jw/Desktop/sifive-standalone-project/freedom-metal/src/drivers/riscv_cpu.c:634

    val = ((unsigned long long)hi << 32) | lo;
20014624:	fe442583          	lw	a1,-28(s0)
20014628:	882e                	mv	a6,a1
2001462a:	4881                	li	a7,0
2001462c:	00081793          	slli	a5,a6,0x0
20014630:	4701                	li	a4,0
20014632:	fe042583          	lw	a1,-32(s0)
20014636:	862e                	mv	a2,a1
20014638:	4681                	li	a3,0
2001463a:	00c765b3          	or	a1,a4,a2
2001463e:	feb42423          	sw	a1,-24(s0)
20014642:	8fd5                	or	a5,a5,a3
20014644:	fef42623          	sw	a5,-20(s0)
/home/jw/Desktop/sifive-standalone-project/freedom-metal/src/drivers/riscv_cpu.c:639
#else
    __asm__ volatile("csrr %0, mcycle" : "=r"(val));
#endif

    return val;
20014648:	fe842703          	lw	a4,-24(s0)
2001464c:	fec42783          	lw	a5,-20(s0)
/home/jw/Desktop/sifive-standalone-project/freedom-metal/src/drivers/riscv_cpu.c:640
}
20014650:	853a                	mv	a0,a4
20014652:	85be                	mv	a1,a5
20014654:	5472                	lw	s0,60(sp)
20014656:	6121                	addi	sp,sp,64
20014658:	8082                	ret

2001465a <__metal_driver_cpu_timebase_get>:
__metal_driver_cpu_timebase_get():
/home/jw/Desktop/sifive-standalone-project/freedom-metal/src/drivers/riscv_cpu.c:642

unsigned long long __metal_driver_cpu_timebase_get(struct metal_cpu *cpu) {
2001465a:	7179                	addi	sp,sp,-48
2001465c:	d606                	sw	ra,44(sp)
2001465e:	d422                	sw	s0,40(sp)
20014660:	d24a                	sw	s2,36(sp)
20014662:	d04e                	sw	s3,32(sp)
20014664:	1800                	addi	s0,sp,48
20014666:	fca42e23          	sw	a0,-36(s0)
/home/jw/Desktop/sifive-standalone-project/freedom-metal/src/drivers/riscv_cpu.c:644
    int timebase;
    if (!cpu) {
2001466a:	fdc42783          	lw	a5,-36(s0)
2001466e:	e781                	bnez	a5,20014676 <__metal_driver_cpu_timebase_get+0x1c>
/home/jw/Desktop/sifive-standalone-project/freedom-metal/src/drivers/riscv_cpu.c:645
        return 0;
20014670:	4901                	li	s2,0
20014672:	4981                	li	s3,0
20014674:	a821                	j	2001468c <__metal_driver_cpu_timebase_get+0x32>
/home/jw/Desktop/sifive-standalone-project/freedom-metal/src/drivers/riscv_cpu.c:648
    }

    timebase = __metal_driver_cpu_timebase((struct metal_cpu *)cpu);
20014676:	fdc42503          	lw	a0,-36(s0)
2001467a:	98dfe0ef          	jal	ra,20013006 <__metal_driver_cpu_timebase>
2001467e:	fea42623          	sw	a0,-20(s0)
/home/jw/Desktop/sifive-standalone-project/freedom-metal/src/drivers/riscv_cpu.c:649
    return timebase;
20014682:	fec42783          	lw	a5,-20(s0)
20014686:	893e                	mv	s2,a5
20014688:	87fd                	srai	a5,a5,0x1f
2001468a:	89be                	mv	s3,a5
/home/jw/Desktop/sifive-standalone-project/freedom-metal/src/drivers/riscv_cpu.c:650
}
2001468c:	874a                	mv	a4,s2
2001468e:	87ce                	mv	a5,s3
20014690:	853a                	mv	a0,a4
20014692:	85be                	mv	a1,a5
20014694:	50b2                	lw	ra,44(sp)
20014696:	5422                	lw	s0,40(sp)
20014698:	5912                	lw	s2,36(sp)
2001469a:	5982                	lw	s3,32(sp)
2001469c:	6145                	addi	sp,sp,48
2001469e:	8082                	ret

200146a0 <__metal_driver_cpu_mtime_get>:
__metal_driver_cpu_mtime_get():
/home/jw/Desktop/sifive-standalone-project/freedom-metal/src/drivers/riscv_cpu.c:652

unsigned long long __metal_driver_cpu_mtime_get(struct metal_cpu *cpu) {
200146a0:	7179                	addi	sp,sp,-48
200146a2:	d606                	sw	ra,44(sp)
200146a4:	d422                	sw	s0,40(sp)
200146a6:	1800                	addi	s0,sp,48
200146a8:	fca42e23          	sw	a0,-36(s0)
/home/jw/Desktop/sifive-standalone-project/freedom-metal/src/drivers/riscv_cpu.c:653
    unsigned long long time = 0;
200146ac:	4781                	li	a5,0
200146ae:	4801                	li	a6,0
200146b0:	fef42023          	sw	a5,-32(s0)
200146b4:	ff042223          	sw	a6,-28(s0)
/home/jw/Desktop/sifive-standalone-project/freedom-metal/src/drivers/riscv_cpu.c:657
    struct metal_interrupt *tmr_intc;
    struct __metal_driver_riscv_cpu_intc *intc =
        (struct __metal_driver_riscv_cpu_intc *)
            __metal_driver_cpu_interrupt_controller(cpu);
200146b8:	fdc42503          	lw	a0,-36(s0)
200146bc:	975fe0ef          	jal	ra,20013030 <__metal_driver_cpu_interrupt_controller>
200146c0:	fea42623          	sw	a0,-20(s0)
/home/jw/Desktop/sifive-standalone-project/freedom-metal/src/drivers/riscv_cpu.c:659

    if (intc) {
200146c4:	fec42783          	lw	a5,-20(s0)
200146c8:	c78d                	beqz	a5,200146f2 <__metal_driver_cpu_mtime_get+0x52>
/home/jw/Desktop/sifive-standalone-project/freedom-metal/src/drivers/riscv_cpu.c:660
        tmr_intc = intc->metal_int_table[METAL_INTERRUPT_ID_TMR].sub_int;
200146ca:	fec42783          	lw	a5,-20(s0)
200146ce:	13c7a783          	lw	a5,316(a5) # 2001713c <_exit+0xc>
200146d2:	fef42423          	sw	a5,-24(s0)
/home/jw/Desktop/sifive-standalone-project/freedom-metal/src/drivers/riscv_cpu.c:661
        if (tmr_intc) {
200146d6:	fe842783          	lw	a5,-24(s0)
200146da:	cf81                	beqz	a5,200146f2 <__metal_driver_cpu_mtime_get+0x52>
/home/jw/Desktop/sifive-standalone-project/freedom-metal/src/drivers/riscv_cpu.c:662
            tmr_intc->vtable->command_request(tmr_intc, METAL_TIMER_MTIME_GET,
200146dc:	fe842783          	lw	a5,-24(s0)
200146e0:	439c                	lw	a5,0(a5)
200146e2:	47f8                	lw	a4,76(a5)
200146e4:	fe040793          	addi	a5,s0,-32
200146e8:	863e                	mv	a2,a5
200146ea:	4585                	li	a1,1
200146ec:	fe842503          	lw	a0,-24(s0)
200146f0:	9702                	jalr	a4
/home/jw/Desktop/sifive-standalone-project/freedom-metal/src/drivers/riscv_cpu.c:666
                                              &time);
        }
    }
    return time;
200146f2:	fe042703          	lw	a4,-32(s0)
200146f6:	fe442783          	lw	a5,-28(s0)
/home/jw/Desktop/sifive-standalone-project/freedom-metal/src/drivers/riscv_cpu.c:667
}
200146fa:	853a                	mv	a0,a4
200146fc:	85be                	mv	a1,a5
200146fe:	50b2                	lw	ra,44(sp)
20014700:	5422                	lw	s0,40(sp)
20014702:	6145                	addi	sp,sp,48
20014704:	8082                	ret

20014706 <__metal_driver_cpu_mtimecmp_set>:
__metal_driver_cpu_mtimecmp_set():
/home/jw/Desktop/sifive-standalone-project/freedom-metal/src/drivers/riscv_cpu.c:670

int __metal_driver_cpu_mtimecmp_set(struct metal_cpu *cpu,
                                    unsigned long long time) {
20014706:	7179                	addi	sp,sp,-48
20014708:	d606                	sw	ra,44(sp)
2001470a:	d422                	sw	s0,40(sp)
2001470c:	d226                	sw	s1,36(sp)
2001470e:	1800                	addi	s0,sp,48
20014710:	fca42e23          	sw	a0,-36(s0)
20014714:	fcb42823          	sw	a1,-48(s0)
20014718:	fcc42a23          	sw	a2,-44(s0)
/home/jw/Desktop/sifive-standalone-project/freedom-metal/src/drivers/riscv_cpu.c:671
    int rc = -1;
2001471c:	57fd                	li	a5,-1
2001471e:	fef42623          	sw	a5,-20(s0)
/home/jw/Desktop/sifive-standalone-project/freedom-metal/src/drivers/riscv_cpu.c:675
    struct metal_interrupt *tmr_intc;
    struct __metal_driver_riscv_cpu_intc *intc =
        (struct __metal_driver_riscv_cpu_intc *)
            __metal_driver_cpu_interrupt_controller(cpu);
20014722:	fdc42503          	lw	a0,-36(s0)
20014726:	90bfe0ef          	jal	ra,20013030 <__metal_driver_cpu_interrupt_controller>
2001472a:	fea42423          	sw	a0,-24(s0)
/home/jw/Desktop/sifive-standalone-project/freedom-metal/src/drivers/riscv_cpu.c:677

    if (intc) {
2001472e:	fe842783          	lw	a5,-24(s0)
20014732:	cf8d                	beqz	a5,2001476c <__metal_driver_cpu_mtimecmp_set+0x66>
/home/jw/Desktop/sifive-standalone-project/freedom-metal/src/drivers/riscv_cpu.c:678
        tmr_intc = intc->metal_int_table[METAL_INTERRUPT_ID_TMR].sub_int;
20014734:	fe842783          	lw	a5,-24(s0)
20014738:	13c7a783          	lw	a5,316(a5)
2001473c:	fef42223          	sw	a5,-28(s0)
/home/jw/Desktop/sifive-standalone-project/freedom-metal/src/drivers/riscv_cpu.c:679
        if (tmr_intc) {
20014740:	fe442783          	lw	a5,-28(s0)
20014744:	c785                	beqz	a5,2001476c <__metal_driver_cpu_mtimecmp_set+0x66>
/home/jw/Desktop/sifive-standalone-project/freedom-metal/src/drivers/riscv_cpu.c:680
            rc = tmr_intc->vtable->mtimecmp_set(
20014746:	fe442783          	lw	a5,-28(s0)
2001474a:	439c                	lw	a5,0(a5)
2001474c:	4ba4                	lw	s1,80(a5)
2001474e:	fdc42503          	lw	a0,-36(s0)
20014752:	891fe0ef          	jal	ra,20012fe2 <__metal_driver_cpu_hartid>
20014756:	87aa                	mv	a5,a0
20014758:	fd042603          	lw	a2,-48(s0)
2001475c:	fd442683          	lw	a3,-44(s0)
20014760:	85be                	mv	a1,a5
20014762:	fe442503          	lw	a0,-28(s0)
20014766:	9482                	jalr	s1
20014768:	fea42623          	sw	a0,-20(s0)
/home/jw/Desktop/sifive-standalone-project/freedom-metal/src/drivers/riscv_cpu.c:684
                tmr_intc, __metal_driver_cpu_hartid(cpu), time);
        }
    }
    return rc;
2001476c:	fec42783          	lw	a5,-20(s0)
/home/jw/Desktop/sifive-standalone-project/freedom-metal/src/drivers/riscv_cpu.c:685
}
20014770:	853e                	mv	a0,a5
20014772:	50b2                	lw	ra,44(sp)
20014774:	5422                	lw	s0,40(sp)
20014776:	5492                	lw	s1,36(sp)
20014778:	6145                	addi	sp,sp,48
2001477a:	8082                	ret

2001477c <__metal_driver_cpu_timer_controller_interrupt>:
__metal_driver_cpu_timer_controller_interrupt():
/home/jw/Desktop/sifive-standalone-project/freedom-metal/src/drivers/riscv_cpu.c:688

struct metal_interrupt *
__metal_driver_cpu_timer_controller_interrupt(struct metal_cpu *cpu) {
2001477c:	1101                	addi	sp,sp,-32
2001477e:	ce22                	sw	s0,28(sp)
20014780:	1000                	addi	s0,sp,32
20014782:	fea42623          	sw	a0,-20(s0)
/home/jw/Desktop/sifive-standalone-project/freedom-metal/src/drivers/riscv_cpu.c:690
#ifdef __METAL_DT_RISCV_CLINT0_HANDLE
    return __METAL_DT_RISCV_CLINT0_HANDLE;
20014786:	800017b7          	lui	a5,0x80001
2001478a:	aac78793          	addi	a5,a5,-1364 # 80000aac <metal_segment_heap_target_end+0xfffff33c>
/home/jw/Desktop/sifive-standalone-project/freedom-metal/src/drivers/riscv_cpu.c:699
#else
#pragma message("There is no interrupt controller for Timer interrupt")
    return NULL;
#endif
#endif
}
2001478e:	853e                	mv	a0,a5
20014790:	4472                	lw	s0,28(sp)
20014792:	6105                	addi	sp,sp,32
20014794:	8082                	ret

20014796 <__metal_driver_cpu_get_timer_interrupt_id>:
__metal_driver_cpu_get_timer_interrupt_id():
/home/jw/Desktop/sifive-standalone-project/freedom-metal/src/drivers/riscv_cpu.c:701

int __metal_driver_cpu_get_timer_interrupt_id(struct metal_cpu *cpu) {
20014796:	1101                	addi	sp,sp,-32
20014798:	ce22                	sw	s0,28(sp)
2001479a:	1000                	addi	s0,sp,32
2001479c:	fea42623          	sw	a0,-20(s0)
/home/jw/Desktop/sifive-standalone-project/freedom-metal/src/drivers/riscv_cpu.c:702
    return METAL_INTERRUPT_ID_TMR;
200147a0:	479d                	li	a5,7
/home/jw/Desktop/sifive-standalone-project/freedom-metal/src/drivers/riscv_cpu.c:703
}
200147a2:	853e                	mv	a0,a5
200147a4:	4472                	lw	s0,28(sp)
200147a6:	6105                	addi	sp,sp,32
200147a8:	8082                	ret

200147aa <__metal_driver_cpu_sw_controller_interrupt>:
__metal_driver_cpu_sw_controller_interrupt():
/home/jw/Desktop/sifive-standalone-project/freedom-metal/src/drivers/riscv_cpu.c:706

struct metal_interrupt *
__metal_driver_cpu_sw_controller_interrupt(struct metal_cpu *cpu) {
200147aa:	1101                	addi	sp,sp,-32
200147ac:	ce22                	sw	s0,28(sp)
200147ae:	1000                	addi	s0,sp,32
200147b0:	fea42623          	sw	a0,-20(s0)
/home/jw/Desktop/sifive-standalone-project/freedom-metal/src/drivers/riscv_cpu.c:708
#ifdef __METAL_DT_RISCV_CLINT0_HANDLE
    return __METAL_DT_RISCV_CLINT0_HANDLE;
200147b4:	800017b7          	lui	a5,0x80001
200147b8:	aac78793          	addi	a5,a5,-1364 # 80000aac <metal_segment_heap_target_end+0xfffff33c>
/home/jw/Desktop/sifive-standalone-project/freedom-metal/src/drivers/riscv_cpu.c:717
#else
#pragma message("There is no interrupt controller for Software interrupt")
    return NULL;
#endif
#endif
}
200147bc:	853e                	mv	a0,a5
200147be:	4472                	lw	s0,28(sp)
200147c0:	6105                	addi	sp,sp,32
200147c2:	8082                	ret

200147c4 <__metal_driver_cpu_get_sw_interrupt_id>:
__metal_driver_cpu_get_sw_interrupt_id():
/home/jw/Desktop/sifive-standalone-project/freedom-metal/src/drivers/riscv_cpu.c:719

int __metal_driver_cpu_get_sw_interrupt_id(struct metal_cpu *cpu) {
200147c4:	1101                	addi	sp,sp,-32
200147c6:	ce22                	sw	s0,28(sp)
200147c8:	1000                	addi	s0,sp,32
200147ca:	fea42623          	sw	a0,-20(s0)
/home/jw/Desktop/sifive-standalone-project/freedom-metal/src/drivers/riscv_cpu.c:720
    return METAL_INTERRUPT_ID_SW;
200147ce:	478d                	li	a5,3
/home/jw/Desktop/sifive-standalone-project/freedom-metal/src/drivers/riscv_cpu.c:721
}
200147d0:	853e                	mv	a0,a5
200147d2:	4472                	lw	s0,28(sp)
200147d4:	6105                	addi	sp,sp,32
200147d6:	8082                	ret

200147d8 <__metal_driver_cpu_set_sw_ipi>:
__metal_driver_cpu_set_sw_ipi():
/home/jw/Desktop/sifive-standalone-project/freedom-metal/src/drivers/riscv_cpu.c:723

int __metal_driver_cpu_set_sw_ipi(struct metal_cpu *cpu, int hartid) {
200147d8:	7179                	addi	sp,sp,-48
200147da:	d606                	sw	ra,44(sp)
200147dc:	d422                	sw	s0,40(sp)
200147de:	1800                	addi	s0,sp,48
200147e0:	fca42e23          	sw	a0,-36(s0)
200147e4:	fcb42c23          	sw	a1,-40(s0)
/home/jw/Desktop/sifive-standalone-project/freedom-metal/src/drivers/riscv_cpu.c:724
    int rc = -1;
200147e8:	57fd                	li	a5,-1
200147ea:	fef42623          	sw	a5,-20(s0)
/home/jw/Desktop/sifive-standalone-project/freedom-metal/src/drivers/riscv_cpu.c:728
    struct metal_interrupt *sw_intc;
    struct __metal_driver_riscv_cpu_intc *intc =
        (struct __metal_driver_riscv_cpu_intc *)
            __metal_driver_cpu_interrupt_controller(cpu);
200147ee:	fdc42503          	lw	a0,-36(s0)
200147f2:	83ffe0ef          	jal	ra,20013030 <__metal_driver_cpu_interrupt_controller>
200147f6:	fea42423          	sw	a0,-24(s0)
/home/jw/Desktop/sifive-standalone-project/freedom-metal/src/drivers/riscv_cpu.c:730

    if (intc) {
200147fa:	fe842783          	lw	a5,-24(s0)
200147fe:	c79d                	beqz	a5,2001482c <__metal_driver_cpu_set_sw_ipi+0x54>
/home/jw/Desktop/sifive-standalone-project/freedom-metal/src/drivers/riscv_cpu.c:731
        sw_intc = intc->metal_int_table[METAL_INTERRUPT_ID_SW].sub_int;
20014800:	fe842783          	lw	a5,-24(s0)
20014804:	0dc7a783          	lw	a5,220(a5)
20014808:	fef42223          	sw	a5,-28(s0)
/home/jw/Desktop/sifive-standalone-project/freedom-metal/src/drivers/riscv_cpu.c:732
        if (sw_intc) {
2001480c:	fe442783          	lw	a5,-28(s0)
20014810:	cf91                	beqz	a5,2001482c <__metal_driver_cpu_set_sw_ipi+0x54>
/home/jw/Desktop/sifive-standalone-project/freedom-metal/src/drivers/riscv_cpu.c:733
            rc = sw_intc->vtable->command_request(
20014812:	fe442783          	lw	a5,-28(s0)
20014816:	439c                	lw	a5,0(a5)
20014818:	47f8                	lw	a4,76(a5)
2001481a:	fd840793          	addi	a5,s0,-40
2001481e:	863e                	mv	a2,a5
20014820:	458d                	li	a1,3
20014822:	fe442503          	lw	a0,-28(s0)
20014826:	9702                	jalr	a4
20014828:	fea42623          	sw	a0,-20(s0)
/home/jw/Desktop/sifive-standalone-project/freedom-metal/src/drivers/riscv_cpu.c:737
                sw_intc, METAL_SOFTWARE_IPI_SET, &hartid);
        }
    }
    return rc;
2001482c:	fec42783          	lw	a5,-20(s0)
/home/jw/Desktop/sifive-standalone-project/freedom-metal/src/drivers/riscv_cpu.c:738
}
20014830:	853e                	mv	a0,a5
20014832:	50b2                	lw	ra,44(sp)
20014834:	5422                	lw	s0,40(sp)
20014836:	6145                	addi	sp,sp,48
20014838:	8082                	ret

2001483a <__metal_driver_cpu_clear_sw_ipi>:
__metal_driver_cpu_clear_sw_ipi():
/home/jw/Desktop/sifive-standalone-project/freedom-metal/src/drivers/riscv_cpu.c:740

int __metal_driver_cpu_clear_sw_ipi(struct metal_cpu *cpu, int hartid) {
2001483a:	7179                	addi	sp,sp,-48
2001483c:	d606                	sw	ra,44(sp)
2001483e:	d422                	sw	s0,40(sp)
20014840:	1800                	addi	s0,sp,48
20014842:	fca42e23          	sw	a0,-36(s0)
20014846:	fcb42c23          	sw	a1,-40(s0)
/home/jw/Desktop/sifive-standalone-project/freedom-metal/src/drivers/riscv_cpu.c:741
    int rc = -1;
2001484a:	57fd                	li	a5,-1
2001484c:	fef42623          	sw	a5,-20(s0)
/home/jw/Desktop/sifive-standalone-project/freedom-metal/src/drivers/riscv_cpu.c:745
    struct metal_interrupt *sw_intc;
    struct __metal_driver_riscv_cpu_intc *intc =
        (struct __metal_driver_riscv_cpu_intc *)
            __metal_driver_cpu_interrupt_controller(cpu);
20014850:	fdc42503          	lw	a0,-36(s0)
20014854:	fdcfe0ef          	jal	ra,20013030 <__metal_driver_cpu_interrupt_controller>
20014858:	fea42423          	sw	a0,-24(s0)
/home/jw/Desktop/sifive-standalone-project/freedom-metal/src/drivers/riscv_cpu.c:747

    if (intc) {
2001485c:	fe842783          	lw	a5,-24(s0)
20014860:	c79d                	beqz	a5,2001488e <__metal_driver_cpu_clear_sw_ipi+0x54>
/home/jw/Desktop/sifive-standalone-project/freedom-metal/src/drivers/riscv_cpu.c:748
        sw_intc = intc->metal_int_table[METAL_INTERRUPT_ID_SW].sub_int;
20014862:	fe842783          	lw	a5,-24(s0)
20014866:	0dc7a783          	lw	a5,220(a5)
2001486a:	fef42223          	sw	a5,-28(s0)
/home/jw/Desktop/sifive-standalone-project/freedom-metal/src/drivers/riscv_cpu.c:749
        if (sw_intc) {
2001486e:	fe442783          	lw	a5,-28(s0)
20014872:	cf91                	beqz	a5,2001488e <__metal_driver_cpu_clear_sw_ipi+0x54>
/home/jw/Desktop/sifive-standalone-project/freedom-metal/src/drivers/riscv_cpu.c:750
            rc = sw_intc->vtable->command_request(
20014874:	fe442783          	lw	a5,-28(s0)
20014878:	439c                	lw	a5,0(a5)
2001487a:	47f8                	lw	a4,76(a5)
2001487c:	fd840793          	addi	a5,s0,-40
20014880:	863e                	mv	a2,a5
20014882:	4589                	li	a1,2
20014884:	fe442503          	lw	a0,-28(s0)
20014888:	9702                	jalr	a4
2001488a:	fea42623          	sw	a0,-20(s0)
/home/jw/Desktop/sifive-standalone-project/freedom-metal/src/drivers/riscv_cpu.c:754
                sw_intc, METAL_SOFTWARE_IPI_CLEAR, &hartid);
        }
    }
    return rc;
2001488e:	fec42783          	lw	a5,-20(s0)
/home/jw/Desktop/sifive-standalone-project/freedom-metal/src/drivers/riscv_cpu.c:755
}
20014892:	853e                	mv	a0,a5
20014894:	50b2                	lw	ra,44(sp)
20014896:	5422                	lw	s0,40(sp)
20014898:	6145                	addi	sp,sp,48
2001489a:	8082                	ret

2001489c <__metal_driver_cpu_get_msip>:
__metal_driver_cpu_get_msip():
/home/jw/Desktop/sifive-standalone-project/freedom-metal/src/drivers/riscv_cpu.c:757

int __metal_driver_cpu_get_msip(struct metal_cpu *cpu, int hartid) {
2001489c:	7179                	addi	sp,sp,-48
2001489e:	d606                	sw	ra,44(sp)
200148a0:	d422                	sw	s0,40(sp)
200148a2:	1800                	addi	s0,sp,48
200148a4:	fca42e23          	sw	a0,-36(s0)
200148a8:	fcb42c23          	sw	a1,-40(s0)
/home/jw/Desktop/sifive-standalone-project/freedom-metal/src/drivers/riscv_cpu.c:758
    int rc = 0;
200148ac:	fe042623          	sw	zero,-20(s0)
/home/jw/Desktop/sifive-standalone-project/freedom-metal/src/drivers/riscv_cpu.c:762
    struct metal_interrupt *sw_intc;
    struct __metal_driver_riscv_cpu_intc *intc =
        (struct __metal_driver_riscv_cpu_intc *)
            __metal_driver_cpu_interrupt_controller(cpu);
200148b0:	fdc42503          	lw	a0,-36(s0)
200148b4:	f7cfe0ef          	jal	ra,20013030 <__metal_driver_cpu_interrupt_controller>
200148b8:	fea42423          	sw	a0,-24(s0)
/home/jw/Desktop/sifive-standalone-project/freedom-metal/src/drivers/riscv_cpu.c:764

    if (intc) {
200148bc:	fe842783          	lw	a5,-24(s0)
200148c0:	c79d                	beqz	a5,200148ee <__metal_driver_cpu_get_msip+0x52>
/home/jw/Desktop/sifive-standalone-project/freedom-metal/src/drivers/riscv_cpu.c:765
        sw_intc = intc->metal_int_table[METAL_INTERRUPT_ID_SW].sub_int;
200148c2:	fe842783          	lw	a5,-24(s0)
200148c6:	0dc7a783          	lw	a5,220(a5)
200148ca:	fef42223          	sw	a5,-28(s0)
/home/jw/Desktop/sifive-standalone-project/freedom-metal/src/drivers/riscv_cpu.c:766
        if (sw_intc) {
200148ce:	fe442783          	lw	a5,-28(s0)
200148d2:	cf91                	beqz	a5,200148ee <__metal_driver_cpu_get_msip+0x52>
/home/jw/Desktop/sifive-standalone-project/freedom-metal/src/drivers/riscv_cpu.c:767
            rc = sw_intc->vtable->command_request(
200148d4:	fe442783          	lw	a5,-28(s0)
200148d8:	439c                	lw	a5,0(a5)
200148da:	47f8                	lw	a4,76(a5)
200148dc:	fd840793          	addi	a5,s0,-40
200148e0:	863e                	mv	a2,a5
200148e2:	4591                	li	a1,4
200148e4:	fe442503          	lw	a0,-28(s0)
200148e8:	9702                	jalr	a4
200148ea:	fea42623          	sw	a0,-20(s0)
/home/jw/Desktop/sifive-standalone-project/freedom-metal/src/drivers/riscv_cpu.c:771
                sw_intc, METAL_SOFTWARE_MSIP_GET, &hartid);
        }
    }
    return rc;
200148ee:	fec42783          	lw	a5,-20(s0)
/home/jw/Desktop/sifive-standalone-project/freedom-metal/src/drivers/riscv_cpu.c:772
}
200148f2:	853e                	mv	a0,a5
200148f4:	50b2                	lw	ra,44(sp)
200148f6:	5422                	lw	s0,40(sp)
200148f8:	6145                	addi	sp,sp,48
200148fa:	8082                	ret

200148fc <__metal_driver_cpu_controller_interrupt>:
__metal_driver_cpu_controller_interrupt():
/home/jw/Desktop/sifive-standalone-project/freedom-metal/src/drivers/riscv_cpu.c:775

struct metal_interrupt *
__metal_driver_cpu_controller_interrupt(struct metal_cpu *cpu) {
200148fc:	1101                	addi	sp,sp,-32
200148fe:	ce06                	sw	ra,28(sp)
20014900:	cc22                	sw	s0,24(sp)
20014902:	1000                	addi	s0,sp,32
20014904:	fea42623          	sw	a0,-20(s0)
/home/jw/Desktop/sifive-standalone-project/freedom-metal/src/drivers/riscv_cpu.c:776
    return __metal_driver_cpu_interrupt_controller(cpu);
20014908:	fec42503          	lw	a0,-20(s0)
2001490c:	f24fe0ef          	jal	ra,20013030 <__metal_driver_cpu_interrupt_controller>
20014910:	87aa                	mv	a5,a0
/home/jw/Desktop/sifive-standalone-project/freedom-metal/src/drivers/riscv_cpu.c:777
}
20014912:	853e                	mv	a0,a5
20014914:	40f2                	lw	ra,28(sp)
20014916:	4462                	lw	s0,24(sp)
20014918:	6105                	addi	sp,sp,32
2001491a:	8082                	ret

2001491c <__metal_driver_cpu_exception_register>:
__metal_driver_cpu_exception_register():
/home/jw/Desktop/sifive-standalone-project/freedom-metal/src/drivers/riscv_cpu.c:798
    }
    return -1;
}

int __metal_driver_cpu_exception_register(struct metal_cpu *cpu, int ecode,
                                          metal_exception_handler_t isr) {
2001491c:	7179                	addi	sp,sp,-48
2001491e:	d606                	sw	ra,44(sp)
20014920:	d422                	sw	s0,40(sp)
20014922:	1800                	addi	s0,sp,48
20014924:	fca42e23          	sw	a0,-36(s0)
20014928:	fcb42c23          	sw	a1,-40(s0)
2001492c:	fcc42a23          	sw	a2,-44(s0)
/home/jw/Desktop/sifive-standalone-project/freedom-metal/src/drivers/riscv_cpu.c:801
    struct __metal_driver_riscv_cpu_intc *intc =
        (struct __metal_driver_riscv_cpu_intc *)
            __metal_driver_cpu_interrupt_controller(cpu);
20014930:	fdc42503          	lw	a0,-36(s0)
20014934:	efcfe0ef          	jal	ra,20013030 <__metal_driver_cpu_interrupt_controller>
20014938:	fea42623          	sw	a0,-20(s0)
/home/jw/Desktop/sifive-standalone-project/freedom-metal/src/drivers/riscv_cpu.c:803

    if (intc) {
2001493c:	fec42783          	lw	a5,-20(s0)
20014940:	cb99                	beqz	a5,20014956 <__metal_driver_cpu_exception_register+0x3a>
/home/jw/Desktop/sifive-standalone-project/freedom-metal/src/drivers/riscv_cpu.c:804
        return __metal_exception_register((struct metal_interrupt *)intc, ecode,
20014942:	fd442603          	lw	a2,-44(s0)
20014946:	fd842583          	lw	a1,-40(s0)
2001494a:	fec42503          	lw	a0,-20(s0)
2001494e:	8a9ff0ef          	jal	ra,200141f6 <__metal_exception_register>
20014952:	87aa                	mv	a5,a0
20014954:	a011                	j	20014958 <__metal_driver_cpu_exception_register+0x3c>
/home/jw/Desktop/sifive-standalone-project/freedom-metal/src/drivers/riscv_cpu.c:807
                                          isr);
    }
    return -1;
20014956:	57fd                	li	a5,-1
/home/jw/Desktop/sifive-standalone-project/freedom-metal/src/drivers/riscv_cpu.c:808
}
20014958:	853e                	mv	a0,a5
2001495a:	50b2                	lw	ra,44(sp)
2001495c:	5422                	lw	s0,40(sp)
2001495e:	6145                	addi	sp,sp,48
20014960:	8082                	ret

20014962 <__metal_driver_cpu_get_instruction_length>:
__metal_driver_cpu_get_instruction_length():
/home/jw/Desktop/sifive-standalone-project/freedom-metal/src/drivers/riscv_cpu.c:811

int __metal_driver_cpu_get_instruction_length(struct metal_cpu *cpu,
                                              uintptr_t epc) {
20014962:	1101                	addi	sp,sp,-32
20014964:	ce22                	sw	s0,28(sp)
20014966:	1000                	addi	s0,sp,32
20014968:	fea42623          	sw	a0,-20(s0)
2001496c:	feb42423          	sw	a1,-24(s0)
/home/jw/Desktop/sifive-standalone-project/freedom-metal/src/drivers/riscv_cpu.c:817
    /**
     * Per ISA compressed instruction has last two bits of opcode set.
     * The encoding '00' '01' '10' are used for compressed instruction.
     * Only enconding '11' isn't regarded as compressed instruction (>16b).
     */
    return ((*(unsigned short *)epc & METAL_INSN_LENGTH_MASK) ==
20014970:	fe842783          	lw	a5,-24(s0)
20014974:	0007d783          	lhu	a5,0(a5)
20014978:	0037f713          	andi	a4,a5,3
/home/jw/Desktop/sifive-standalone-project/freedom-metal/src/drivers/riscv_cpu.c:820
            METAL_INSN_NOT_COMPRESSED)
               ? 4
               : 2;
2001497c:	478d                	li	a5,3
2001497e:	00f71463          	bne	a4,a5,20014986 <__metal_driver_cpu_get_instruction_length+0x24>
/home/jw/Desktop/sifive-standalone-project/freedom-metal/src/drivers/riscv_cpu.c:820 (discriminator 1)
20014982:	4791                	li	a5,4
20014984:	a011                	j	20014988 <__metal_driver_cpu_get_instruction_length+0x26>
/home/jw/Desktop/sifive-standalone-project/freedom-metal/src/drivers/riscv_cpu.c:820 (discriminator 2)
20014986:	4789                	li	a5,2
/home/jw/Desktop/sifive-standalone-project/freedom-metal/src/drivers/riscv_cpu.c:821 (discriminator 5)
}
20014988:	853e                	mv	a0,a5
2001498a:	4472                	lw	s0,28(sp)
2001498c:	6105                	addi	sp,sp,32
2001498e:	8082                	ret

20014990 <__metal_driver_cpu_get_exception_pc>:
__metal_driver_cpu_get_exception_pc():
/home/jw/Desktop/sifive-standalone-project/freedom-metal/src/drivers/riscv_cpu.c:823

uintptr_t __metal_driver_cpu_get_exception_pc(struct metal_cpu *cpu) {
20014990:	7179                	addi	sp,sp,-48
20014992:	d622                	sw	s0,44(sp)
20014994:	1800                	addi	s0,sp,48
20014996:	fca42e23          	sw	a0,-36(s0)
/home/jw/Desktop/sifive-standalone-project/freedom-metal/src/drivers/riscv_cpu.c:825
    uintptr_t mepc;
    __asm__ volatile("csrr %0, mepc" : "=r"(mepc));
2001499a:	341027f3          	csrr	a5,mepc
2001499e:	fef42623          	sw	a5,-20(s0)
/home/jw/Desktop/sifive-standalone-project/freedom-metal/src/drivers/riscv_cpu.c:826
    return mepc;
200149a2:	fec42783          	lw	a5,-20(s0)
/home/jw/Desktop/sifive-standalone-project/freedom-metal/src/drivers/riscv_cpu.c:827
}
200149a6:	853e                	mv	a0,a5
200149a8:	5432                	lw	s0,44(sp)
200149aa:	6145                	addi	sp,sp,48
200149ac:	8082                	ret

200149ae <__metal_driver_cpu_set_exception_pc>:
__metal_driver_cpu_set_exception_pc():
/home/jw/Desktop/sifive-standalone-project/freedom-metal/src/drivers/riscv_cpu.c:829

int __metal_driver_cpu_set_exception_pc(struct metal_cpu *cpu, uintptr_t mepc) {
200149ae:	1101                	addi	sp,sp,-32
200149b0:	ce22                	sw	s0,28(sp)
200149b2:	1000                	addi	s0,sp,32
200149b4:	fea42623          	sw	a0,-20(s0)
200149b8:	feb42423          	sw	a1,-24(s0)
/home/jw/Desktop/sifive-standalone-project/freedom-metal/src/drivers/riscv_cpu.c:830
    __asm__ volatile("csrw mepc, %0" ::"r"(mepc));
200149bc:	fe842783          	lw	a5,-24(s0)
200149c0:	34179073          	csrw	mepc,a5
/home/jw/Desktop/sifive-standalone-project/freedom-metal/src/drivers/riscv_cpu.c:831
    return 0;
200149c4:	4781                	li	a5,0
/home/jw/Desktop/sifive-standalone-project/freedom-metal/src/drivers/riscv_cpu.c:832
}
200149c6:	853e                	mv	a0,a5
200149c8:	4472                	lw	s0,28(sp)
200149ca:	6105                	addi	sp,sp,32
200149cc:	8082                	ret

200149ce <__metal_driver_cpu_get_buserror>:
__metal_driver_cpu_get_buserror():
/home/jw/Desktop/sifive-standalone-project/freedom-metal/src/drivers/riscv_cpu.c:834

struct metal_buserror *__metal_driver_cpu_get_buserror(struct metal_cpu *cpu) {
200149ce:	1101                	addi	sp,sp,-32
200149d0:	ce06                	sw	ra,28(sp)
200149d2:	cc22                	sw	s0,24(sp)
200149d4:	1000                	addi	s0,sp,32
200149d6:	fea42623          	sw	a0,-20(s0)
/home/jw/Desktop/sifive-standalone-project/freedom-metal/src/drivers/riscv_cpu.c:835
    return __metal_driver_cpu_buserror(cpu);
200149da:	fec42503          	lw	a0,-20(s0)
200149de:	e7cfe0ef          	jal	ra,2001305a <__metal_driver_cpu_buserror>
200149e2:	87aa                	mv	a5,a0
/home/jw/Desktop/sifive-standalone-project/freedom-metal/src/drivers/riscv_cpu.c:836
}
200149e4:	853e                	mv	a0,a5
200149e6:	40f2                	lw	ra,28(sp)
200149e8:	4462                	lw	s0,24(sp)
200149ea:	6105                	addi	sp,sp,32
200149ec:	8082                	ret

200149ee <__metal_driver_sifive_plic0_control_base>:
__metal_driver_sifive_plic0_control_base():
/home/jw/Desktop/sifive-standalone-project/bsp/build/debug/./metal/machine.h:345



/* --------------------- sifive_plic0 ------------ */
static __inline__ unsigned long __metal_driver_sifive_plic0_control_base(struct metal_interrupt *controller)
{
200149ee:	1101                	addi	sp,sp,-32
200149f0:	ce22                	sw	s0,28(sp)
200149f2:	1000                	addi	s0,sp,32
200149f4:	fea42623          	sw	a0,-20(s0)
/home/jw/Desktop/sifive-standalone-project/bsp/build/debug/./metal/machine.h:346
	if ((uintptr_t)controller == (uintptr_t)&__metal_dt_interrupt_controller_c000000) {
200149f8:	fec42703          	lw	a4,-20(s0)
200149fc:	800007b7          	lui	a5,0x80000
20014a00:	46078793          	addi	a5,a5,1120 # 80000460 <metal_segment_heap_target_end+0xffffecf0>
20014a04:	00f71563          	bne	a4,a5,20014a0e <__metal_driver_sifive_plic0_control_base+0x20>
/home/jw/Desktop/sifive-standalone-project/bsp/build/debug/./metal/machine.h:347
		return METAL_RISCV_PLIC0_C000000_BASE_ADDRESS;
20014a08:	0c0007b7          	lui	a5,0xc000
20014a0c:	a011                	j	20014a10 <__metal_driver_sifive_plic0_control_base+0x22>
/home/jw/Desktop/sifive-standalone-project/bsp/build/debug/./metal/machine.h:350
	}
	else {
		return 0;
20014a0e:	4781                	li	a5,0
/home/jw/Desktop/sifive-standalone-project/bsp/build/debug/./metal/machine.h:352
	}
}
20014a10:	853e                	mv	a0,a5
20014a12:	4472                	lw	s0,28(sp)
20014a14:	6105                	addi	sp,sp,32
20014a16:	8082                	ret

20014a18 <__metal_driver_sifive_plic0_num_interrupts>:
__metal_driver_sifive_plic0_num_interrupts():
/home/jw/Desktop/sifive-standalone-project/bsp/build/debug/./metal/machine.h:365
		return 0;
	}
}

static __inline__ int __metal_driver_sifive_plic0_num_interrupts(struct metal_interrupt *controller)
{
20014a18:	1101                	addi	sp,sp,-32
20014a1a:	ce22                	sw	s0,28(sp)
20014a1c:	1000                	addi	s0,sp,32
20014a1e:	fea42623          	sw	a0,-20(s0)
/home/jw/Desktop/sifive-standalone-project/bsp/build/debug/./metal/machine.h:366
	if ((uintptr_t)controller == (uintptr_t)&__metal_dt_interrupt_controller_c000000) {
20014a22:	fec42703          	lw	a4,-20(s0)
20014a26:	800007b7          	lui	a5,0x80000
20014a2a:	46078793          	addi	a5,a5,1120 # 80000460 <metal_segment_heap_target_end+0xffffecf0>
20014a2e:	00f71563          	bne	a4,a5,20014a38 <__metal_driver_sifive_plic0_num_interrupts+0x20>
/home/jw/Desktop/sifive-standalone-project/bsp/build/debug/./metal/machine.h:367
		return METAL_RISCV_PLIC0_C000000_RISCV_NDEV;
20014a32:	03500793          	li	a5,53
20014a36:	a011                	j	20014a3a <__metal_driver_sifive_plic0_num_interrupts+0x22>
/home/jw/Desktop/sifive-standalone-project/bsp/build/debug/./metal/machine.h:370
	}
	else {
		return 0;
20014a38:	4781                	li	a5,0
/home/jw/Desktop/sifive-standalone-project/bsp/build/debug/./metal/machine.h:372
	}
}
20014a3a:	853e                	mv	a0,a5
20014a3c:	4472                	lw	s0,28(sp)
20014a3e:	6105                	addi	sp,sp,32
20014a40:	8082                	ret

20014a42 <__metal_driver_sifive_plic0_max_priority>:
__metal_driver_sifive_plic0_max_priority():
/home/jw/Desktop/sifive-standalone-project/bsp/build/debug/./metal/machine.h:375

static __inline__ int __metal_driver_sifive_plic0_max_priority(struct metal_interrupt *controller)
{
20014a42:	1101                	addi	sp,sp,-32
20014a44:	ce22                	sw	s0,28(sp)
20014a46:	1000                	addi	s0,sp,32
20014a48:	fea42623          	sw	a0,-20(s0)
/home/jw/Desktop/sifive-standalone-project/bsp/build/debug/./metal/machine.h:376
	if ((uintptr_t)controller == (uintptr_t)&__metal_dt_interrupt_controller_c000000) {
20014a4c:	fec42703          	lw	a4,-20(s0)
20014a50:	800007b7          	lui	a5,0x80000
20014a54:	46078793          	addi	a5,a5,1120 # 80000460 <metal_segment_heap_target_end+0xffffecf0>
20014a58:	00f71463          	bne	a4,a5,20014a60 <__metal_driver_sifive_plic0_max_priority+0x1e>
/home/jw/Desktop/sifive-standalone-project/bsp/build/debug/./metal/machine.h:377
		return METAL_RISCV_PLIC0_C000000_RISCV_MAX_PRIORITY;
20014a5c:	479d                	li	a5,7
20014a5e:	a011                	j	20014a62 <__metal_driver_sifive_plic0_max_priority+0x20>
/home/jw/Desktop/sifive-standalone-project/bsp/build/debug/./metal/machine.h:380
	}
	else {
		return 0;
20014a60:	4781                	li	a5,0
/home/jw/Desktop/sifive-standalone-project/bsp/build/debug/./metal/machine.h:382
	}
}
20014a62:	853e                	mv	a0,a5
20014a64:	4472                	lw	s0,28(sp)
20014a66:	6105                	addi	sp,sp,32
20014a68:	8082                	ret

20014a6a <__metal_driver_sifive_plic0_interrupt_parents>:
__metal_driver_sifive_plic0_interrupt_parents():
/home/jw/Desktop/sifive-standalone-project/bsp/build/debug/./metal/machine.h:385

static __inline__ struct metal_interrupt * __metal_driver_sifive_plic0_interrupt_parents(struct metal_interrupt *controller, int idx)
{
20014a6a:	1101                	addi	sp,sp,-32
20014a6c:	ce22                	sw	s0,28(sp)
20014a6e:	1000                	addi	s0,sp,32
20014a70:	fea42623          	sw	a0,-20(s0)
20014a74:	feb42423          	sw	a1,-24(s0)
/home/jw/Desktop/sifive-standalone-project/bsp/build/debug/./metal/machine.h:386
	if (idx == 0) {
20014a78:	fe842783          	lw	a5,-24(s0)
20014a7c:	e791                	bnez	a5,20014a88 <__metal_driver_sifive_plic0_interrupt_parents+0x1e>
/home/jw/Desktop/sifive-standalone-project/bsp/build/debug/./metal/machine.h:387
		return (struct metal_interrupt *)&__metal_dt_cpu_0_interrupt_controller.controller;
20014a7e:	800007b7          	lui	a5,0x80000
20014a82:	09078793          	addi	a5,a5,144 # 80000090 <metal_segment_heap_target_end+0xffffe920>
20014a86:	a011                	j	20014a8a <__metal_driver_sifive_plic0_interrupt_parents+0x20>
/home/jw/Desktop/sifive-standalone-project/bsp/build/debug/./metal/machine.h:390
	}
	else {
		return NULL;
20014a88:	4781                	li	a5,0
/home/jw/Desktop/sifive-standalone-project/bsp/build/debug/./metal/machine.h:392
	}
}
20014a8a:	853e                	mv	a0,a5
20014a8c:	4472                	lw	s0,28(sp)
20014a8e:	6105                	addi	sp,sp,32
20014a90:	8082                	ret

20014a92 <__metal_driver_sifive_plic0_interrupt_lines>:
__metal_driver_sifive_plic0_interrupt_lines():
/home/jw/Desktop/sifive-standalone-project/bsp/build/debug/./metal/machine.h:395

static __inline__ int __metal_driver_sifive_plic0_interrupt_lines(struct metal_interrupt *controller, int idx)
{
20014a92:	1101                	addi	sp,sp,-32
20014a94:	ce22                	sw	s0,28(sp)
20014a96:	1000                	addi	s0,sp,32
20014a98:	fea42623          	sw	a0,-20(s0)
20014a9c:	feb42423          	sw	a1,-24(s0)
/home/jw/Desktop/sifive-standalone-project/bsp/build/debug/./metal/machine.h:396
	if (idx == 0) {
20014aa0:	fe842783          	lw	a5,-24(s0)
20014aa4:	e399                	bnez	a5,20014aaa <__metal_driver_sifive_plic0_interrupt_lines+0x18>
/home/jw/Desktop/sifive-standalone-project/bsp/build/debug/./metal/machine.h:397
		return 11;
20014aa6:	47ad                	li	a5,11
20014aa8:	a011                	j	20014aac <__metal_driver_sifive_plic0_interrupt_lines+0x1a>
/home/jw/Desktop/sifive-standalone-project/bsp/build/debug/./metal/machine.h:400
	}
	else {
		return 0;
20014aaa:	4781                	li	a5,0
/home/jw/Desktop/sifive-standalone-project/bsp/build/debug/./metal/machine.h:402
	}
}
20014aac:	853e                	mv	a0,a5
20014aae:	4472                	lw	s0,28(sp)
20014ab0:	6105                	addi	sp,sp,32
20014ab2:	8082                	ret

20014ab4 <__metal_driver_sifive_plic0_context_ids>:
__metal_driver_sifive_plic0_context_ids():
/home/jw/Desktop/sifive-standalone-project/bsp/build/debug/./metal/machine.h:405

static __inline__ int __metal_driver_sifive_plic0_context_ids(int hartid)
{
20014ab4:	1101                	addi	sp,sp,-32
20014ab6:	ce22                	sw	s0,28(sp)
20014ab8:	1000                	addi	s0,sp,32
20014aba:	fea42623          	sw	a0,-20(s0)
/home/jw/Desktop/sifive-standalone-project/bsp/build/debug/./metal/machine.h:406
	if (hartid == 0) {
20014abe:	fec42783          	lw	a5,-20(s0)
20014ac2:	e399                	bnez	a5,20014ac8 <__metal_driver_sifive_plic0_context_ids+0x14>
/home/jw/Desktop/sifive-standalone-project/bsp/build/debug/./metal/machine.h:407
		return 0;
20014ac4:	4781                	li	a5,0
20014ac6:	a011                	j	20014aca <__metal_driver_sifive_plic0_context_ids+0x16>
/home/jw/Desktop/sifive-standalone-project/bsp/build/debug/./metal/machine.h:410
	}
	else {
		return -1;
20014ac8:	57fd                	li	a5,-1
/home/jw/Desktop/sifive-standalone-project/bsp/build/debug/./metal/machine.h:412
	}
}
20014aca:	853e                	mv	a0,a5
20014acc:	4472                	lw	s0,28(sp)
20014ace:	6105                	addi	sp,sp,32
20014ad0:	8082                	ret

20014ad2 <__metal_plic0_claim_interrupt>:
__metal_plic0_claim_interrupt():
/home/jw/Desktop/sifive-standalone-project/freedom-metal/src/drivers/riscv_plic0.c:18
#include <metal/machine.h>
#include <metal/shutdown.h>

unsigned int
__metal_plic0_claim_interrupt(struct __metal_driver_riscv_plic0 *plic,
                              int context_id) {
20014ad2:	7179                	addi	sp,sp,-48
20014ad4:	d606                	sw	ra,44(sp)
20014ad6:	d422                	sw	s0,40(sp)
20014ad8:	1800                	addi	s0,sp,48
20014ada:	fca42e23          	sw	a0,-36(s0)
20014ade:	fcb42c23          	sw	a1,-40(s0)
/home/jw/Desktop/sifive-standalone-project/freedom-metal/src/drivers/riscv_plic0.c:19
    unsigned long control_base = __metal_driver_sifive_plic0_control_base(
20014ae2:	fdc42503          	lw	a0,-36(s0)
20014ae6:	3721                	jal	200149ee <__metal_driver_sifive_plic0_control_base>
20014ae8:	fea42623          	sw	a0,-20(s0)
/home/jw/Desktop/sifive-standalone-project/freedom-metal/src/drivers/riscv_plic0.c:21
        (struct metal_interrupt *)plic);
    return __METAL_ACCESS_ONCE(
20014aec:	fd842783          	lw	a5,-40(s0)
20014af0:	00c79713          	slli	a4,a5,0xc
20014af4:	fec42783          	lw	a5,-20(s0)
20014af8:	973e                	add	a4,a4,a5
20014afa:	002007b7          	lui	a5,0x200
20014afe:	0791                	addi	a5,a5,4
20014b00:	97ba                	add	a5,a5,a4
20014b02:	439c                	lw	a5,0(a5)
/home/jw/Desktop/sifive-standalone-project/freedom-metal/src/drivers/riscv_plic0.c:25
        (__metal_io_u32 *)(control_base + METAL_RISCV_PLIC0_CONTEXT_BASE +
                           (context_id * METAL_RISCV_PLIC0_CONTEXT_PER_HART) +
                           METAL_RISCV_PLIC0_CONTEXT_CLAIM));
}
20014b04:	853e                	mv	a0,a5
20014b06:	50b2                	lw	ra,44(sp)
20014b08:	5422                	lw	s0,40(sp)
20014b0a:	6145                	addi	sp,sp,48
20014b0c:	8082                	ret

20014b0e <__metal_plic0_complete_interrupt>:
__metal_plic0_complete_interrupt():
/home/jw/Desktop/sifive-standalone-project/freedom-metal/src/drivers/riscv_plic0.c:28

void __metal_plic0_complete_interrupt(struct __metal_driver_riscv_plic0 *plic,
                                      int context_id, unsigned int id) {
20014b0e:	7179                	addi	sp,sp,-48
20014b10:	d606                	sw	ra,44(sp)
20014b12:	d422                	sw	s0,40(sp)
20014b14:	1800                	addi	s0,sp,48
20014b16:	fca42e23          	sw	a0,-36(s0)
20014b1a:	fcb42c23          	sw	a1,-40(s0)
20014b1e:	fcc42a23          	sw	a2,-44(s0)
/home/jw/Desktop/sifive-standalone-project/freedom-metal/src/drivers/riscv_plic0.c:29
    unsigned long control_base = __metal_driver_sifive_plic0_control_base(
20014b22:	fdc42503          	lw	a0,-36(s0)
20014b26:	35e1                	jal	200149ee <__metal_driver_sifive_plic0_control_base>
20014b28:	fea42623          	sw	a0,-20(s0)
/home/jw/Desktop/sifive-standalone-project/freedom-metal/src/drivers/riscv_plic0.c:31
        (struct metal_interrupt *)plic);
    __METAL_ACCESS_ONCE(
20014b2c:	fd842783          	lw	a5,-40(s0)
20014b30:	00c79713          	slli	a4,a5,0xc
20014b34:	fec42783          	lw	a5,-20(s0)
20014b38:	973e                	add	a4,a4,a5
20014b3a:	002007b7          	lui	a5,0x200
20014b3e:	0791                	addi	a5,a5,4
20014b40:	97ba                	add	a5,a5,a4
20014b42:	873e                	mv	a4,a5
/home/jw/Desktop/sifive-standalone-project/freedom-metal/src/drivers/riscv_plic0.c:34
        (__metal_io_u32 *)(control_base + METAL_RISCV_PLIC0_CONTEXT_BASE +
                           (context_id * METAL_RISCV_PLIC0_CONTEXT_PER_HART) +
                           METAL_RISCV_PLIC0_CONTEXT_CLAIM)) = id;
20014b44:	fd442783          	lw	a5,-44(s0)
20014b48:	c31c                	sw	a5,0(a4)
/home/jw/Desktop/sifive-standalone-project/freedom-metal/src/drivers/riscv_plic0.c:35
}
20014b4a:	0001                	nop
20014b4c:	50b2                	lw	ra,44(sp)
20014b4e:	5422                	lw	s0,40(sp)
20014b50:	6145                	addi	sp,sp,48
20014b52:	8082                	ret

20014b54 <__metal_plic0_set_threshold>:
__metal_plic0_set_threshold():
/home/jw/Desktop/sifive-standalone-project/freedom-metal/src/drivers/riscv_plic0.c:38

int __metal_plic0_set_threshold(struct metal_interrupt *controller,
                                int context_id, unsigned int threshold) {
20014b54:	7179                	addi	sp,sp,-48
20014b56:	d606                	sw	ra,44(sp)
20014b58:	d422                	sw	s0,40(sp)
20014b5a:	1800                	addi	s0,sp,48
20014b5c:	fca42e23          	sw	a0,-36(s0)
20014b60:	fcb42c23          	sw	a1,-40(s0)
20014b64:	fcc42a23          	sw	a2,-44(s0)
/home/jw/Desktop/sifive-standalone-project/freedom-metal/src/drivers/riscv_plic0.c:40
    unsigned long control_base =
        __metal_driver_sifive_plic0_control_base(controller);
20014b68:	fdc42503          	lw	a0,-36(s0)
20014b6c:	3549                	jal	200149ee <__metal_driver_sifive_plic0_control_base>
20014b6e:	fea42623          	sw	a0,-20(s0)
/home/jw/Desktop/sifive-standalone-project/freedom-metal/src/drivers/riscv_plic0.c:41
    __METAL_ACCESS_ONCE(
20014b72:	fd842783          	lw	a5,-40(s0)
20014b76:	00c79713          	slli	a4,a5,0xc
20014b7a:	fec42783          	lw	a5,-20(s0)
20014b7e:	973e                	add	a4,a4,a5
20014b80:	002007b7          	lui	a5,0x200
20014b84:	97ba                	add	a5,a5,a4
20014b86:	873e                	mv	a4,a5
/home/jw/Desktop/sifive-standalone-project/freedom-metal/src/drivers/riscv_plic0.c:44
        (__metal_io_u32 *)(control_base + METAL_RISCV_PLIC0_CONTEXT_BASE +
                           (context_id * METAL_RISCV_PLIC0_CONTEXT_PER_HART) +
                           METAL_RISCV_PLIC0_CONTEXT_THRESHOLD)) = threshold;
20014b88:	fd442783          	lw	a5,-44(s0)
20014b8c:	c31c                	sw	a5,0(a4)
/home/jw/Desktop/sifive-standalone-project/freedom-metal/src/drivers/riscv_plic0.c:45
    return 0;
20014b8e:	4781                	li	a5,0
/home/jw/Desktop/sifive-standalone-project/freedom-metal/src/drivers/riscv_plic0.c:46
}
20014b90:	853e                	mv	a0,a5
20014b92:	50b2                	lw	ra,44(sp)
20014b94:	5422                	lw	s0,40(sp)
20014b96:	6145                	addi	sp,sp,48
20014b98:	8082                	ret

20014b9a <__metal_plic0_get_threshold>:
__metal_plic0_get_threshold():
/home/jw/Desktop/sifive-standalone-project/freedom-metal/src/drivers/riscv_plic0.c:49

unsigned int __metal_plic0_get_threshold(struct metal_interrupt *controller,
                                         int context_id) {
20014b9a:	7179                	addi	sp,sp,-48
20014b9c:	d606                	sw	ra,44(sp)
20014b9e:	d422                	sw	s0,40(sp)
20014ba0:	1800                	addi	s0,sp,48
20014ba2:	fca42e23          	sw	a0,-36(s0)
20014ba6:	fcb42c23          	sw	a1,-40(s0)
/home/jw/Desktop/sifive-standalone-project/freedom-metal/src/drivers/riscv_plic0.c:51
    unsigned long control_base =
        __metal_driver_sifive_plic0_control_base(controller);
20014baa:	fdc42503          	lw	a0,-36(s0)
20014bae:	3581                	jal	200149ee <__metal_driver_sifive_plic0_control_base>
20014bb0:	fea42623          	sw	a0,-20(s0)
/home/jw/Desktop/sifive-standalone-project/freedom-metal/src/drivers/riscv_plic0.c:52
    return __METAL_ACCESS_ONCE(
20014bb4:	fd842783          	lw	a5,-40(s0)
20014bb8:	00c79713          	slli	a4,a5,0xc
20014bbc:	fec42783          	lw	a5,-20(s0)
20014bc0:	973e                	add	a4,a4,a5
20014bc2:	002007b7          	lui	a5,0x200
20014bc6:	97ba                	add	a5,a5,a4
20014bc8:	439c                	lw	a5,0(a5)
/home/jw/Desktop/sifive-standalone-project/freedom-metal/src/drivers/riscv_plic0.c:56
        (__metal_io_u32 *)(control_base + METAL_RISCV_PLIC0_CONTEXT_BASE +
                           (context_id * METAL_RISCV_PLIC0_CONTEXT_PER_HART) +
                           METAL_RISCV_PLIC0_CONTEXT_THRESHOLD));
}
20014bca:	853e                	mv	a0,a5
20014bcc:	50b2                	lw	ra,44(sp)
20014bce:	5422                	lw	s0,40(sp)
20014bd0:	6145                	addi	sp,sp,48
20014bd2:	8082                	ret

20014bd4 <__metal_driver_riscv_plic0_set_priority>:
__metal_driver_riscv_plic0_set_priority():
/home/jw/Desktop/sifive-standalone-project/freedom-metal/src/drivers/riscv_plic0.c:59

int __metal_driver_riscv_plic0_set_priority(struct metal_interrupt *controller,
                                            int id, unsigned int priority) {
20014bd4:	7179                	addi	sp,sp,-48
20014bd6:	d606                	sw	ra,44(sp)
20014bd8:	d422                	sw	s0,40(sp)
20014bda:	1800                	addi	s0,sp,48
20014bdc:	fca42e23          	sw	a0,-36(s0)
20014be0:	fcb42c23          	sw	a1,-40(s0)
20014be4:	fcc42a23          	sw	a2,-44(s0)
/home/jw/Desktop/sifive-standalone-project/freedom-metal/src/drivers/riscv_plic0.c:60
    unsigned long control_base = __metal_driver_sifive_plic0_control_base(
20014be8:	fdc42503          	lw	a0,-36(s0)
20014bec:	3509                	jal	200149ee <__metal_driver_sifive_plic0_control_base>
20014bee:	fea42623          	sw	a0,-20(s0)
/home/jw/Desktop/sifive-standalone-project/freedom-metal/src/drivers/riscv_plic0.c:62
        (struct metal_interrupt *)controller);
    unsigned int max_priority = __metal_driver_sifive_plic0_max_priority(
20014bf2:	fdc42503          	lw	a0,-36(s0)
20014bf6:	35b1                	jal	20014a42 <__metal_driver_sifive_plic0_max_priority>
20014bf8:	87aa                	mv	a5,a0
20014bfa:	fef42423          	sw	a5,-24(s0)
/home/jw/Desktop/sifive-standalone-project/freedom-metal/src/drivers/riscv_plic0.c:64
        (struct metal_interrupt *)controller);
    if ((max_priority) && (priority < max_priority)) {
20014bfe:	fe842783          	lw	a5,-24(s0)
20014c02:	c785                	beqz	a5,20014c2a <__metal_driver_riscv_plic0_set_priority+0x56>
/home/jw/Desktop/sifive-standalone-project/freedom-metal/src/drivers/riscv_plic0.c:64 (discriminator 1)
20014c04:	fd442703          	lw	a4,-44(s0)
20014c08:	fe842783          	lw	a5,-24(s0)
20014c0c:	00f77f63          	bgeu	a4,a5,20014c2a <__metal_driver_riscv_plic0_set_priority+0x56>
/home/jw/Desktop/sifive-standalone-project/freedom-metal/src/drivers/riscv_plic0.c:65
        __METAL_ACCESS_ONCE(
20014c10:	fd842783          	lw	a5,-40(s0)
20014c14:	078a                	slli	a5,a5,0x2
20014c16:	873e                	mv	a4,a5
20014c18:	fec42783          	lw	a5,-20(s0)
20014c1c:	97ba                	add	a5,a5,a4
20014c1e:	873e                	mv	a4,a5
/home/jw/Desktop/sifive-standalone-project/freedom-metal/src/drivers/riscv_plic0.c:67
            (__metal_io_u32 *)(control_base + METAL_RISCV_PLIC0_PRIORITY_BASE +
                               (id << METAL_PLIC_SOURCE_PRIORITY_SHIFT))) =
20014c20:	fd442783          	lw	a5,-44(s0)
20014c24:	c31c                	sw	a5,0(a4)
/home/jw/Desktop/sifive-standalone-project/freedom-metal/src/drivers/riscv_plic0.c:69
            priority;
        return 0;
20014c26:	4781                	li	a5,0
20014c28:	a011                	j	20014c2c <__metal_driver_riscv_plic0_set_priority+0x58>
/home/jw/Desktop/sifive-standalone-project/freedom-metal/src/drivers/riscv_plic0.c:71
    }
    return -1;
20014c2a:	57fd                	li	a5,-1
/home/jw/Desktop/sifive-standalone-project/freedom-metal/src/drivers/riscv_plic0.c:72
}
20014c2c:	853e                	mv	a0,a5
20014c2e:	50b2                	lw	ra,44(sp)
20014c30:	5422                	lw	s0,40(sp)
20014c32:	6145                	addi	sp,sp,48
20014c34:	8082                	ret

20014c36 <__metal_driver_riscv_plic0_get_priority>:
__metal_driver_riscv_plic0_get_priority():
/home/jw/Desktop/sifive-standalone-project/freedom-metal/src/drivers/riscv_plic0.c:76

unsigned int
__metal_driver_riscv_plic0_get_priority(struct metal_interrupt *controller,
                                        int id) {
20014c36:	7179                	addi	sp,sp,-48
20014c38:	d606                	sw	ra,44(sp)
20014c3a:	d422                	sw	s0,40(sp)
20014c3c:	1800                	addi	s0,sp,48
20014c3e:	fca42e23          	sw	a0,-36(s0)
20014c42:	fcb42c23          	sw	a1,-40(s0)
/home/jw/Desktop/sifive-standalone-project/freedom-metal/src/drivers/riscv_plic0.c:78
    unsigned long control_base =
        __metal_driver_sifive_plic0_control_base(controller);
20014c46:	fdc42503          	lw	a0,-36(s0)
20014c4a:	3355                	jal	200149ee <__metal_driver_sifive_plic0_control_base>
20014c4c:	fea42623          	sw	a0,-20(s0)
/home/jw/Desktop/sifive-standalone-project/freedom-metal/src/drivers/riscv_plic0.c:80

    return __METAL_ACCESS_ONCE(
20014c50:	fd842783          	lw	a5,-40(s0)
20014c54:	078a                	slli	a5,a5,0x2
20014c56:	873e                	mv	a4,a5
20014c58:	fec42783          	lw	a5,-20(s0)
20014c5c:	97ba                	add	a5,a5,a4
20014c5e:	439c                	lw	a5,0(a5)
/home/jw/Desktop/sifive-standalone-project/freedom-metal/src/drivers/riscv_plic0.c:83
        (__metal_io_u32 *)(control_base + METAL_RISCV_PLIC0_PRIORITY_BASE +
                           (id << METAL_PLIC_SOURCE_PRIORITY_SHIFT)));
}
20014c60:	853e                	mv	a0,a5
20014c62:	50b2                	lw	ra,44(sp)
20014c64:	5422                	lw	s0,40(sp)
20014c66:	6145                	addi	sp,sp,48
20014c68:	8082                	ret

20014c6a <__metal_plic0_enable>:
__metal_plic0_enable():
/home/jw/Desktop/sifive-standalone-project/freedom-metal/src/drivers/riscv_plic0.c:86

int __metal_plic0_enable(struct __metal_driver_riscv_plic0 *plic,
                         int context_id, int id, int enable) {
20014c6a:	7179                	addi	sp,sp,-48
20014c6c:	d606                	sw	ra,44(sp)
20014c6e:	d422                	sw	s0,40(sp)
20014c70:	1800                	addi	s0,sp,48
20014c72:	fca42e23          	sw	a0,-36(s0)
20014c76:	fcb42c23          	sw	a1,-40(s0)
20014c7a:	fcc42a23          	sw	a2,-44(s0)
20014c7e:	fcd42823          	sw	a3,-48(s0)
/home/jw/Desktop/sifive-standalone-project/freedom-metal/src/drivers/riscv_plic0.c:88
    unsigned int current;
    unsigned long control_base = __metal_driver_sifive_plic0_control_base(
20014c82:	fdc42503          	lw	a0,-36(s0)
20014c86:	33a5                	jal	200149ee <__metal_driver_sifive_plic0_control_base>
20014c88:	fea42623          	sw	a0,-20(s0)
/home/jw/Desktop/sifive-standalone-project/freedom-metal/src/drivers/riscv_plic0.c:91
        (struct metal_interrupt *)plic);

    current = __METAL_ACCESS_ONCE(
20014c8c:	fd842783          	lw	a5,-40(s0)
20014c90:	00779713          	slli	a4,a5,0x7
20014c94:	fec42783          	lw	a5,-20(s0)
20014c98:	97ba                	add	a5,a5,a4
20014c9a:	fd442703          	lw	a4,-44(s0)
20014c9e:	8715                	srai	a4,a4,0x5
20014ca0:	070a                	slli	a4,a4,0x2
20014ca2:	973e                	add	a4,a4,a5
20014ca4:	6789                	lui	a5,0x2
20014ca6:	97ba                	add	a5,a5,a4
20014ca8:	439c                	lw	a5,0(a5)
20014caa:	fef42423          	sw	a5,-24(s0)
/home/jw/Desktop/sifive-standalone-project/freedom-metal/src/drivers/riscv_plic0.c:100
    __METAL_ACCESS_ONCE(
        (__metal_io_u32 *)(control_base + METAL_RISCV_PLIC0_ENABLE_BASE +
                           (context_id * METAL_RISCV_PLIC0_ENABLE_PER_HART) +
                           ((id >> METAL_PLIC_SOURCE_SHIFT) * 4))) =
        enable ? (current | (1 << (id & METAL_PLIC_SOURCE_MASK)))
               : (current & ~(1 << (id & METAL_PLIC_SOURCE_MASK)));
20014cae:	fd042783          	lw	a5,-48(s0)
20014cb2:	cf81                	beqz	a5,20014cca <__metal_plic0_enable+0x60>
/home/jw/Desktop/sifive-standalone-project/freedom-metal/src/drivers/riscv_plic0.c:99 (discriminator 1)
        enable ? (current | (1 << (id & METAL_PLIC_SOURCE_MASK)))
20014cb4:	fd442783          	lw	a5,-44(s0)
20014cb8:	8bfd                	andi	a5,a5,31
20014cba:	4705                	li	a4,1
20014cbc:	00f717b3          	sll	a5,a4,a5
20014cc0:	873e                	mv	a4,a5
/home/jw/Desktop/sifive-standalone-project/freedom-metal/src/drivers/riscv_plic0.c:100 (discriminator 1)
               : (current & ~(1 << (id & METAL_PLIC_SOURCE_MASK)));
20014cc2:	fe842783          	lw	a5,-24(s0)
20014cc6:	8fd9                	or	a5,a5,a4
20014cc8:	a829                	j	20014ce2 <__metal_plic0_enable+0x78>
/home/jw/Desktop/sifive-standalone-project/freedom-metal/src/drivers/riscv_plic0.c:100 (discriminator 2)
20014cca:	fd442783          	lw	a5,-44(s0)
20014cce:	8bfd                	andi	a5,a5,31
20014cd0:	4705                	li	a4,1
20014cd2:	00f717b3          	sll	a5,a4,a5
20014cd6:	fff7c793          	not	a5,a5
20014cda:	873e                	mv	a4,a5
20014cdc:	fe842783          	lw	a5,-24(s0)
20014ce0:	8ff9                	and	a5,a5,a4
/home/jw/Desktop/sifive-standalone-project/freedom-metal/src/drivers/riscv_plic0.c:95
    __METAL_ACCESS_ONCE(
20014ce2:	fd842703          	lw	a4,-40(s0)
20014ce6:	00771693          	slli	a3,a4,0x7
20014cea:	fec42703          	lw	a4,-20(s0)
20014cee:	9736                	add	a4,a4,a3
20014cf0:	fd442683          	lw	a3,-44(s0)
20014cf4:	8695                	srai	a3,a3,0x5
20014cf6:	068a                	slli	a3,a3,0x2
20014cf8:	96ba                	add	a3,a3,a4
20014cfa:	6709                	lui	a4,0x2
20014cfc:	9736                	add	a4,a4,a3
/home/jw/Desktop/sifive-standalone-project/freedom-metal/src/drivers/riscv_plic0.c:98
                           ((id >> METAL_PLIC_SOURCE_SHIFT) * 4))) =
20014cfe:	c31c                	sw	a5,0(a4)
/home/jw/Desktop/sifive-standalone-project/freedom-metal/src/drivers/riscv_plic0.c:102

    return 0;
20014d00:	4781                	li	a5,0
/home/jw/Desktop/sifive-standalone-project/freedom-metal/src/drivers/riscv_plic0.c:103
}
20014d02:	853e                	mv	a0,a5
20014d04:	50b2                	lw	ra,44(sp)
20014d06:	5422                	lw	s0,40(sp)
20014d08:	6145                	addi	sp,sp,48
20014d0a:	8082                	ret

20014d0c <__metal_plic0_default_handler>:
__metal_plic0_default_handler():
/home/jw/Desktop/sifive-standalone-project/freedom-metal/src/drivers/riscv_plic0.c:105

void __metal_plic0_default_handler(int id, void *priv) { metal_shutdown(300); }
20014d0c:	1101                	addi	sp,sp,-32
20014d0e:	ce06                	sw	ra,28(sp)
20014d10:	cc22                	sw	s0,24(sp)
20014d12:	1000                	addi	s0,sp,32
20014d14:	fea42623          	sw	a0,-20(s0)
20014d18:	feb42423          	sw	a1,-24(s0)
20014d1c:	12c00513          	li	a0,300
20014d20:	254020ef          	jal	ra,20016f74 <metal_shutdown>

20014d24 <__metal_plic0_handler>:
__metal_plic0_handler():
/home/jw/Desktop/sifive-standalone-project/freedom-metal/src/drivers/riscv_plic0.c:107

void __metal_plic0_handler(int id, void *priv) {
20014d24:	7179                	addi	sp,sp,-48
20014d26:	d606                	sw	ra,44(sp)
20014d28:	d422                	sw	s0,40(sp)
20014d2a:	1800                	addi	s0,sp,48
20014d2c:	fca42e23          	sw	a0,-36(s0)
20014d30:	fcb42c23          	sw	a1,-40(s0)
/home/jw/Desktop/sifive-standalone-project/freedom-metal/src/drivers/riscv_plic0.c:108
    struct __metal_driver_riscv_plic0 *plic = priv;
20014d34:	fd842783          	lw	a5,-40(s0)
20014d38:	fef42623          	sw	a5,-20(s0)
/home/jw/Desktop/sifive-standalone-project/freedom-metal/src/drivers/riscv_plic0.c:110
    int contextid =
        __metal_driver_sifive_plic0_context_ids(__metal_myhart_id());
20014d3c:	b72fe0ef          	jal	ra,200130ae <__metal_myhart_id>
20014d40:	87aa                	mv	a5,a0
20014d42:	853e                	mv	a0,a5
20014d44:	3b85                	jal	20014ab4 <__metal_driver_sifive_plic0_context_ids>
20014d46:	fea42423          	sw	a0,-24(s0)
/home/jw/Desktop/sifive-standalone-project/freedom-metal/src/drivers/riscv_plic0.c:111
    unsigned int idx = __metal_plic0_claim_interrupt(plic, contextid);
20014d4a:	fe842583          	lw	a1,-24(s0)
20014d4e:	fec42503          	lw	a0,-20(s0)
20014d52:	3341                	jal	20014ad2 <__metal_plic0_claim_interrupt>
20014d54:	fea42223          	sw	a0,-28(s0)
/home/jw/Desktop/sifive-standalone-project/freedom-metal/src/drivers/riscv_plic0.c:112
    unsigned int num_interrupts = __metal_driver_sifive_plic0_num_interrupts(
20014d58:	fec42503          	lw	a0,-20(s0)
20014d5c:	3975                	jal	20014a18 <__metal_driver_sifive_plic0_num_interrupts>
20014d5e:	87aa                	mv	a5,a0
20014d60:	fef42023          	sw	a5,-32(s0)
/home/jw/Desktop/sifive-standalone-project/freedom-metal/src/drivers/riscv_plic0.c:115
        (struct metal_interrupt *)plic);

    if ((idx < num_interrupts) && (plic->metal_exint_table[idx])) {
20014d64:	fe442703          	lw	a4,-28(s0)
20014d68:	fe042783          	lw	a5,-32(s0)
20014d6c:	04f77263          	bgeu	a4,a5,20014db0 <__metal_plic0_handler+0x8c>
/home/jw/Desktop/sifive-standalone-project/freedom-metal/src/drivers/riscv_plic0.c:115 (discriminator 1)
20014d70:	fec42703          	lw	a4,-20(s0)
20014d74:	fe442783          	lw	a5,-28(s0)
20014d78:	078a                	slli	a5,a5,0x2
20014d7a:	97ba                	add	a5,a5,a4
20014d7c:	479c                	lw	a5,8(a5)
20014d7e:	cb8d                	beqz	a5,20014db0 <__metal_plic0_handler+0x8c>
/home/jw/Desktop/sifive-standalone-project/freedom-metal/src/drivers/riscv_plic0.c:116
        plic->metal_exint_table[idx](idx,
20014d80:	fec42703          	lw	a4,-20(s0)
20014d84:	fe442783          	lw	a5,-28(s0)
20014d88:	078a                	slli	a5,a5,0x2
20014d8a:	97ba                	add	a5,a5,a4
20014d8c:	0087a803          	lw	a6,8(a5) # 2008 <__heap_size+0x1808>
20014d90:	fe442603          	lw	a2,-28(s0)
20014d94:	fec42683          	lw	a3,-20(s0)
20014d98:	fe442703          	lw	a4,-28(s0)
20014d9c:	87ba                	mv	a5,a4
20014d9e:	0786                	slli	a5,a5,0x1
20014da0:	97ba                	add	a5,a5,a4
20014da2:	078e                	slli	a5,a5,0x3
20014da4:	97b6                	add	a5,a5,a3
20014da6:	0f07a783          	lw	a5,240(a5)
20014daa:	85be                	mv	a1,a5
20014dac:	8532                	mv	a0,a2
20014dae:	9802                	jalr	a6
/home/jw/Desktop/sifive-standalone-project/freedom-metal/src/drivers/riscv_plic0.c:120
                                     plic->metal_exdata_table[idx].exint_data);
    }

    __metal_plic0_complete_interrupt(plic, contextid, idx);
20014db0:	fe442603          	lw	a2,-28(s0)
20014db4:	fe842583          	lw	a1,-24(s0)
20014db8:	fec42503          	lw	a0,-20(s0)
20014dbc:	3b89                	jal	20014b0e <__metal_plic0_complete_interrupt>
/home/jw/Desktop/sifive-standalone-project/freedom-metal/src/drivers/riscv_plic0.c:121
}
20014dbe:	0001                	nop
20014dc0:	50b2                	lw	ra,44(sp)
20014dc2:	5422                	lw	s0,40(sp)
20014dc4:	6145                	addi	sp,sp,48
20014dc6:	8082                	ret

20014dc8 <__metal_driver_riscv_plic0_init>:
__metal_driver_riscv_plic0_init():
/home/jw/Desktop/sifive-standalone-project/freedom-metal/src/drivers/riscv_plic0.c:123

void __metal_driver_riscv_plic0_init(struct metal_interrupt *controller) {
20014dc8:	7139                	addi	sp,sp,-64
20014dca:	de06                	sw	ra,60(sp)
20014dcc:	dc22                	sw	s0,56(sp)
20014dce:	0080                	addi	s0,sp,64
20014dd0:	fca42623          	sw	a0,-52(s0)
/home/jw/Desktop/sifive-standalone-project/freedom-metal/src/drivers/riscv_plic0.c:124
    struct __metal_driver_riscv_plic0 *plic = (void *)(controller);
20014dd4:	fcc42783          	lw	a5,-52(s0)
20014dd8:	fef42223          	sw	a5,-28(s0)
/home/jw/Desktop/sifive-standalone-project/freedom-metal/src/drivers/riscv_plic0.c:126

    if (!plic->init_done) {
20014ddc:	fe442783          	lw	a5,-28(s0)
20014de0:	43dc                	lw	a5,4(a5)
20014de2:	12079a63          	bnez	a5,20014f16 <__metal_driver_riscv_plic0_init+0x14e>
/home/jw/Desktop/sifive-standalone-project/freedom-metal/src/drivers/riscv_plic0.c:130
        int num_interrupts, line;
        struct metal_interrupt *intc;

        for (int parent = 0; parent < __METAL_PLIC_NUM_PARENTS; parent++) {
20014de6:	fe042623          	sw	zero,-20(s0)
20014dea:	aa31                	j	20014f06 <__metal_driver_riscv_plic0_init+0x13e>
/home/jw/Desktop/sifive-standalone-project/freedom-metal/src/drivers/riscv_plic0.c:132
            num_interrupts =
                __metal_driver_sifive_plic0_num_interrupts(controller);
20014dec:	fcc42503          	lw	a0,-52(s0)
20014df0:	c29ff0ef          	jal	ra,20014a18 <__metal_driver_sifive_plic0_num_interrupts>
20014df4:	fea42023          	sw	a0,-32(s0)
/home/jw/Desktop/sifive-standalone-project/freedom-metal/src/drivers/riscv_plic0.c:133
            intc = __metal_driver_sifive_plic0_interrupt_parents(controller,
20014df8:	fec42583          	lw	a1,-20(s0)
20014dfc:	fcc42503          	lw	a0,-52(s0)
20014e00:	c6bff0ef          	jal	ra,20014a6a <__metal_driver_sifive_plic0_interrupt_parents>
20014e04:	fca42e23          	sw	a0,-36(s0)
/home/jw/Desktop/sifive-standalone-project/freedom-metal/src/drivers/riscv_plic0.c:136
                                                                 parent);
            line =
                __metal_driver_sifive_plic0_interrupt_lines(controller, parent);
20014e08:	fec42583          	lw	a1,-20(s0)
20014e0c:	fcc42503          	lw	a0,-52(s0)
20014e10:	c83ff0ef          	jal	ra,20014a92 <__metal_driver_sifive_plic0_interrupt_lines>
20014e14:	fca42c23          	sw	a0,-40(s0)
/home/jw/Desktop/sifive-standalone-project/freedom-metal/src/drivers/riscv_plic0.c:139

            /* Initialize ist parent controller, aka cpu_intc. */
            intc->vtable->interrupt_init(intc);
20014e18:	fdc42783          	lw	a5,-36(s0)
20014e1c:	439c                	lw	a5,0(a5)
20014e1e:	439c                	lw	a5,0(a5)
20014e20:	fdc42503          	lw	a0,-36(s0)
20014e24:	9782                	jalr	a5
/home/jw/Desktop/sifive-standalone-project/freedom-metal/src/drivers/riscv_plic0.c:141

            for (int i = 0; i < PLIC0_MAX_INTERRUPTS; i++) {
20014e26:	fe042423          	sw	zero,-24(s0)
20014e2a:	a885                	j	20014e9a <__metal_driver_riscv_plic0_init+0xd2>
/home/jw/Desktop/sifive-standalone-project/freedom-metal/src/drivers/riscv_plic0.c:142
                __metal_plic0_enable(plic, parent, i, METAL_DISABLE);
20014e2c:	4681                	li	a3,0
20014e2e:	fe842603          	lw	a2,-24(s0)
20014e32:	fec42583          	lw	a1,-20(s0)
20014e36:	fe442503          	lw	a0,-28(s0)
20014e3a:	3d05                	jal	20014c6a <__metal_plic0_enable>
/home/jw/Desktop/sifive-standalone-project/freedom-metal/src/drivers/riscv_plic0.c:143
                if (i < num_interrupts) {
20014e3c:	fe842703          	lw	a4,-24(s0)
20014e40:	fe042783          	lw	a5,-32(s0)
20014e44:	04f75663          	bge	a4,a5,20014e90 <__metal_driver_riscv_plic0_init+0xc8>
/home/jw/Desktop/sifive-standalone-project/freedom-metal/src/drivers/riscv_plic0.c:144
                    __metal_driver_riscv_plic0_set_priority(controller, i, 0);
20014e48:	4601                	li	a2,0
20014e4a:	fe842583          	lw	a1,-24(s0)
20014e4e:	fcc42503          	lw	a0,-52(s0)
20014e52:	3349                	jal	20014bd4 <__metal_driver_riscv_plic0_set_priority>
/home/jw/Desktop/sifive-standalone-project/freedom-metal/src/drivers/riscv_plic0.c:145
                    plic->metal_exint_table[i] = NULL;
20014e54:	fe442703          	lw	a4,-28(s0)
20014e58:	fe842783          	lw	a5,-24(s0)
20014e5c:	078a                	slli	a5,a5,0x2
20014e5e:	97ba                	add	a5,a5,a4
20014e60:	0007a423          	sw	zero,8(a5)
/home/jw/Desktop/sifive-standalone-project/freedom-metal/src/drivers/riscv_plic0.c:146
                    plic->metal_exdata_table[i].sub_int = NULL;
20014e64:	fe442683          	lw	a3,-28(s0)
20014e68:	fe842703          	lw	a4,-24(s0)
20014e6c:	87ba                	mv	a5,a4
20014e6e:	0786                	slli	a5,a5,0x1
20014e70:	97ba                	add	a5,a5,a4
20014e72:	078e                	slli	a5,a5,0x3
20014e74:	97b6                	add	a5,a5,a3
20014e76:	0e07a623          	sw	zero,236(a5)
/home/jw/Desktop/sifive-standalone-project/freedom-metal/src/drivers/riscv_plic0.c:147
                    plic->metal_exdata_table[i].exint_data = NULL;
20014e7a:	fe442683          	lw	a3,-28(s0)
20014e7e:	fe842703          	lw	a4,-24(s0)
20014e82:	87ba                	mv	a5,a4
20014e84:	0786                	slli	a5,a5,0x1
20014e86:	97ba                	add	a5,a5,a4
20014e88:	078e                	slli	a5,a5,0x3
20014e8a:	97b6                	add	a5,a5,a3
20014e8c:	0e07a823          	sw	zero,240(a5)
/home/jw/Desktop/sifive-standalone-project/freedom-metal/src/drivers/riscv_plic0.c:141 (discriminator 2)
            for (int i = 0; i < PLIC0_MAX_INTERRUPTS; i++) {
20014e90:	fe842783          	lw	a5,-24(s0)
20014e94:	0785                	addi	a5,a5,1
20014e96:	fef42423          	sw	a5,-24(s0)
/home/jw/Desktop/sifive-standalone-project/freedom-metal/src/drivers/riscv_plic0.c:141 (discriminator 1)
20014e9a:	fe842703          	lw	a4,-24(s0)
20014e9e:	3ff00793          	li	a5,1023
20014ea2:	f8e7d5e3          	bge	a5,a4,20014e2c <__metal_driver_riscv_plic0_init+0x64>
/home/jw/Desktop/sifive-standalone-project/freedom-metal/src/drivers/riscv_plic0.c:151 (discriminator 2)
                }
            }

            __metal_plic0_set_threshold(controller, parent, 0);
20014ea6:	4601                	li	a2,0
20014ea8:	fec42583          	lw	a1,-20(s0)
20014eac:	fcc42503          	lw	a0,-52(s0)
20014eb0:	ca5ff0ef          	jal	ra,20014b54 <__metal_plic0_set_threshold>
/home/jw/Desktop/sifive-standalone-project/freedom-metal/src/drivers/riscv_plic0.c:154 (discriminator 2)

            /* Register plic (ext) interrupt with with parent controller */
            intc->vtable->interrupt_register(intc, line, NULL, plic);
20014eb4:	fdc42783          	lw	a5,-36(s0)
20014eb8:	439c                	lw	a5,0(a5)
20014eba:	4fdc                	lw	a5,28(a5)
20014ebc:	fe442683          	lw	a3,-28(s0)
20014ec0:	4601                	li	a2,0
20014ec2:	fd842583          	lw	a1,-40(s0)
20014ec6:	fdc42503          	lw	a0,-36(s0)
20014eca:	9782                	jalr	a5
/home/jw/Desktop/sifive-standalone-project/freedom-metal/src/drivers/riscv_plic0.c:156 (discriminator 2)
            /* Register plic handler for dispatching its device interrupts */
            intc->vtable->interrupt_register(intc, line, __metal_plic0_handler,
20014ecc:	fdc42783          	lw	a5,-36(s0)
20014ed0:	439c                	lw	a5,0(a5)
20014ed2:	4fd8                	lw	a4,28(a5)
20014ed4:	fe442683          	lw	a3,-28(s0)
20014ed8:	200157b7          	lui	a5,0x20015
20014edc:	d2478613          	addi	a2,a5,-732 # 20014d24 <__metal_plic0_handler>
20014ee0:	fd842583          	lw	a1,-40(s0)
20014ee4:	fdc42503          	lw	a0,-36(s0)
20014ee8:	9702                	jalr	a4
/home/jw/Desktop/sifive-standalone-project/freedom-metal/src/drivers/riscv_plic0.c:159 (discriminator 2)
                                             plic);
            /* Enable plic (ext) interrupt with with parent controller */
            intc->vtable->interrupt_enable(intc, line);
20014eea:	fdc42783          	lw	a5,-36(s0)
20014eee:	439c                	lw	a5,0(a5)
20014ef0:	53dc                	lw	a5,36(a5)
20014ef2:	fd842583          	lw	a1,-40(s0)
20014ef6:	fdc42503          	lw	a0,-36(s0)
20014efa:	9782                	jalr	a5
/home/jw/Desktop/sifive-standalone-project/freedom-metal/src/drivers/riscv_plic0.c:130 (discriminator 2)
        for (int parent = 0; parent < __METAL_PLIC_NUM_PARENTS; parent++) {
20014efc:	fec42783          	lw	a5,-20(s0)
20014f00:	0785                	addi	a5,a5,1
20014f02:	fef42623          	sw	a5,-20(s0)
/home/jw/Desktop/sifive-standalone-project/freedom-metal/src/drivers/riscv_plic0.c:130 (discriminator 1)
20014f06:	fec42783          	lw	a5,-20(s0)
20014f0a:	eef051e3          	blez	a5,20014dec <__metal_driver_riscv_plic0_init+0x24>
/home/jw/Desktop/sifive-standalone-project/freedom-metal/src/drivers/riscv_plic0.c:161
        }
        plic->init_done = 1;
20014f0e:	fe442783          	lw	a5,-28(s0)
20014f12:	4705                	li	a4,1
20014f14:	c3d8                	sw	a4,4(a5)
/home/jw/Desktop/sifive-standalone-project/freedom-metal/src/drivers/riscv_plic0.c:163
    }
}
20014f16:	0001                	nop
20014f18:	50f2                	lw	ra,60(sp)
20014f1a:	5462                	lw	s0,56(sp)
20014f1c:	6121                	addi	sp,sp,64
20014f1e:	8082                	ret

20014f20 <__metal_driver_riscv_plic0_register>:
__metal_driver_riscv_plic0_register():
/home/jw/Desktop/sifive-standalone-project/freedom-metal/src/drivers/riscv_plic0.c:167

int __metal_driver_riscv_plic0_register(struct metal_interrupt *controller,
                                        int id, metal_interrupt_handler_t isr,
                                        void *priv) {
20014f20:	7179                	addi	sp,sp,-48
20014f22:	d606                	sw	ra,44(sp)
20014f24:	d422                	sw	s0,40(sp)
20014f26:	1800                	addi	s0,sp,48
20014f28:	fca42e23          	sw	a0,-36(s0)
20014f2c:	fcb42c23          	sw	a1,-40(s0)
20014f30:	fcc42a23          	sw	a2,-44(s0)
20014f34:	fcd42823          	sw	a3,-48(s0)
/home/jw/Desktop/sifive-standalone-project/freedom-metal/src/drivers/riscv_plic0.c:168
    struct __metal_driver_riscv_plic0 *plic = (void *)(controller);
20014f38:	fdc42783          	lw	a5,-36(s0)
20014f3c:	fef42623          	sw	a5,-20(s0)
/home/jw/Desktop/sifive-standalone-project/freedom-metal/src/drivers/riscv_plic0.c:170

    if (id >= __metal_driver_sifive_plic0_num_interrupts(controller)) {
20014f40:	fdc42503          	lw	a0,-36(s0)
20014f44:	ad5ff0ef          	jal	ra,20014a18 <__metal_driver_sifive_plic0_num_interrupts>
20014f48:	872a                	mv	a4,a0
20014f4a:	fd842783          	lw	a5,-40(s0)
20014f4e:	00e7c463          	blt	a5,a4,20014f56 <__metal_driver_riscv_plic0_register+0x36>
/home/jw/Desktop/sifive-standalone-project/freedom-metal/src/drivers/riscv_plic0.c:171
        return -1;
20014f52:	57fd                	li	a5,-1
20014f54:	a051                	j	20014fd8 <__metal_driver_riscv_plic0_register+0xb8>
/home/jw/Desktop/sifive-standalone-project/freedom-metal/src/drivers/riscv_plic0.c:174
    }

    if (isr) {
20014f56:	fd442783          	lw	a5,-44(s0)
20014f5a:	cf9d                	beqz	a5,20014f98 <__metal_driver_riscv_plic0_register+0x78>
/home/jw/Desktop/sifive-standalone-project/freedom-metal/src/drivers/riscv_plic0.c:175
        __metal_driver_riscv_plic0_set_priority(controller, id, 2);
20014f5c:	4609                	li	a2,2
20014f5e:	fd842583          	lw	a1,-40(s0)
20014f62:	fdc42503          	lw	a0,-36(s0)
20014f66:	c6fff0ef          	jal	ra,20014bd4 <__metal_driver_riscv_plic0_set_priority>
/home/jw/Desktop/sifive-standalone-project/freedom-metal/src/drivers/riscv_plic0.c:176
        plic->metal_exint_table[id] = isr;
20014f6a:	fec42703          	lw	a4,-20(s0)
20014f6e:	fd842783          	lw	a5,-40(s0)
20014f72:	078a                	slli	a5,a5,0x2
20014f74:	97ba                	add	a5,a5,a4
20014f76:	fd442703          	lw	a4,-44(s0)
20014f7a:	c798                	sw	a4,8(a5)
/home/jw/Desktop/sifive-standalone-project/freedom-metal/src/drivers/riscv_plic0.c:177
        plic->metal_exdata_table[id].exint_data = priv;
20014f7c:	fec42683          	lw	a3,-20(s0)
20014f80:	fd842703          	lw	a4,-40(s0)
20014f84:	87ba                	mv	a5,a4
20014f86:	0786                	slli	a5,a5,0x1
20014f88:	97ba                	add	a5,a5,a4
20014f8a:	078e                	slli	a5,a5,0x3
20014f8c:	97b6                	add	a5,a5,a3
20014f8e:	fd042703          	lw	a4,-48(s0)
20014f92:	0ee7a823          	sw	a4,240(a5)
20014f96:	a081                	j	20014fd6 <__metal_driver_riscv_plic0_register+0xb6>
/home/jw/Desktop/sifive-standalone-project/freedom-metal/src/drivers/riscv_plic0.c:179
    } else {
        __metal_driver_riscv_plic0_set_priority(controller, id, 1);
20014f98:	4605                	li	a2,1
20014f9a:	fd842583          	lw	a1,-40(s0)
20014f9e:	fdc42503          	lw	a0,-36(s0)
20014fa2:	c33ff0ef          	jal	ra,20014bd4 <__metal_driver_riscv_plic0_set_priority>
/home/jw/Desktop/sifive-standalone-project/freedom-metal/src/drivers/riscv_plic0.c:180
        plic->metal_exint_table[id] = __metal_plic0_default_handler;
20014fa6:	fec42703          	lw	a4,-20(s0)
20014faa:	fd842783          	lw	a5,-40(s0)
20014fae:	078a                	slli	a5,a5,0x2
20014fb0:	97ba                	add	a5,a5,a4
20014fb2:	20015737          	lui	a4,0x20015
20014fb6:	d0c70713          	addi	a4,a4,-756 # 20014d0c <__metal_plic0_default_handler>
20014fba:	c798                	sw	a4,8(a5)
/home/jw/Desktop/sifive-standalone-project/freedom-metal/src/drivers/riscv_plic0.c:181
        plic->metal_exdata_table[id].sub_int = priv;
20014fbc:	fec42683          	lw	a3,-20(s0)
20014fc0:	fd842703          	lw	a4,-40(s0)
20014fc4:	87ba                	mv	a5,a4
20014fc6:	0786                	slli	a5,a5,0x1
20014fc8:	97ba                	add	a5,a5,a4
20014fca:	078e                	slli	a5,a5,0x3
20014fcc:	97b6                	add	a5,a5,a3
20014fce:	fd042703          	lw	a4,-48(s0)
20014fd2:	0ee7a623          	sw	a4,236(a5)
/home/jw/Desktop/sifive-standalone-project/freedom-metal/src/drivers/riscv_plic0.c:184
    }

    return 0;
20014fd6:	4781                	li	a5,0
/home/jw/Desktop/sifive-standalone-project/freedom-metal/src/drivers/riscv_plic0.c:185
}
20014fd8:	853e                	mv	a0,a5
20014fda:	50b2                	lw	ra,44(sp)
20014fdc:	5422                	lw	s0,40(sp)
20014fde:	6145                	addi	sp,sp,48
20014fe0:	8082                	ret

20014fe2 <__metal_driver_riscv_plic0_enable>:
__metal_driver_riscv_plic0_enable():
/home/jw/Desktop/sifive-standalone-project/freedom-metal/src/drivers/riscv_plic0.c:188

int __metal_driver_riscv_plic0_enable(struct metal_interrupt *controller,
                                      int id) {
20014fe2:	7179                	addi	sp,sp,-48
20014fe4:	d606                	sw	ra,44(sp)
20014fe6:	d422                	sw	s0,40(sp)
20014fe8:	1800                	addi	s0,sp,48
20014fea:	fca42e23          	sw	a0,-36(s0)
20014fee:	fcb42c23          	sw	a1,-40(s0)
/home/jw/Desktop/sifive-standalone-project/freedom-metal/src/drivers/riscv_plic0.c:189
    struct __metal_driver_riscv_plic0 *plic = (void *)(controller);
20014ff2:	fdc42783          	lw	a5,-36(s0)
20014ff6:	fef42623          	sw	a5,-20(s0)
/home/jw/Desktop/sifive-standalone-project/freedom-metal/src/drivers/riscv_plic0.c:191

    if (id >= __metal_driver_sifive_plic0_num_interrupts(controller)) {
20014ffa:	fdc42503          	lw	a0,-36(s0)
20014ffe:	a1bff0ef          	jal	ra,20014a18 <__metal_driver_sifive_plic0_num_interrupts>
20015002:	872a                	mv	a4,a0
20015004:	fd842783          	lw	a5,-40(s0)
20015008:	00e7c463          	blt	a5,a4,20015010 <__metal_driver_riscv_plic0_enable+0x2e>
/home/jw/Desktop/sifive-standalone-project/freedom-metal/src/drivers/riscv_plic0.c:192
        return -1;
2001500c:	57fd                	li	a5,-1
2001500e:	a829                	j	20015028 <__metal_driver_riscv_plic0_enable+0x46>
/home/jw/Desktop/sifive-standalone-project/freedom-metal/src/drivers/riscv_plic0.c:195
    }

    __metal_plic0_enable(plic, __metal_myhart_id(), id, METAL_ENABLE);
20015010:	89efe0ef          	jal	ra,200130ae <__metal_myhart_id>
20015014:	87aa                	mv	a5,a0
20015016:	4685                	li	a3,1
20015018:	fd842603          	lw	a2,-40(s0)
2001501c:	85be                	mv	a1,a5
2001501e:	fec42503          	lw	a0,-20(s0)
20015022:	c49ff0ef          	jal	ra,20014c6a <__metal_plic0_enable>
/home/jw/Desktop/sifive-standalone-project/freedom-metal/src/drivers/riscv_plic0.c:196
    return 0;
20015026:	4781                	li	a5,0
/home/jw/Desktop/sifive-standalone-project/freedom-metal/src/drivers/riscv_plic0.c:197
}
20015028:	853e                	mv	a0,a5
2001502a:	50b2                	lw	ra,44(sp)
2001502c:	5422                	lw	s0,40(sp)
2001502e:	6145                	addi	sp,sp,48
20015030:	8082                	ret

20015032 <__metal_driver_riscv_plic0_disable>:
__metal_driver_riscv_plic0_disable():
/home/jw/Desktop/sifive-standalone-project/freedom-metal/src/drivers/riscv_plic0.c:200

int __metal_driver_riscv_plic0_disable(struct metal_interrupt *controller,
                                       int id) {
20015032:	7179                	addi	sp,sp,-48
20015034:	d606                	sw	ra,44(sp)
20015036:	d422                	sw	s0,40(sp)
20015038:	1800                	addi	s0,sp,48
2001503a:	fca42e23          	sw	a0,-36(s0)
2001503e:	fcb42c23          	sw	a1,-40(s0)
/home/jw/Desktop/sifive-standalone-project/freedom-metal/src/drivers/riscv_plic0.c:201
    struct __metal_driver_riscv_plic0 *plic = (void *)(controller);
20015042:	fdc42783          	lw	a5,-36(s0)
20015046:	fef42623          	sw	a5,-20(s0)
/home/jw/Desktop/sifive-standalone-project/freedom-metal/src/drivers/riscv_plic0.c:203

    if (id >= __metal_driver_sifive_plic0_num_interrupts(controller)) {
2001504a:	fdc42503          	lw	a0,-36(s0)
2001504e:	9cbff0ef          	jal	ra,20014a18 <__metal_driver_sifive_plic0_num_interrupts>
20015052:	872a                	mv	a4,a0
20015054:	fd842783          	lw	a5,-40(s0)
20015058:	00e7c463          	blt	a5,a4,20015060 <__metal_driver_riscv_plic0_disable+0x2e>
/home/jw/Desktop/sifive-standalone-project/freedom-metal/src/drivers/riscv_plic0.c:204
        return -1;
2001505c:	57fd                	li	a5,-1
2001505e:	a829                	j	20015078 <__metal_driver_riscv_plic0_disable+0x46>
/home/jw/Desktop/sifive-standalone-project/freedom-metal/src/drivers/riscv_plic0.c:206
    }
    __metal_plic0_enable(plic, __metal_myhart_id(), id, METAL_DISABLE);
20015060:	84efe0ef          	jal	ra,200130ae <__metal_myhart_id>
20015064:	87aa                	mv	a5,a0
20015066:	4681                	li	a3,0
20015068:	fd842603          	lw	a2,-40(s0)
2001506c:	85be                	mv	a1,a5
2001506e:	fec42503          	lw	a0,-20(s0)
20015072:	bf9ff0ef          	jal	ra,20014c6a <__metal_plic0_enable>
/home/jw/Desktop/sifive-standalone-project/freedom-metal/src/drivers/riscv_plic0.c:207
    return 0;
20015076:	4781                	li	a5,0
/home/jw/Desktop/sifive-standalone-project/freedom-metal/src/drivers/riscv_plic0.c:208
}
20015078:	853e                	mv	a0,a5
2001507a:	50b2                	lw	ra,44(sp)
2001507c:	5422                	lw	s0,40(sp)
2001507e:	6145                	addi	sp,sp,48
20015080:	8082                	ret

20015082 <__metal_driver_riscv_plic0_set_threshold>:
__metal_driver_riscv_plic0_set_threshold():
/home/jw/Desktop/sifive-standalone-project/freedom-metal/src/drivers/riscv_plic0.c:211

int __metal_driver_riscv_plic0_set_threshold(struct metal_interrupt *controller,
                                             unsigned int threshold) {
20015082:	1101                	addi	sp,sp,-32
20015084:	ce06                	sw	ra,28(sp)
20015086:	cc22                	sw	s0,24(sp)
20015088:	1000                	addi	s0,sp,32
2001508a:	fea42623          	sw	a0,-20(s0)
2001508e:	feb42423          	sw	a1,-24(s0)
/home/jw/Desktop/sifive-standalone-project/freedom-metal/src/drivers/riscv_plic0.c:212
    return __metal_plic0_set_threshold(controller, __metal_myhart_id(),
20015092:	81cfe0ef          	jal	ra,200130ae <__metal_myhart_id>
20015096:	87aa                	mv	a5,a0
20015098:	fe842603          	lw	a2,-24(s0)
2001509c:	85be                	mv	a1,a5
2001509e:	fec42503          	lw	a0,-20(s0)
200150a2:	ab3ff0ef          	jal	ra,20014b54 <__metal_plic0_set_threshold>
200150a6:	87aa                	mv	a5,a0
/home/jw/Desktop/sifive-standalone-project/freedom-metal/src/drivers/riscv_plic0.c:214
                                       threshold);
}
200150a8:	853e                	mv	a0,a5
200150aa:	40f2                	lw	ra,28(sp)
200150ac:	4462                	lw	s0,24(sp)
200150ae:	6105                	addi	sp,sp,32
200150b0:	8082                	ret

200150b2 <__metal_driver_riscv_plic0_get_threshold>:
__metal_driver_riscv_plic0_get_threshold():
/home/jw/Desktop/sifive-standalone-project/freedom-metal/src/drivers/riscv_plic0.c:217

unsigned int
__metal_driver_riscv_plic0_get_threshold(struct metal_interrupt *controller) {
200150b2:	1101                	addi	sp,sp,-32
200150b4:	ce06                	sw	ra,28(sp)
200150b6:	cc22                	sw	s0,24(sp)
200150b8:	1000                	addi	s0,sp,32
200150ba:	fea42623          	sw	a0,-20(s0)
/home/jw/Desktop/sifive-standalone-project/freedom-metal/src/drivers/riscv_plic0.c:218
    return __metal_plic0_get_threshold(controller, __metal_myhart_id());
200150be:	ff1fd0ef          	jal	ra,200130ae <__metal_myhart_id>
200150c2:	87aa                	mv	a5,a0
200150c4:	85be                	mv	a1,a5
200150c6:	fec42503          	lw	a0,-20(s0)
200150ca:	ad1ff0ef          	jal	ra,20014b9a <__metal_plic0_get_threshold>
200150ce:	87aa                	mv	a5,a0
/home/jw/Desktop/sifive-standalone-project/freedom-metal/src/drivers/riscv_plic0.c:219
}
200150d0:	853e                	mv	a0,a5
200150d2:	40f2                	lw	ra,28(sp)
200150d4:	4462                	lw	s0,24(sp)
200150d6:	6105                	addi	sp,sp,32
200150d8:	8082                	ret

200150da <__metal_driver_riscv_plic0_affinity_enable>:
__metal_driver_riscv_plic0_affinity_enable():
/home/jw/Desktop/sifive-standalone-project/freedom-metal/src/drivers/riscv_plic0.c:223

metal_affinity
__metal_driver_riscv_plic0_affinity_enable(struct metal_interrupt *controller,
                                           metal_affinity bitmask, int id) {
200150da:	7179                	addi	sp,sp,-48
200150dc:	d606                	sw	ra,44(sp)
200150de:	d422                	sw	s0,40(sp)
200150e0:	1800                	addi	s0,sp,48
200150e2:	fca42e23          	sw	a0,-36(s0)
200150e6:	fcb42c23          	sw	a1,-40(s0)
200150ea:	fcc42a23          	sw	a2,-44(s0)
/home/jw/Desktop/sifive-standalone-project/freedom-metal/src/drivers/riscv_plic0.c:224
    metal_affinity ret = {0};
200150ee:	fe042223          	sw	zero,-28(s0)
/home/jw/Desktop/sifive-standalone-project/freedom-metal/src/drivers/riscv_plic0.c:227
    int context;

    struct __metal_driver_riscv_plic0 *plic = (void *)(controller);
200150f2:	fdc42783          	lw	a5,-36(s0)
200150f6:	fef42423          	sw	a5,-24(s0)
/home/jw/Desktop/sifive-standalone-project/freedom-metal/src/drivers/riscv_plic0.c:229

    if (id >= __metal_driver_sifive_plic0_num_interrupts(controller)) {
200150fa:	fdc42503          	lw	a0,-36(s0)
200150fe:	91bff0ef          	jal	ra,20014a18 <__metal_driver_sifive_plic0_num_interrupts>
20015102:	872a                	mv	a4,a0
20015104:	fd442783          	lw	a5,-44(s0)
20015108:	00e7c863          	blt	a5,a4,20015118 <__metal_driver_riscv_plic0_affinity_enable+0x3e>
/home/jw/Desktop/sifive-standalone-project/freedom-metal/src/drivers/riscv_plic0.c:230
        metal_affinity_set_val(ret, -1);
2001510c:	57fd                	li	a5,-1
2001510e:	fef42223          	sw	a5,-28(s0)
/home/jw/Desktop/sifive-standalone-project/freedom-metal/src/drivers/riscv_plic0.c:231
        return ret;
20015112:	fe442783          	lw	a5,-28(s0)
20015116:	a899                	j	2001516c <__metal_driver_riscv_plic0_affinity_enable+0x92>
/home/jw/Desktop/sifive-standalone-project/freedom-metal/src/drivers/riscv_plic0.c:234
    }

    for_each_metal_affinity(context, bitmask) {
20015118:	fe042623          	sw	zero,-20(s0)
2001511c:	a099                	j	20015162 <__metal_driver_riscv_plic0_affinity_enable+0x88>
/home/jw/Desktop/sifive-standalone-project/freedom-metal/src/drivers/riscv_plic0.c:235
        if (context != 0)
2001511e:	fec42783          	lw	a5,-20(s0)
20015122:	c795                	beqz	a5,2001514e <__metal_driver_riscv_plic0_affinity_enable+0x74>
/home/jw/Desktop/sifive-standalone-project/freedom-metal/src/drivers/riscv_plic0.c:236
            metal_affinity_set_bit(
20015124:	4685                	li	a3,1
20015126:	fd442603          	lw	a2,-44(s0)
2001512a:	fec42583          	lw	a1,-20(s0)
2001512e:	fe842503          	lw	a0,-24(s0)
20015132:	b39ff0ef          	jal	ra,20014c6a <__metal_plic0_enable>
20015136:	87aa                	mv	a5,a0
20015138:	0017f713          	andi	a4,a5,1
2001513c:	fec42783          	lw	a5,-20(s0)
20015140:	00f71733          	sll	a4,a4,a5
20015144:	fe442783          	lw	a5,-28(s0)
20015148:	8fd9                	or	a5,a5,a4
2001514a:	fef42223          	sw	a5,-28(s0)
/home/jw/Desktop/sifive-standalone-project/freedom-metal/src/drivers/riscv_plic0.c:234 (discriminator 2)
    for_each_metal_affinity(context, bitmask) {
2001514e:	fec42783          	lw	a5,-20(s0)
20015152:	0785                	addi	a5,a5,1
20015154:	fef42623          	sw	a5,-20(s0)
20015158:	fd842783          	lw	a5,-40(s0)
2001515c:	8385                	srli	a5,a5,0x1
2001515e:	fcf42c23          	sw	a5,-40(s0)
/home/jw/Desktop/sifive-standalone-project/freedom-metal/src/drivers/riscv_plic0.c:234 (discriminator 1)
20015162:	fd842783          	lw	a5,-40(s0)
20015166:	ffc5                	bnez	a5,2001511e <__metal_driver_riscv_plic0_affinity_enable+0x44>
/home/jw/Desktop/sifive-standalone-project/freedom-metal/src/drivers/riscv_plic0.c:241
                ret, context,
                __metal_plic0_enable(plic, context, id, METAL_ENABLE));
    }

    return ret;
20015168:	fe442783          	lw	a5,-28(s0)
/home/jw/Desktop/sifive-standalone-project/freedom-metal/src/drivers/riscv_plic0.c:242 (discriminator 1)
}
2001516c:	853e                	mv	a0,a5
2001516e:	50b2                	lw	ra,44(sp)
20015170:	5422                	lw	s0,40(sp)
20015172:	6145                	addi	sp,sp,48
20015174:	8082                	ret

20015176 <__metal_driver_riscv_plic0_affinity_disable>:
__metal_driver_riscv_plic0_affinity_disable():
/home/jw/Desktop/sifive-standalone-project/freedom-metal/src/drivers/riscv_plic0.c:246

metal_affinity
__metal_driver_riscv_plic0_affinity_disable(struct metal_interrupt *controller,
                                            metal_affinity bitmask, int id) {
20015176:	7179                	addi	sp,sp,-48
20015178:	d606                	sw	ra,44(sp)
2001517a:	d422                	sw	s0,40(sp)
2001517c:	1800                	addi	s0,sp,48
2001517e:	fca42e23          	sw	a0,-36(s0)
20015182:	fcb42c23          	sw	a1,-40(s0)
20015186:	fcc42a23          	sw	a2,-44(s0)
/home/jw/Desktop/sifive-standalone-project/freedom-metal/src/drivers/riscv_plic0.c:247
    metal_affinity ret = {0};
2001518a:	fe042223          	sw	zero,-28(s0)
/home/jw/Desktop/sifive-standalone-project/freedom-metal/src/drivers/riscv_plic0.c:250
    int context;

    struct __metal_driver_riscv_plic0 *plic = (void *)(controller);
2001518e:	fdc42783          	lw	a5,-36(s0)
20015192:	fef42423          	sw	a5,-24(s0)
/home/jw/Desktop/sifive-standalone-project/freedom-metal/src/drivers/riscv_plic0.c:252

    if (id >= __metal_driver_sifive_plic0_num_interrupts(controller)) {
20015196:	fdc42503          	lw	a0,-36(s0)
2001519a:	87fff0ef          	jal	ra,20014a18 <__metal_driver_sifive_plic0_num_interrupts>
2001519e:	872a                	mv	a4,a0
200151a0:	fd442783          	lw	a5,-44(s0)
200151a4:	00e7c863          	blt	a5,a4,200151b4 <__metal_driver_riscv_plic0_affinity_disable+0x3e>
/home/jw/Desktop/sifive-standalone-project/freedom-metal/src/drivers/riscv_plic0.c:253
        metal_affinity_set_val(ret, -1);
200151a8:	57fd                	li	a5,-1
200151aa:	fef42223          	sw	a5,-28(s0)
/home/jw/Desktop/sifive-standalone-project/freedom-metal/src/drivers/riscv_plic0.c:254
        return ret;
200151ae:	fe442783          	lw	a5,-28(s0)
200151b2:	a899                	j	20015208 <__metal_driver_riscv_plic0_affinity_disable+0x92>
/home/jw/Desktop/sifive-standalone-project/freedom-metal/src/drivers/riscv_plic0.c:257
    }

    for_each_metal_affinity(context, bitmask) {
200151b4:	fe042623          	sw	zero,-20(s0)
200151b8:	a099                	j	200151fe <__metal_driver_riscv_plic0_affinity_disable+0x88>
/home/jw/Desktop/sifive-standalone-project/freedom-metal/src/drivers/riscv_plic0.c:258
        if (context != 0)
200151ba:	fec42783          	lw	a5,-20(s0)
200151be:	c795                	beqz	a5,200151ea <__metal_driver_riscv_plic0_affinity_disable+0x74>
/home/jw/Desktop/sifive-standalone-project/freedom-metal/src/drivers/riscv_plic0.c:259
            metal_affinity_set_bit(
200151c0:	4681                	li	a3,0
200151c2:	fd442603          	lw	a2,-44(s0)
200151c6:	fec42583          	lw	a1,-20(s0)
200151ca:	fe842503          	lw	a0,-24(s0)
200151ce:	a9dff0ef          	jal	ra,20014c6a <__metal_plic0_enable>
200151d2:	87aa                	mv	a5,a0
200151d4:	0017f713          	andi	a4,a5,1
200151d8:	fec42783          	lw	a5,-20(s0)
200151dc:	00f71733          	sll	a4,a4,a5
200151e0:	fe442783          	lw	a5,-28(s0)
200151e4:	8fd9                	or	a5,a5,a4
200151e6:	fef42223          	sw	a5,-28(s0)
/home/jw/Desktop/sifive-standalone-project/freedom-metal/src/drivers/riscv_plic0.c:257 (discriminator 2)
    for_each_metal_affinity(context, bitmask) {
200151ea:	fec42783          	lw	a5,-20(s0)
200151ee:	0785                	addi	a5,a5,1
200151f0:	fef42623          	sw	a5,-20(s0)
200151f4:	fd842783          	lw	a5,-40(s0)
200151f8:	8385                	srli	a5,a5,0x1
200151fa:	fcf42c23          	sw	a5,-40(s0)
/home/jw/Desktop/sifive-standalone-project/freedom-metal/src/drivers/riscv_plic0.c:257 (discriminator 1)
200151fe:	fd842783          	lw	a5,-40(s0)
20015202:	ffc5                	bnez	a5,200151ba <__metal_driver_riscv_plic0_affinity_disable+0x44>
/home/jw/Desktop/sifive-standalone-project/freedom-metal/src/drivers/riscv_plic0.c:264
                ret, context,
                __metal_plic0_enable(plic, context, id, METAL_DISABLE));
    }

    return ret;
20015204:	fe442783          	lw	a5,-28(s0)
/home/jw/Desktop/sifive-standalone-project/freedom-metal/src/drivers/riscv_plic0.c:265 (discriminator 1)
}
20015208:	853e                	mv	a0,a5
2001520a:	50b2                	lw	ra,44(sp)
2001520c:	5422                	lw	s0,40(sp)
2001520e:	6145                	addi	sp,sp,48
20015210:	8082                	ret

20015212 <__metal_driver_riscv_plic0_affinity_set_threshold>:
__metal_driver_riscv_plic0_affinity_set_threshold():
/home/jw/Desktop/sifive-standalone-project/freedom-metal/src/drivers/riscv_plic0.c:269

metal_affinity __metal_driver_riscv_plic0_affinity_set_threshold(
    struct metal_interrupt *controller, metal_affinity bitmask,
    unsigned int threshold) {
20015212:	7179                	addi	sp,sp,-48
20015214:	d606                	sw	ra,44(sp)
20015216:	d422                	sw	s0,40(sp)
20015218:	1800                	addi	s0,sp,48
2001521a:	fca42e23          	sw	a0,-36(s0)
2001521e:	fcb42c23          	sw	a1,-40(s0)
20015222:	fcc42a23          	sw	a2,-44(s0)
/home/jw/Desktop/sifive-standalone-project/freedom-metal/src/drivers/riscv_plic0.c:270
    metal_affinity ret = {0};
20015226:	fe042423          	sw	zero,-24(s0)
/home/jw/Desktop/sifive-standalone-project/freedom-metal/src/drivers/riscv_plic0.c:273
    int context;

    for_each_metal_affinity(context, bitmask) {
2001522a:	fe042623          	sw	zero,-20(s0)
2001522e:	a091                	j	20015272 <__metal_driver_riscv_plic0_affinity_set_threshold+0x60>
/home/jw/Desktop/sifive-standalone-project/freedom-metal/src/drivers/riscv_plic0.c:274
        if (context != 0)
20015230:	fec42783          	lw	a5,-20(s0)
20015234:	c78d                	beqz	a5,2001525e <__metal_driver_riscv_plic0_affinity_set_threshold+0x4c>
/home/jw/Desktop/sifive-standalone-project/freedom-metal/src/drivers/riscv_plic0.c:275
            metal_affinity_set_bit(
20015236:	fd442603          	lw	a2,-44(s0)
2001523a:	fec42583          	lw	a1,-20(s0)
2001523e:	fdc42503          	lw	a0,-36(s0)
20015242:	913ff0ef          	jal	ra,20014b54 <__metal_plic0_set_threshold>
20015246:	87aa                	mv	a5,a0
20015248:	0017f713          	andi	a4,a5,1
2001524c:	fec42783          	lw	a5,-20(s0)
20015250:	00f71733          	sll	a4,a4,a5
20015254:	fe842783          	lw	a5,-24(s0)
20015258:	8fd9                	or	a5,a5,a4
2001525a:	fef42423          	sw	a5,-24(s0)
/home/jw/Desktop/sifive-standalone-project/freedom-metal/src/drivers/riscv_plic0.c:273 (discriminator 2)
    for_each_metal_affinity(context, bitmask) {
2001525e:	fec42783          	lw	a5,-20(s0)
20015262:	0785                	addi	a5,a5,1
20015264:	fef42623          	sw	a5,-20(s0)
20015268:	fd842783          	lw	a5,-40(s0)
2001526c:	8385                	srli	a5,a5,0x1
2001526e:	fcf42c23          	sw	a5,-40(s0)
/home/jw/Desktop/sifive-standalone-project/freedom-metal/src/drivers/riscv_plic0.c:273 (discriminator 1)
20015272:	fd842783          	lw	a5,-40(s0)
20015276:	ffcd                	bnez	a5,20015230 <__metal_driver_riscv_plic0_affinity_set_threshold+0x1e>
/home/jw/Desktop/sifive-standalone-project/freedom-metal/src/drivers/riscv_plic0.c:280
                ret, context,
                __metal_plic0_set_threshold(controller, context, threshold));
    }

    return ret;
20015278:	fe842783          	lw	a5,-24(s0)
/home/jw/Desktop/sifive-standalone-project/freedom-metal/src/drivers/riscv_plic0.c:281
}
2001527c:	853e                	mv	a0,a5
2001527e:	50b2                	lw	ra,44(sp)
20015280:	5422                	lw	s0,40(sp)
20015282:	6145                	addi	sp,sp,48
20015284:	8082                	ret

20015286 <__metal_driver_riscv_plic0_affinity_get_threshold>:
__metal_driver_riscv_plic0_affinity_get_threshold():
/home/jw/Desktop/sifive-standalone-project/freedom-metal/src/drivers/riscv_plic0.c:284

unsigned int __metal_driver_riscv_plic0_affinity_get_threshold(
    struct metal_interrupt *controller, int context_id) {
20015286:	1101                	addi	sp,sp,-32
20015288:	ce06                	sw	ra,28(sp)
2001528a:	cc22                	sw	s0,24(sp)
2001528c:	1000                	addi	s0,sp,32
2001528e:	fea42623          	sw	a0,-20(s0)
20015292:	feb42423          	sw	a1,-24(s0)
/home/jw/Desktop/sifive-standalone-project/freedom-metal/src/drivers/riscv_plic0.c:285
    __metal_plic0_get_threshold(controller, context_id);
20015296:	fe842583          	lw	a1,-24(s0)
2001529a:	fec42503          	lw	a0,-20(s0)
2001529e:	8fdff0ef          	jal	ra,20014b9a <__metal_plic0_get_threshold>
/home/jw/Desktop/sifive-standalone-project/freedom-metal/src/drivers/riscv_plic0.c:286
    return 0;
200152a2:	4781                	li	a5,0
/home/jw/Desktop/sifive-standalone-project/freedom-metal/src/drivers/riscv_plic0.c:287
}
200152a4:	853e                	mv	a0,a5
200152a6:	40f2                	lw	ra,28(sp)
200152a8:	4462                	lw	s0,24(sp)
200152aa:	6105                	addi	sp,sp,32
200152ac:	8082                	ret

200152ae <__metal_driver_sifive_fe310_g000_hfrosc_ref>:
__metal_driver_sifive_fe310_g000_hfrosc_ref():
/home/jw/Desktop/sifive-standalone-project/bsp/build/debug/./metal/machine.h:1248



/* --------------------- sifive_fe310_g000_hfrosc ------------ */
static __inline__ struct metal_clock * __metal_driver_sifive_fe310_g000_hfrosc_ref(const struct metal_clock *clock)
{
200152ae:	1101                	addi	sp,sp,-32
200152b0:	ce22                	sw	s0,28(sp)
200152b2:	1000                	addi	s0,sp,32
200152b4:	fea42623          	sw	a0,-20(s0)
/home/jw/Desktop/sifive-standalone-project/bsp/build/debug/./metal/machine.h:1249
		return (struct metal_clock *)&__metal_dt_clock_2.clock;
200152b8:	800007b7          	lui	a5,0x80000
200152bc:	06c78793          	addi	a5,a5,108 # 8000006c <metal_segment_heap_target_end+0xffffe8fc>
/home/jw/Desktop/sifive-standalone-project/bsp/build/debug/./metal/machine.h:1250
}
200152c0:	853e                	mv	a0,a5
200152c2:	4472                	lw	s0,28(sp)
200152c4:	6105                	addi	sp,sp,32
200152c6:	8082                	ret

200152c8 <__metal_driver_sifive_fe310_g000_hfrosc_config_base>:
__metal_driver_sifive_fe310_g000_hfrosc_config_base():
/home/jw/Desktop/sifive-standalone-project/bsp/build/debug/./metal/machine.h:1253

static __inline__ struct __metal_driver_sifive_fe310_g000_prci * __metal_driver_sifive_fe310_g000_hfrosc_config_base(const struct metal_clock *clock)
{
200152c8:	1101                	addi	sp,sp,-32
200152ca:	ce22                	sw	s0,28(sp)
200152cc:	1000                	addi	s0,sp,32
200152ce:	fea42623          	sw	a0,-20(s0)
/home/jw/Desktop/sifive-standalone-project/bsp/build/debug/./metal/machine.h:1254
		return (struct __metal_driver_sifive_fe310_g000_prci *)&__metal_dt_prci_10008000;
200152d2:	82018793          	addi	a5,gp,-2016 # 80000ac0 <__metal_dt_prci_10008000>
/home/jw/Desktop/sifive-standalone-project/bsp/build/debug/./metal/machine.h:1255
}
200152d6:	853e                	mv	a0,a5
200152d8:	4472                	lw	s0,28(sp)
200152da:	6105                	addi	sp,sp,32
200152dc:	8082                	ret

200152de <__metal_driver_sifive_fe310_g000_hfrosc_config_offset>:
__metal_driver_sifive_fe310_g000_hfrosc_config_offset():
/home/jw/Desktop/sifive-standalone-project/bsp/build/debug/./metal/machine.h:1263
{
		return &__metal_driver_vtable_sifive_fe310_g000_prci;
}

static __inline__ long __metal_driver_sifive_fe310_g000_hfrosc_config_offset(const struct metal_clock *clock)
{
200152de:	1101                	addi	sp,sp,-32
200152e0:	ce22                	sw	s0,28(sp)
200152e2:	1000                	addi	s0,sp,32
200152e4:	fea42623          	sw	a0,-20(s0)
/home/jw/Desktop/sifive-standalone-project/bsp/build/debug/./metal/machine.h:1264
		return METAL_SIFIVE_FE310_G000_PRCI_HFROSCCFG;
200152e8:	4781                	li	a5,0
/home/jw/Desktop/sifive-standalone-project/bsp/build/debug/./metal/machine.h:1265
}
200152ea:	853e                	mv	a0,a5
200152ec:	4472                	lw	s0,28(sp)
200152ee:	6105                	addi	sp,sp,32
200152f0:	8082                	ret

200152f2 <__metal_driver_sifive_fe310_g000_prci_vtable>:
__metal_driver_sifive_fe310_g000_prci_vtable():
/home/jw/Desktop/sifive-standalone-project/bsp/build/debug/./metal/machine.h:1380
{
		return METAL_SIFIVE_FE310_G000_PRCI_10008000_SIZE;
}

static __inline__ const struct __metal_driver_vtable_sifive_fe310_g000_prci * __metal_driver_sifive_fe310_g000_prci_vtable( )
{
200152f2:	1141                	addi	sp,sp,-16
200152f4:	c622                	sw	s0,12(sp)
200152f6:	0800                	addi	s0,sp,16
/home/jw/Desktop/sifive-standalone-project/bsp/build/debug/./metal/machine.h:1381
		return &__metal_driver_vtable_sifive_fe310_g000_prci;
200152f8:	200117b7          	lui	a5,0x20011
200152fc:	ffc78793          	addi	a5,a5,-4 # 20010ffc <__metal_driver_vtable_sifive_fe310_g000_prci>
/home/jw/Desktop/sifive-standalone-project/bsp/build/debug/./metal/machine.h:1382
}
20015300:	853e                	mv	a0,a5
20015302:	4432                	lw	s0,12(sp)
20015304:	0141                	addi	sp,sp,16
20015306:	8082                	ret

20015308 <__metal_driver_sifive_fe310_g000_hfrosc_get_rate_hz>:
__metal_driver_sifive_fe310_g000_hfrosc_get_rate_hz():
/home/jw/Desktop/sifive-standalone-project/freedom-metal/src/drivers/sifive_fe310-g000_hfrosc.c:17
#define CONFIG_TRIM 0x001F0000UL
#define CONFIG_ENABLE 0x40000000UL
#define CONFIG_READY 0x80000000UL

long __metal_driver_sifive_fe310_g000_hfrosc_get_rate_hz(
    const struct metal_clock *clock) {
20015308:	7139                	addi	sp,sp,-64
2001530a:	de06                	sw	ra,60(sp)
2001530c:	dc22                	sw	s0,56(sp)
2001530e:	0080                	addi	s0,sp,64
20015310:	fca42623          	sw	a0,-52(s0)
/home/jw/Desktop/sifive-standalone-project/freedom-metal/src/drivers/sifive_fe310-g000_hfrosc.c:19
    struct metal_clock *ref =
        __metal_driver_sifive_fe310_g000_hfrosc_ref(clock);
20015314:	fcc42503          	lw	a0,-52(s0)
20015318:	3f59                	jal	200152ae <__metal_driver_sifive_fe310_g000_hfrosc_ref>
2001531a:	fea42623          	sw	a0,-20(s0)
/home/jw/Desktop/sifive-standalone-project/freedom-metal/src/drivers/sifive_fe310-g000_hfrosc.c:21
    long config_offset =
        __metal_driver_sifive_fe310_g000_hfrosc_config_offset(clock);
2001531e:	fcc42503          	lw	a0,-52(s0)
20015322:	3f75                	jal	200152de <__metal_driver_sifive_fe310_g000_hfrosc_config_offset>
20015324:	fea42423          	sw	a0,-24(s0)
/home/jw/Desktop/sifive-standalone-project/freedom-metal/src/drivers/sifive_fe310-g000_hfrosc.c:23
    struct __metal_driver_sifive_fe310_g000_prci *config_base =
        __metal_driver_sifive_fe310_g000_hfrosc_config_base(clock);
20015328:	fcc42503          	lw	a0,-52(s0)
2001532c:	3f71                	jal	200152c8 <__metal_driver_sifive_fe310_g000_hfrosc_config_base>
2001532e:	fea42223          	sw	a0,-28(s0)
/home/jw/Desktop/sifive-standalone-project/freedom-metal/src/drivers/sifive_fe310-g000_hfrosc.c:25
    const struct __metal_driver_vtable_sifive_fe310_g000_prci *vtable =
        __metal_driver_sifive_fe310_g000_prci_vtable();
20015332:	37c1                	jal	200152f2 <__metal_driver_sifive_fe310_g000_prci_vtable>
20015334:	fea42023          	sw	a0,-32(s0)
/home/jw/Desktop/sifive-standalone-project/freedom-metal/src/drivers/sifive_fe310-g000_hfrosc.c:26
    long cfg = vtable->get_reg(config_base, config_offset);
20015338:	fe042783          	lw	a5,-32(s0)
2001533c:	439c                	lw	a5,0(a5)
2001533e:	fe842583          	lw	a1,-24(s0)
20015342:	fe442503          	lw	a0,-28(s0)
20015346:	9782                	jalr	a5
20015348:	fca42e23          	sw	a0,-36(s0)
/home/jw/Desktop/sifive-standalone-project/freedom-metal/src/drivers/sifive_fe310-g000_hfrosc.c:28

    if ((cfg & CONFIG_ENABLE) == 0)
2001534c:	fdc42703          	lw	a4,-36(s0)
20015350:	400007b7          	lui	a5,0x40000
20015354:	8ff9                	and	a5,a5,a4
20015356:	e399                	bnez	a5,2001535c <__metal_driver_sifive_fe310_g000_hfrosc_get_rate_hz+0x54>
/home/jw/Desktop/sifive-standalone-project/freedom-metal/src/drivers/sifive_fe310-g000_hfrosc.c:29
        return -1;
20015358:	57fd                	li	a5,-1
2001535a:	a025                	j	20015382 <__metal_driver_sifive_fe310_g000_hfrosc_get_rate_hz+0x7a>
/home/jw/Desktop/sifive-standalone-project/freedom-metal/src/drivers/sifive_fe310-g000_hfrosc.c:30
    if ((cfg & CONFIG_READY) == 0)
2001535c:	fdc42783          	lw	a5,-36(s0)
20015360:	0007c463          	bltz	a5,20015368 <__metal_driver_sifive_fe310_g000_hfrosc_get_rate_hz+0x60>
/home/jw/Desktop/sifive-standalone-project/freedom-metal/src/drivers/sifive_fe310-g000_hfrosc.c:31
        return -1;
20015364:	57fd                	li	a5,-1
20015366:	a831                	j	20015382 <__metal_driver_sifive_fe310_g000_hfrosc_get_rate_hz+0x7a>
/home/jw/Desktop/sifive-standalone-project/freedom-metal/src/drivers/sifive_fe310-g000_hfrosc.c:32
    return metal_clock_get_rate_hz(ref) / ((cfg & CONFIG_DIVIDER) + 1);
20015368:	fec42503          	lw	a0,-20(s0)
2001536c:	2c5010ef          	jal	ra,20016e30 <metal_clock_get_rate_hz>
20015370:	87aa                	mv	a5,a0
20015372:	873e                	mv	a4,a5
20015374:	fdc42783          	lw	a5,-36(s0)
20015378:	03f7f793          	andi	a5,a5,63
2001537c:	0785                	addi	a5,a5,1
2001537e:	02f757b3          	divu	a5,a4,a5
/home/jw/Desktop/sifive-standalone-project/freedom-metal/src/drivers/sifive_fe310-g000_hfrosc.c:33
}
20015382:	853e                	mv	a0,a5
20015384:	50f2                	lw	ra,60(sp)
20015386:	5462                	lw	s0,56(sp)
20015388:	6121                	addi	sp,sp,64
2001538a:	8082                	ret

2001538c <__metal_driver_sifive_fe310_g000_hfrosc_set_rate_hz>:
__metal_driver_sifive_fe310_g000_hfrosc_set_rate_hz():
/home/jw/Desktop/sifive-standalone-project/freedom-metal/src/drivers/sifive_fe310-g000_hfrosc.c:36

long __metal_driver_sifive_fe310_g000_hfrosc_set_rate_hz(
    struct metal_clock *clock, long rate) {
2001538c:	1101                	addi	sp,sp,-32
2001538e:	ce06                	sw	ra,28(sp)
20015390:	cc22                	sw	s0,24(sp)
20015392:	1000                	addi	s0,sp,32
20015394:	fea42623          	sw	a0,-20(s0)
20015398:	feb42423          	sw	a1,-24(s0)
/home/jw/Desktop/sifive-standalone-project/freedom-metal/src/drivers/sifive_fe310-g000_hfrosc.c:37
    return __metal_driver_sifive_fe310_g000_hfrosc_get_rate_hz(clock);
2001539c:	fec42503          	lw	a0,-20(s0)
200153a0:	37a5                	jal	20015308 <__metal_driver_sifive_fe310_g000_hfrosc_get_rate_hz>
200153a2:	87aa                	mv	a5,a0
/home/jw/Desktop/sifive-standalone-project/freedom-metal/src/drivers/sifive_fe310-g000_hfrosc.c:38
}
200153a4:	853e                	mv	a0,a5
200153a6:	40f2                	lw	ra,28(sp)
200153a8:	4462                	lw	s0,24(sp)
200153aa:	6105                	addi	sp,sp,32
200153ac:	8082                	ret

200153ae <__metal_driver_sifive_fe310_g000_hfxosc_ref>:
__metal_driver_sifive_fe310_g000_hfxosc_ref():
/home/jw/Desktop/sifive-standalone-project/bsp/build/debug/./metal/machine.h:1271
{
200153ae:	1101                	addi	sp,sp,-32
200153b0:	ce22                	sw	s0,28(sp)
200153b2:	1000                	addi	s0,sp,32
200153b4:	fea42623          	sw	a0,-20(s0)
/home/jw/Desktop/sifive-standalone-project/bsp/build/debug/./metal/machine.h:1272
		return (struct metal_clock *)&__metal_dt_clock_0.clock;
200153b8:	800007b7          	lui	a5,0x80000
200153bc:	06078793          	addi	a5,a5,96 # 80000060 <metal_segment_heap_target_end+0xffffe8f0>
/home/jw/Desktop/sifive-standalone-project/bsp/build/debug/./metal/machine.h:1273
}
200153c0:	853e                	mv	a0,a5
200153c2:	4472                	lw	s0,28(sp)
200153c4:	6105                	addi	sp,sp,32
200153c6:	8082                	ret

200153c8 <__metal_driver_sifive_fe310_g000_hfxosc_config_base>:
__metal_driver_sifive_fe310_g000_hfxosc_config_base():
/home/jw/Desktop/sifive-standalone-project/bsp/build/debug/./metal/machine.h:1276
{
200153c8:	1101                	addi	sp,sp,-32
200153ca:	ce22                	sw	s0,28(sp)
200153cc:	1000                	addi	s0,sp,32
200153ce:	fea42623          	sw	a0,-20(s0)
/home/jw/Desktop/sifive-standalone-project/bsp/build/debug/./metal/machine.h:1277
		return (struct __metal_driver_sifive_fe310_g000_prci *)&__metal_dt_prci_10008000;
200153d2:	82018793          	addi	a5,gp,-2016 # 80000ac0 <__metal_dt_prci_10008000>
/home/jw/Desktop/sifive-standalone-project/bsp/build/debug/./metal/machine.h:1278
}
200153d6:	853e                	mv	a0,a5
200153d8:	4472                	lw	s0,28(sp)
200153da:	6105                	addi	sp,sp,32
200153dc:	8082                	ret

200153de <__metal_driver_sifive_fe310_g000_hfxosc_config_offset>:
__metal_driver_sifive_fe310_g000_hfxosc_config_offset():
/home/jw/Desktop/sifive-standalone-project/bsp/build/debug/./metal/machine.h:1281
{
200153de:	1101                	addi	sp,sp,-32
200153e0:	ce22                	sw	s0,28(sp)
200153e2:	1000                	addi	s0,sp,32
200153e4:	fea42623          	sw	a0,-20(s0)
/home/jw/Desktop/sifive-standalone-project/bsp/build/debug/./metal/machine.h:1282
		return METAL_SIFIVE_FE310_G000_PRCI_HFXOSCCFG;
200153e8:	4791                	li	a5,4
/home/jw/Desktop/sifive-standalone-project/bsp/build/debug/./metal/machine.h:1283
}
200153ea:	853e                	mv	a0,a5
200153ec:	4472                	lw	s0,28(sp)
200153ee:	6105                	addi	sp,sp,32
200153f0:	8082                	ret

200153f2 <__metal_driver_sifive_fe310_g000_prci_vtable>:
__metal_driver_sifive_fe310_g000_prci_vtable():
/home/jw/Desktop/sifive-standalone-project/bsp/build/debug/./metal/machine.h:1380
{
200153f2:	1141                	addi	sp,sp,-16
200153f4:	c622                	sw	s0,12(sp)
200153f6:	0800                	addi	s0,sp,16
/home/jw/Desktop/sifive-standalone-project/bsp/build/debug/./metal/machine.h:1381
		return &__metal_driver_vtable_sifive_fe310_g000_prci;
200153f8:	200117b7          	lui	a5,0x20011
200153fc:	ffc78793          	addi	a5,a5,-4 # 20010ffc <__metal_driver_vtable_sifive_fe310_g000_prci>
/home/jw/Desktop/sifive-standalone-project/bsp/build/debug/./metal/machine.h:1382
}
20015400:	853e                	mv	a0,a5
20015402:	4432                	lw	s0,12(sp)
20015404:	0141                	addi	sp,sp,16
20015406:	8082                	ret

20015408 <__metal_driver_sifive_fe310_g000_hfxosc_get_rate_hz>:
__metal_driver_sifive_fe310_g000_hfxosc_get_rate_hz():
/home/jw/Desktop/sifive-standalone-project/freedom-metal/src/drivers/sifive_fe310-g000_hfxosc.c:15

#define CONFIG_ENABLE 0x40000000UL
#define CONFIG_READY 0x80000000UL

long __metal_driver_sifive_fe310_g000_hfxosc_get_rate_hz(
    const struct metal_clock *clock) {
20015408:	7139                	addi	sp,sp,-64
2001540a:	de06                	sw	ra,60(sp)
2001540c:	dc22                	sw	s0,56(sp)
2001540e:	0080                	addi	s0,sp,64
20015410:	fca42623          	sw	a0,-52(s0)
/home/jw/Desktop/sifive-standalone-project/freedom-metal/src/drivers/sifive_fe310-g000_hfxosc.c:17
    struct metal_clock *ref =
        __metal_driver_sifive_fe310_g000_hfxosc_ref(clock);
20015414:	fcc42503          	lw	a0,-52(s0)
20015418:	3f59                	jal	200153ae <__metal_driver_sifive_fe310_g000_hfxosc_ref>
2001541a:	fea42623          	sw	a0,-20(s0)
/home/jw/Desktop/sifive-standalone-project/freedom-metal/src/drivers/sifive_fe310-g000_hfxosc.c:19
    long config_offset =
        __metal_driver_sifive_fe310_g000_hfxosc_config_offset(clock);
2001541e:	fcc42503          	lw	a0,-52(s0)
20015422:	3f75                	jal	200153de <__metal_driver_sifive_fe310_g000_hfxosc_config_offset>
20015424:	fea42423          	sw	a0,-24(s0)
/home/jw/Desktop/sifive-standalone-project/freedom-metal/src/drivers/sifive_fe310-g000_hfxosc.c:21
    struct __metal_driver_sifive_fe310_g000_prci *config_base =
        __metal_driver_sifive_fe310_g000_hfxosc_config_base(clock);
20015428:	fcc42503          	lw	a0,-52(s0)
2001542c:	3f71                	jal	200153c8 <__metal_driver_sifive_fe310_g000_hfxosc_config_base>
2001542e:	fea42223          	sw	a0,-28(s0)
/home/jw/Desktop/sifive-standalone-project/freedom-metal/src/drivers/sifive_fe310-g000_hfxosc.c:23
    const struct __metal_driver_vtable_sifive_fe310_g000_prci *vtable =
        __metal_driver_sifive_fe310_g000_prci_vtable();
20015432:	37c1                	jal	200153f2 <__metal_driver_sifive_fe310_g000_prci_vtable>
20015434:	fea42023          	sw	a0,-32(s0)
/home/jw/Desktop/sifive-standalone-project/freedom-metal/src/drivers/sifive_fe310-g000_hfxosc.c:24
    long cfg = vtable->get_reg(config_base, config_offset);
20015438:	fe042783          	lw	a5,-32(s0)
2001543c:	439c                	lw	a5,0(a5)
2001543e:	fe842583          	lw	a1,-24(s0)
20015442:	fe442503          	lw	a0,-28(s0)
20015446:	9782                	jalr	a5
20015448:	fca42e23          	sw	a0,-36(s0)
/home/jw/Desktop/sifive-standalone-project/freedom-metal/src/drivers/sifive_fe310-g000_hfxosc.c:26

    if ((cfg & CONFIG_ENABLE) == 0)
2001544c:	fdc42703          	lw	a4,-36(s0)
20015450:	400007b7          	lui	a5,0x40000
20015454:	8ff9                	and	a5,a5,a4
20015456:	e399                	bnez	a5,2001545c <__metal_driver_sifive_fe310_g000_hfxosc_get_rate_hz+0x54>
/home/jw/Desktop/sifive-standalone-project/freedom-metal/src/drivers/sifive_fe310-g000_hfxosc.c:27
        return -1;
20015458:	57fd                	li	a5,-1
2001545a:	a821                	j	20015472 <__metal_driver_sifive_fe310_g000_hfxosc_get_rate_hz+0x6a>
/home/jw/Desktop/sifive-standalone-project/freedom-metal/src/drivers/sifive_fe310-g000_hfxosc.c:28
    if ((cfg & CONFIG_READY) == 0)
2001545c:	fdc42783          	lw	a5,-36(s0)
20015460:	0007c463          	bltz	a5,20015468 <__metal_driver_sifive_fe310_g000_hfxosc_get_rate_hz+0x60>
/home/jw/Desktop/sifive-standalone-project/freedom-metal/src/drivers/sifive_fe310-g000_hfxosc.c:29
        return -1;
20015464:	57fd                	li	a5,-1
20015466:	a031                	j	20015472 <__metal_driver_sifive_fe310_g000_hfxosc_get_rate_hz+0x6a>
/home/jw/Desktop/sifive-standalone-project/freedom-metal/src/drivers/sifive_fe310-g000_hfxosc.c:30
    return metal_clock_get_rate_hz(ref);
20015468:	fec42503          	lw	a0,-20(s0)
2001546c:	1c5010ef          	jal	ra,20016e30 <metal_clock_get_rate_hz>
20015470:	87aa                	mv	a5,a0
/home/jw/Desktop/sifive-standalone-project/freedom-metal/src/drivers/sifive_fe310-g000_hfxosc.c:31
}
20015472:	853e                	mv	a0,a5
20015474:	50f2                	lw	ra,60(sp)
20015476:	5462                	lw	s0,56(sp)
20015478:	6121                	addi	sp,sp,64
2001547a:	8082                	ret

2001547c <__metal_driver_sifive_fe310_g000_hfxosc_set_rate_hz>:
__metal_driver_sifive_fe310_g000_hfxosc_set_rate_hz():
/home/jw/Desktop/sifive-standalone-project/freedom-metal/src/drivers/sifive_fe310-g000_hfxosc.c:34

long __metal_driver_sifive_fe310_g000_hfxosc_set_rate_hz(
    struct metal_clock *clock, long rate) {
2001547c:	1101                	addi	sp,sp,-32
2001547e:	ce06                	sw	ra,28(sp)
20015480:	cc22                	sw	s0,24(sp)
20015482:	1000                	addi	s0,sp,32
20015484:	fea42623          	sw	a0,-20(s0)
20015488:	feb42423          	sw	a1,-24(s0)
/home/jw/Desktop/sifive-standalone-project/freedom-metal/src/drivers/sifive_fe310-g000_hfxosc.c:35
    return __metal_driver_sifive_fe310_g000_hfxosc_get_rate_hz(clock);
2001548c:	fec42503          	lw	a0,-20(s0)
20015490:	3fa5                	jal	20015408 <__metal_driver_sifive_fe310_g000_hfxosc_get_rate_hz>
20015492:	87aa                	mv	a5,a0
/home/jw/Desktop/sifive-standalone-project/freedom-metal/src/drivers/sifive_fe310-g000_hfxosc.c:36
}
20015494:	853e                	mv	a0,a5
20015496:	40f2                	lw	ra,28(sp)
20015498:	4462                	lw	s0,24(sp)
2001549a:	6105                	addi	sp,sp,32
2001549c:	8082                	ret

2001549e <__metal_driver_sifive_fe310_g000_pll_pllsel0>:
__metal_driver_sifive_fe310_g000_pll_pllsel0():
/home/jw/Desktop/sifive-standalone-project/bsp/build/debug/./metal/machine.h:1332
{
2001549e:	1101                	addi	sp,sp,-32
200154a0:	ce22                	sw	s0,28(sp)
200154a2:	1000                	addi	s0,sp,32
200154a4:	fea42623          	sw	a0,-20(s0)
/home/jw/Desktop/sifive-standalone-project/bsp/build/debug/./metal/machine.h:1333
		return (struct metal_clock *)&__metal_dt_clock_3.clock;
200154a8:	800017b7          	lui	a5,0x80001
200154ac:	a7878793          	addi	a5,a5,-1416 # 80000a78 <metal_segment_heap_target_end+0xfffff308>
/home/jw/Desktop/sifive-standalone-project/bsp/build/debug/./metal/machine.h:1334
}
200154b0:	853e                	mv	a0,a5
200154b2:	4472                	lw	s0,28(sp)
200154b4:	6105                	addi	sp,sp,32
200154b6:	8082                	ret

200154b8 <__metal_driver_sifive_fe310_g000_pll_pllref>:
__metal_driver_sifive_fe310_g000_pll_pllref():
/home/jw/Desktop/sifive-standalone-project/bsp/build/debug/./metal/machine.h:1337
{
200154b8:	1101                	addi	sp,sp,-32
200154ba:	ce22                	sw	s0,28(sp)
200154bc:	1000                	addi	s0,sp,32
200154be:	fea42623          	sw	a0,-20(s0)
/home/jw/Desktop/sifive-standalone-project/bsp/build/debug/./metal/machine.h:1338
		return (struct metal_clock *)&__metal_dt_clock_1.clock;
200154c2:	800017b7          	lui	a5,0x80001
200154c6:	a8478793          	addi	a5,a5,-1404 # 80000a84 <metal_segment_heap_target_end+0xfffff314>
/home/jw/Desktop/sifive-standalone-project/bsp/build/debug/./metal/machine.h:1339
}
200154ca:	853e                	mv	a0,a5
200154cc:	4472                	lw	s0,28(sp)
200154ce:	6105                	addi	sp,sp,32
200154d0:	8082                	ret

200154d2 <__metal_driver_sifive_fe310_g000_pll_divider_base>:
__metal_driver_sifive_fe310_g000_pll_divider_base():
/home/jw/Desktop/sifive-standalone-project/bsp/build/debug/./metal/machine.h:1342
{
200154d2:	1101                	addi	sp,sp,-32
200154d4:	ce22                	sw	s0,28(sp)
200154d6:	1000                	addi	s0,sp,32
200154d8:	fea42623          	sw	a0,-20(s0)
/home/jw/Desktop/sifive-standalone-project/bsp/build/debug/./metal/machine.h:1343
		return (struct __metal_driver_sifive_fe310_g000_prci *)&__metal_dt_prci_10008000;
200154dc:	82018793          	addi	a5,gp,-2016 # 80000ac0 <__metal_dt_prci_10008000>
/home/jw/Desktop/sifive-standalone-project/bsp/build/debug/./metal/machine.h:1344
}
200154e0:	853e                	mv	a0,a5
200154e2:	4472                	lw	s0,28(sp)
200154e4:	6105                	addi	sp,sp,32
200154e6:	8082                	ret

200154e8 <__metal_driver_sifive_fe310_g000_pll_divider_offset>:
__metal_driver_sifive_fe310_g000_pll_divider_offset():
/home/jw/Desktop/sifive-standalone-project/bsp/build/debug/./metal/machine.h:1347
{
200154e8:	1101                	addi	sp,sp,-32
200154ea:	ce22                	sw	s0,28(sp)
200154ec:	1000                	addi	s0,sp,32
200154ee:	fea42623          	sw	a0,-20(s0)
/home/jw/Desktop/sifive-standalone-project/bsp/build/debug/./metal/machine.h:1348
		return METAL_SIFIVE_FE310_G000_PRCI_PLLOUTDIV;
200154f2:	47b1                	li	a5,12
/home/jw/Desktop/sifive-standalone-project/bsp/build/debug/./metal/machine.h:1349
}
200154f4:	853e                	mv	a0,a5
200154f6:	4472                	lw	s0,28(sp)
200154f8:	6105                	addi	sp,sp,32
200154fa:	8082                	ret

200154fc <__metal_driver_sifive_fe310_g000_pll_config_base>:
__metal_driver_sifive_fe310_g000_pll_config_base():
/home/jw/Desktop/sifive-standalone-project/bsp/build/debug/./metal/machine.h:1352
{
200154fc:	1141                	addi	sp,sp,-16
200154fe:	c622                	sw	s0,12(sp)
20015500:	0800                	addi	s0,sp,16
/home/jw/Desktop/sifive-standalone-project/bsp/build/debug/./metal/machine.h:1353
		return (struct __metal_driver_sifive_fe310_g000_prci *)&__metal_dt_prci_10008000;
20015502:	82018793          	addi	a5,gp,-2016 # 80000ac0 <__metal_dt_prci_10008000>
/home/jw/Desktop/sifive-standalone-project/bsp/build/debug/./metal/machine.h:1354
}
20015506:	853e                	mv	a0,a5
20015508:	4432                	lw	s0,12(sp)
2001550a:	0141                	addi	sp,sp,16
2001550c:	8082                	ret

2001550e <__metal_driver_sifive_fe310_g000_pll_config_offset>:
__metal_driver_sifive_fe310_g000_pll_config_offset():
/home/jw/Desktop/sifive-standalone-project/bsp/build/debug/./metal/machine.h:1357
{
2001550e:	1141                	addi	sp,sp,-16
20015510:	c622                	sw	s0,12(sp)
20015512:	0800                	addi	s0,sp,16
/home/jw/Desktop/sifive-standalone-project/bsp/build/debug/./metal/machine.h:1358
		return METAL_SIFIVE_FE310_G000_PRCI_PLLCFG;
20015514:	47a1                	li	a5,8
/home/jw/Desktop/sifive-standalone-project/bsp/build/debug/./metal/machine.h:1359
}
20015516:	853e                	mv	a0,a5
20015518:	4432                	lw	s0,12(sp)
2001551a:	0141                	addi	sp,sp,16
2001551c:	8082                	ret

2001551e <__metal_driver_sifive_fe310_g000_pll_init_rate>:
__metal_driver_sifive_fe310_g000_pll_init_rate():
/home/jw/Desktop/sifive-standalone-project/bsp/build/debug/./metal/machine.h:1362
{
2001551e:	1141                	addi	sp,sp,-16
20015520:	c622                	sw	s0,12(sp)
20015522:	0800                	addi	s0,sp,16
/home/jw/Desktop/sifive-standalone-project/bsp/build/debug/./metal/machine.h:1363
		return 16000000;
20015524:	00f427b7          	lui	a5,0xf42
20015528:	40078793          	addi	a5,a5,1024 # f42400 <__heap_size+0xf41c00>
/home/jw/Desktop/sifive-standalone-project/bsp/build/debug/./metal/machine.h:1364
}
2001552c:	853e                	mv	a0,a5
2001552e:	4432                	lw	s0,12(sp)
20015530:	0141                	addi	sp,sp,16
20015532:	8082                	ret

20015534 <__metal_driver_sifive_fe310_g000_prci_base>:
__metal_driver_sifive_fe310_g000_prci_base():
/home/jw/Desktop/sifive-standalone-project/bsp/build/debug/./metal/machine.h:1370
{
20015534:	1141                	addi	sp,sp,-16
20015536:	c622                	sw	s0,12(sp)
20015538:	0800                	addi	s0,sp,16
/home/jw/Desktop/sifive-standalone-project/bsp/build/debug/./metal/machine.h:1371
		return METAL_SIFIVE_FE310_G000_PRCI_10008000_BASE_ADDRESS;
2001553a:	100087b7          	lui	a5,0x10008
/home/jw/Desktop/sifive-standalone-project/bsp/build/debug/./metal/machine.h:1372
}
2001553e:	853e                	mv	a0,a5
20015540:	4432                	lw	s0,12(sp)
20015542:	0141                	addi	sp,sp,16
20015544:	8082                	ret

20015546 <__metal_driver_sifive_fe310_g000_prci_vtable>:
__metal_driver_sifive_fe310_g000_prci_vtable():
/home/jw/Desktop/sifive-standalone-project/bsp/build/debug/./metal/machine.h:1380
{
20015546:	1141                	addi	sp,sp,-16
20015548:	c622                	sw	s0,12(sp)
2001554a:	0800                	addi	s0,sp,16
/home/jw/Desktop/sifive-standalone-project/bsp/build/debug/./metal/machine.h:1381
		return &__metal_driver_vtable_sifive_fe310_g000_prci;
2001554c:	200117b7          	lui	a5,0x20011
20015550:	ffc78793          	addi	a5,a5,-4 # 20010ffc <__metal_driver_vtable_sifive_fe310_g000_prci>
/home/jw/Desktop/sifive-standalone-project/bsp/build/debug/./metal/machine.h:1382
}
20015554:	853e                	mv	a0,a5
20015556:	4432                	lw	s0,12(sp)
20015558:	0141                	addi	sp,sp,16
2001555a:	8082                	ret

2001555c <get_pll_config_freq>:
get_pll_config_freq():
/home/jw/Desktop/sifive-standalone-project/freedom-metal/src/drivers/sifive_fe310-g000_pll.c:141
                                const struct pll_config_t *config) {
2001555c:	1101                	addi	sp,sp,-32
2001555e:	ce22                	sw	s0,28(sp)
20015560:	1000                	addi	s0,sp,32
20015562:	fea42623          	sw	a0,-20(s0)
20015566:	feb42423          	sw	a1,-24(s0)
/home/jw/Desktop/sifive-standalone-project/freedom-metal/src/drivers/sifive_fe310-g000_pll.c:142
    if (pll_input_rate < config->min_input_rate ||
2001556a:	fe842783          	lw	a5,-24(s0)
2001556e:	479c                	lw	a5,8(a5)
20015570:	fec42703          	lw	a4,-20(s0)
20015574:	00f76963          	bltu	a4,a5,20015586 <get_pll_config_freq+0x2a>
/home/jw/Desktop/sifive-standalone-project/freedom-metal/src/drivers/sifive_fe310-g000_pll.c:143 (discriminator 1)
        pll_input_rate > config->max_input_rate)
20015578:	fe842783          	lw	a5,-24(s0)
2001557c:	47dc                	lw	a5,12(a5)
/home/jw/Desktop/sifive-standalone-project/freedom-metal/src/drivers/sifive_fe310-g000_pll.c:142 (discriminator 1)
    if (pll_input_rate < config->min_input_rate ||
2001557e:	fec42703          	lw	a4,-20(s0)
20015582:	00e7f463          	bgeu	a5,a4,2001558a <get_pll_config_freq+0x2e>
/home/jw/Desktop/sifive-standalone-project/freedom-metal/src/drivers/sifive_fe310-g000_pll.c:144
        return PLL_CONFIG_NOT_VALID;
20015586:	57fd                	li	a5,-1
20015588:	a829                	j	200155a2 <get_pll_config_freq+0x46>
/home/jw/Desktop/sifive-standalone-project/freedom-metal/src/drivers/sifive_fe310-g000_pll.c:146
    return pll_input_rate * config->multiplier / config->divisor;
2001558a:	fe842783          	lw	a5,-24(s0)
2001558e:	4398                	lw	a4,0(a5)
20015590:	fec42783          	lw	a5,-20(s0)
20015594:	02f70733          	mul	a4,a4,a5
20015598:	fe842783          	lw	a5,-24(s0)
2001559c:	43dc                	lw	a5,4(a5)
2001559e:	02f757b3          	divu	a5,a4,a5
/home/jw/Desktop/sifive-standalone-project/freedom-metal/src/drivers/sifive_fe310-g000_pll.c:147
}
200155a2:	853e                	mv	a0,a5
200155a4:	4472                	lw	s0,28(sp)
200155a6:	6105                	addi	sp,sp,32
200155a8:	8082                	ret

200155aa <__metal_driver_sifive_fe310_g000_pll_init>:
__metal_driver_sifive_fe310_g000_pll_init():
/home/jw/Desktop/sifive-standalone-project/freedom-metal/src/drivers/sifive_fe310-g000_pll.c:162
    struct __metal_driver_sifive_fe310_g000_pll *pll) {
200155aa:	7139                	addi	sp,sp,-64
200155ac:	de06                	sw	ra,60(sp)
200155ae:	dc22                	sw	s0,56(sp)
200155b0:	0080                	addi	s0,sp,64
200155b2:	fca42623          	sw	a0,-52(s0)
/home/jw/Desktop/sifive-standalone-project/freedom-metal/src/drivers/sifive_fe310-g000_pll.c:164
        __metal_driver_sifive_fe310_g000_pll_pllref(&(pll->clock));
200155b6:	fcc42783          	lw	a5,-52(s0)
200155ba:	853e                	mv	a0,a5
200155bc:	3df5                	jal	200154b8 <__metal_driver_sifive_fe310_g000_pll_pllref>
200155be:	fea42623          	sw	a0,-20(s0)
/home/jw/Desktop/sifive-standalone-project/freedom-metal/src/drivers/sifive_fe310-g000_pll.c:165
    long init_rate = __metal_driver_sifive_fe310_g000_pll_init_rate();
200155c2:	3fb1                	jal	2001551e <__metal_driver_sifive_fe310_g000_pll_init_rate>
200155c4:	fea42423          	sw	a0,-24(s0)
/home/jw/Desktop/sifive-standalone-project/freedom-metal/src/drivers/sifive_fe310-g000_pll.c:166
    long config_offset = __metal_driver_sifive_fe310_g000_pll_config_offset();
200155c8:	3799                	jal	2001550e <__metal_driver_sifive_fe310_g000_pll_config_offset>
200155ca:	fea42223          	sw	a0,-28(s0)
/home/jw/Desktop/sifive-standalone-project/freedom-metal/src/drivers/sifive_fe310-g000_pll.c:167
    long base = __metal_driver_sifive_fe310_g000_prci_base();
200155ce:	379d                	jal	20015534 <__metal_driver_sifive_fe310_g000_prci_base>
200155d0:	fea42023          	sw	a0,-32(s0)
/home/jw/Desktop/sifive-standalone-project/freedom-metal/src/drivers/sifive_fe310-g000_pll.c:169
    __metal_io_u32 *pllcfg = (__metal_io_u32 *)(base + config_offset);
200155d4:	fe042703          	lw	a4,-32(s0)
200155d8:	fe442783          	lw	a5,-28(s0)
200155dc:	97ba                	add	a5,a5,a4
200155de:	fcf42e23          	sw	a5,-36(s0)
/home/jw/Desktop/sifive-standalone-project/freedom-metal/src/drivers/sifive_fe310-g000_pll.c:173
    _metal_clock_call_all_callbacks(pll->clock._pre_rate_change_callback);
200155e2:	fcc42783          	lw	a5,-52(s0)
200155e6:	43dc                	lw	a5,4(a5)
200155e8:	853e                	mv	a0,a5
200155ea:	7b0010ef          	jal	ra,20016d9a <_metal_clock_call_all_callbacks>
/home/jw/Desktop/sifive-standalone-project/freedom-metal/src/drivers/sifive_fe310-g000_pll.c:177
    if ((__METAL_ACCESS_ONCE(pllcfg) & PLL_SEL) != 0)
200155ee:	fdc42783          	lw	a5,-36(s0)
200155f2:	4398                	lw	a4,0(a5)
200155f4:	67c1                	lui	a5,0x10
200155f6:	8ff9                	and	a5,a5,a4
200155f8:	cb91                	beqz	a5,2001560c <__metal_driver_sifive_fe310_g000_pll_init+0x62>
/home/jw/Desktop/sifive-standalone-project/freedom-metal/src/drivers/sifive_fe310-g000_pll.c:178
        __METAL_ACCESS_ONCE(pllcfg) &= ~(PLL_SEL);
200155fa:	fdc42783          	lw	a5,-36(s0)
200155fe:	4398                	lw	a4,0(a5)
20015600:	77c1                	lui	a5,0xffff0
20015602:	17fd                	addi	a5,a5,-1
20015604:	8f7d                	and	a4,a4,a5
20015606:	fdc42783          	lw	a5,-36(s0)
2001560a:	c398                	sw	a4,0(a5)
/home/jw/Desktop/sifive-standalone-project/freedom-metal/src/drivers/sifive_fe310-g000_pll.c:181
    if (pllref != NULL)
2001560c:	fec42783          	lw	a5,-20(s0)
20015610:	cb91                	beqz	a5,20015624 <__metal_driver_sifive_fe310_g000_pll_init+0x7a>
/home/jw/Desktop/sifive-standalone-project/freedom-metal/src/drivers/sifive_fe310-g000_pll.c:182
        __METAL_ACCESS_ONCE(pllcfg) |= PLL_REFSEL;
20015612:	fdc42783          	lw	a5,-36(s0)
20015616:	4398                	lw	a4,0(a5)
20015618:	000207b7          	lui	a5,0x20
2001561c:	8f5d                	or	a4,a4,a5
2001561e:	fdc42783          	lw	a5,-36(s0)
20015622:	c398                	sw	a4,0(a5)
/home/jw/Desktop/sifive-standalone-project/freedom-metal/src/drivers/sifive_fe310-g000_pll.c:187
    pll->clock.vtable->set_rate_hz(&(pll->clock), init_rate);
20015624:	fcc42783          	lw	a5,-52(s0)
20015628:	439c                	lw	a5,0(a5)
2001562a:	43d8                	lw	a4,4(a5)
2001562c:	fcc42783          	lw	a5,-52(s0)
20015630:	fe842583          	lw	a1,-24(s0)
20015634:	853e                	mv	a0,a5
20015636:	9702                	jalr	a4
/home/jw/Desktop/sifive-standalone-project/freedom-metal/src/drivers/sifive_fe310-g000_pll.c:190
    _metal_clock_call_all_callbacks(pll->clock._post_rate_change_callback);
20015638:	fcc42783          	lw	a5,-52(s0)
2001563c:	479c                	lw	a5,8(a5)
2001563e:	853e                	mv	a0,a5
20015640:	75a010ef          	jal	ra,20016d9a <_metal_clock_call_all_callbacks>
/home/jw/Desktop/sifive-standalone-project/freedom-metal/src/drivers/sifive_fe310-g000_pll.c:191
}
20015644:	0001                	nop
20015646:	50f2                	lw	ra,60(sp)
20015648:	5462                	lw	s0,56(sp)
2001564a:	6121                	addi	sp,sp,64
2001564c:	8082                	ret

2001564e <__metal_driver_sifive_fe310_g000_pll_get_rate_hz>:
__metal_driver_sifive_fe310_g000_pll_get_rate_hz():
/home/jw/Desktop/sifive-standalone-project/freedom-metal/src/drivers/sifive_fe310-g000_pll.c:194
    const struct metal_clock *clock) {
2001564e:	711d                	addi	sp,sp,-96
20015650:	ce86                	sw	ra,92(sp)
20015652:	cca2                	sw	s0,88(sp)
20015654:	1080                	addi	s0,sp,96
20015656:	faa42623          	sw	a0,-84(s0)
/home/jw/Desktop/sifive-standalone-project/freedom-metal/src/drivers/sifive_fe310-g000_pll.c:196
        __metal_driver_sifive_fe310_g000_pll_pllref(clock);
2001565a:	fac42503          	lw	a0,-84(s0)
2001565e:	3da9                	jal	200154b8 <__metal_driver_sifive_fe310_g000_pll_pllref>
20015660:	fea42623          	sw	a0,-20(s0)
/home/jw/Desktop/sifive-standalone-project/freedom-metal/src/drivers/sifive_fe310-g000_pll.c:198
        __metal_driver_sifive_fe310_g000_pll_pllsel0(clock);
20015664:	fac42503          	lw	a0,-84(s0)
20015668:	3d1d                	jal	2001549e <__metal_driver_sifive_fe310_g000_pll_pllsel0>
2001566a:	fea42423          	sw	a0,-24(s0)
/home/jw/Desktop/sifive-standalone-project/freedom-metal/src/drivers/sifive_fe310-g000_pll.c:200
        __metal_driver_sifive_fe310_g000_pll_config_offset(clock);
2001566e:	fac42503          	lw	a0,-84(s0)
20015672:	3d71                	jal	2001550e <__metal_driver_sifive_fe310_g000_pll_config_offset>
20015674:	fea42223          	sw	a0,-28(s0)
/home/jw/Desktop/sifive-standalone-project/freedom-metal/src/drivers/sifive_fe310-g000_pll.c:202
        __metal_driver_sifive_fe310_g000_pll_config_base(clock);
20015678:	fac42503          	lw	a0,-84(s0)
2001567c:	3541                	jal	200154fc <__metal_driver_sifive_fe310_g000_pll_config_base>
2001567e:	fea42023          	sw	a0,-32(s0)
/home/jw/Desktop/sifive-standalone-project/freedom-metal/src/drivers/sifive_fe310-g000_pll.c:204
        __metal_driver_sifive_fe310_g000_pll_divider_offset(clock);
20015682:	fac42503          	lw	a0,-84(s0)
20015686:	358d                	jal	200154e8 <__metal_driver_sifive_fe310_g000_pll_divider_offset>
20015688:	fca42e23          	sw	a0,-36(s0)
/home/jw/Desktop/sifive-standalone-project/freedom-metal/src/drivers/sifive_fe310-g000_pll.c:206
        __metal_driver_sifive_fe310_g000_pll_divider_base(clock);
2001568c:	fac42503          	lw	a0,-84(s0)
20015690:	3589                	jal	200154d2 <__metal_driver_sifive_fe310_g000_pll_divider_base>
20015692:	fca42c23          	sw	a0,-40(s0)
/home/jw/Desktop/sifive-standalone-project/freedom-metal/src/drivers/sifive_fe310-g000_pll.c:208
        __metal_driver_sifive_fe310_g000_prci_vtable();
20015696:	3d45                	jal	20015546 <__metal_driver_sifive_fe310_g000_prci_vtable>
20015698:	fca42a23          	sw	a0,-44(s0)
/home/jw/Desktop/sifive-standalone-project/freedom-metal/src/drivers/sifive_fe310-g000_pll.c:210
    long cfg = vtable->get_reg(config_base, config_offset);
2001569c:	fd442783          	lw	a5,-44(s0)
200156a0:	439c                	lw	a5,0(a5)
200156a2:	fe442583          	lw	a1,-28(s0)
200156a6:	fe042503          	lw	a0,-32(s0)
200156aa:	9782                	jalr	a5
200156ac:	fca42823          	sw	a0,-48(s0)
/home/jw/Desktop/sifive-standalone-project/freedom-metal/src/drivers/sifive_fe310-g000_pll.c:211
    long div = vtable->get_reg(divider_base, divider_offset);
200156b0:	fd442783          	lw	a5,-44(s0)
200156b4:	439c                	lw	a5,0(a5)
200156b6:	fdc42583          	lw	a1,-36(s0)
200156ba:	fd842503          	lw	a0,-40(s0)
200156be:	9782                	jalr	a5
200156c0:	fca42623          	sw	a0,-52(s0)
/home/jw/Desktop/sifive-standalone-project/freedom-metal/src/drivers/sifive_fe310-g000_pll.c:215
    if (__METAL_GET_FIELD(cfg, PLL_SEL) == 0)
200156c4:	fd042703          	lw	a4,-48(s0)
200156c8:	67c1                	lui	a5,0x10
200156ca:	8f7d                	and	a4,a4,a5
200156cc:	67c1                	lui	a5,0x10
200156ce:	00f77863          	bgeu	a4,a5,200156de <__metal_driver_sifive_fe310_g000_pll_get_rate_hz+0x90>
/home/jw/Desktop/sifive-standalone-project/freedom-metal/src/drivers/sifive_fe310-g000_pll.c:216
        return metal_clock_get_rate_hz(pllsel0);
200156d2:	fe842503          	lw	a0,-24(s0)
200156d6:	75a010ef          	jal	ra,20016e30 <metal_clock_get_rate_hz>
200156da:	87aa                	mv	a5,a0
200156dc:	a8e1                	j	200157b4 <__metal_driver_sifive_fe310_g000_pll_get_rate_hz+0x166>
/home/jw/Desktop/sifive-standalone-project/freedom-metal/src/drivers/sifive_fe310-g000_pll.c:221
        __METAL_GET_FIELD(cfg, PLL_REFSEL) ? pllref : pllsel0);
200156de:	fd042703          	lw	a4,-48(s0)
200156e2:	000207b7          	lui	a5,0x20
200156e6:	8f7d                	and	a4,a4,a5
/home/jw/Desktop/sifive-standalone-project/freedom-metal/src/drivers/sifive_fe310-g000_pll.c:220
    long ref_hz = metal_clock_get_rate_hz(
200156e8:	000207b7          	lui	a5,0x20
200156ec:	00f76563          	bltu	a4,a5,200156f6 <__metal_driver_sifive_fe310_g000_pll_get_rate_hz+0xa8>
/home/jw/Desktop/sifive-standalone-project/freedom-metal/src/drivers/sifive_fe310-g000_pll.c:220 (discriminator 1)
200156f0:	fec42783          	lw	a5,-20(s0)
200156f4:	a019                	j	200156fa <__metal_driver_sifive_fe310_g000_pll_get_rate_hz+0xac>
/home/jw/Desktop/sifive-standalone-project/freedom-metal/src/drivers/sifive_fe310-g000_pll.c:220 (discriminator 2)
200156f6:	fe842783          	lw	a5,-24(s0)
/home/jw/Desktop/sifive-standalone-project/freedom-metal/src/drivers/sifive_fe310-g000_pll.c:220 (discriminator 4)
200156fa:	853e                	mv	a0,a5
200156fc:	734010ef          	jal	ra,20016e30 <metal_clock_get_rate_hz>
20015700:	fca42423          	sw	a0,-56(s0)
/home/jw/Desktop/sifive-standalone-project/freedom-metal/src/drivers/sifive_fe310-g000_pll.c:225 (discriminator 4)
    if (__METAL_GET_FIELD(cfg, PLL_BYPASS))
20015704:	fd042703          	lw	a4,-48(s0)
20015708:	000407b7          	lui	a5,0x40
2001570c:	8f7d                	and	a4,a4,a5
2001570e:	000407b7          	lui	a5,0x40
20015712:	00f76563          	bltu	a4,a5,2001571c <__metal_driver_sifive_fe310_g000_pll_get_rate_hz+0xce>
/home/jw/Desktop/sifive-standalone-project/freedom-metal/src/drivers/sifive_fe310-g000_pll.c:226
        return ref_hz;
20015716:	fc842783          	lw	a5,-56(s0)
2001571a:	a869                	j	200157b4 <__metal_driver_sifive_fe310_g000_pll_get_rate_hz+0x166>
/home/jw/Desktop/sifive-standalone-project/freedom-metal/src/drivers/sifive_fe310-g000_pll.c:229
    long div_r = __METAL_GET_FIELD(cfg, PLL_R) + 1;
2001571c:	fd042783          	lw	a5,-48(s0)
20015720:	8b9d                	andi	a5,a5,7
20015722:	0785                	addi	a5,a5,1
20015724:	fcf42223          	sw	a5,-60(s0)
/home/jw/Desktop/sifive-standalone-project/freedom-metal/src/drivers/sifive_fe310-g000_pll.c:230
    long mul_f = 2 * (__METAL_GET_FIELD(cfg, PLL_F) + 1);
20015728:	fd042783          	lw	a5,-48(s0)
2001572c:	3f07f793          	andi	a5,a5,1008
20015730:	8391                	srli	a5,a5,0x4
20015732:	0785                	addi	a5,a5,1
20015734:	0786                	slli	a5,a5,0x1
20015736:	fcf42023          	sw	a5,-64(s0)
/home/jw/Desktop/sifive-standalone-project/freedom-metal/src/drivers/sifive_fe310-g000_pll.c:231
    if (__METAL_GET_FIELD(cfg, PLL_Q) == 0)
2001573a:	fd042703          	lw	a4,-48(s0)
2001573e:	6785                	lui	a5,0x1
20015740:	c0078793          	addi	a5,a5,-1024 # c00 <__heap_size+0x400>
20015744:	8f7d                	and	a4,a4,a5
20015746:	3ff00793          	li	a5,1023
2001574a:	00e7e463          	bltu	a5,a4,20015752 <__metal_driver_sifive_fe310_g000_pll_get_rate_hz+0x104>
/home/jw/Desktop/sifive-standalone-project/freedom-metal/src/drivers/sifive_fe310-g000_pll.c:232
        return -1;
2001574e:	57fd                	li	a5,-1
20015750:	a095                	j	200157b4 <__metal_driver_sifive_fe310_g000_pll_get_rate_hz+0x166>
/home/jw/Desktop/sifive-standalone-project/freedom-metal/src/drivers/sifive_fe310-g000_pll.c:233
    long div_q = 1 << __METAL_GET_FIELD(cfg, PLL_Q);
20015752:	fd042703          	lw	a4,-48(s0)
20015756:	6785                	lui	a5,0x1
20015758:	c0078793          	addi	a5,a5,-1024 # c00 <__heap_size+0x400>
2001575c:	8ff9                	and	a5,a5,a4
2001575e:	83a9                	srli	a5,a5,0xa
20015760:	4705                	li	a4,1
20015762:	00f717b3          	sll	a5,a4,a5
20015766:	faf42e23          	sw	a5,-68(s0)
/home/jw/Desktop/sifive-standalone-project/freedom-metal/src/drivers/sifive_fe310-g000_pll.c:238
    long pllout = (((ref_hz / div_r) * mul_f) / div_q);
2001576a:	fc842703          	lw	a4,-56(s0)
2001576e:	fc442783          	lw	a5,-60(s0)
20015772:	02f74733          	div	a4,a4,a5
20015776:	fc042783          	lw	a5,-64(s0)
2001577a:	02f70733          	mul	a4,a4,a5
2001577e:	fbc42783          	lw	a5,-68(s0)
20015782:	02f747b3          	div	a5,a4,a5
20015786:	faf42c23          	sw	a5,-72(s0)
/home/jw/Desktop/sifive-standalone-project/freedom-metal/src/drivers/sifive_fe310-g000_pll.c:239
    if (__METAL_GET_FIELD(div, DIV_1))
2001578a:	fcc42783          	lw	a5,-52(s0)
2001578e:	1007f713          	andi	a4,a5,256
20015792:	0ff00793          	li	a5,255
20015796:	00e7f563          	bgeu	a5,a4,200157a0 <__metal_driver_sifive_fe310_g000_pll_get_rate_hz+0x152>
/home/jw/Desktop/sifive-standalone-project/freedom-metal/src/drivers/sifive_fe310-g000_pll.c:240
        return pllout;
2001579a:	fb842783          	lw	a5,-72(s0)
2001579e:	a819                	j	200157b4 <__metal_driver_sifive_fe310_g000_pll_get_rate_hz+0x166>
/home/jw/Desktop/sifive-standalone-project/freedom-metal/src/drivers/sifive_fe310-g000_pll.c:242
    return pllout / (2 * (__METAL_GET_FIELD(div, DIV_DIV) + 1));
200157a0:	fb842703          	lw	a4,-72(s0)
200157a4:	fcc42783          	lw	a5,-52(s0)
200157a8:	03f7f793          	andi	a5,a5,63
200157ac:	0785                	addi	a5,a5,1
200157ae:	0786                	slli	a5,a5,0x1
200157b0:	02f757b3          	divu	a5,a4,a5
/home/jw/Desktop/sifive-standalone-project/freedom-metal/src/drivers/sifive_fe310-g000_pll.c:243
}
200157b4:	853e                	mv	a0,a5
200157b6:	40f6                	lw	ra,92(sp)
200157b8:	4466                	lw	s0,88(sp)
200157ba:	6125                	addi	sp,sp,96
200157bc:	8082                	ret

200157be <find_closest_config>:
find_closest_config():
/home/jw/Desktop/sifive-standalone-project/freedom-metal/src/drivers/sifive_fe310-g000_pll.c:253
static int find_closest_config(long ref_hz, long rate) {
200157be:	7139                	addi	sp,sp,-64
200157c0:	de06                	sw	ra,60(sp)
200157c2:	dc22                	sw	s0,56(sp)
200157c4:	0080                	addi	s0,sp,64
200157c6:	fca42623          	sw	a0,-52(s0)
200157ca:	fcb42423          	sw	a1,-56(s0)
/home/jw/Desktop/sifive-standalone-project/freedom-metal/src/drivers/sifive_fe310-g000_pll.c:254
    int closest_index = -1;
200157ce:	57fd                	li	a5,-1
200157d0:	fef42623          	sw	a5,-20(s0)
/home/jw/Desktop/sifive-standalone-project/freedom-metal/src/drivers/sifive_fe310-g000_pll.c:255
    long closest_diff = LONG_MAX;
200157d4:	800007b7          	lui	a5,0x80000
200157d8:	fff7c793          	not	a5,a5
200157dc:	fef42423          	sw	a5,-24(s0)
/home/jw/Desktop/sifive-standalone-project/freedom-metal/src/drivers/sifive_fe310-g000_pll.c:259
    for (int i = (sizeof(pll_configs) / sizeof(pll_configs[0])) - 1; i >= 0;
200157e0:	04300793          	li	a5,67
200157e4:	fef42223          	sw	a5,-28(s0)
200157e8:	a0b5                	j	20015854 <find_closest_config+0x96>
/home/jw/Desktop/sifive-standalone-project/freedom-metal/src/drivers/sifive_fe310-g000_pll.c:261
        long config_freq = get_pll_config_freq(ref_hz, &(pll_configs[i]));
200157ea:	fcc42683          	lw	a3,-52(s0)
200157ee:	fe442783          	lw	a5,-28(s0)
200157f2:	00579713          	slli	a4,a5,0x5
200157f6:	200107b7          	lui	a5,0x20010
200157fa:	69c78793          	addi	a5,a5,1692 # 2001069c <pll_configs>
200157fe:	97ba                	add	a5,a5,a4
20015800:	85be                	mv	a1,a5
20015802:	8536                	mv	a0,a3
20015804:	d59ff0ef          	jal	ra,2001555c <get_pll_config_freq>
20015808:	fea42023          	sw	a0,-32(s0)
/home/jw/Desktop/sifive-standalone-project/freedom-metal/src/drivers/sifive_fe310-g000_pll.c:262
        if (config_freq != PLL_CONFIG_NOT_VALID) {
2001580c:	fe042703          	lw	a4,-32(s0)
20015810:	57fd                	li	a5,-1
20015812:	02f70c63          	beq	a4,a5,2001584a <find_closest_config+0x8c>
/home/jw/Desktop/sifive-standalone-project/freedom-metal/src/drivers/sifive_fe310-g000_pll.c:263
            long freq_diff = labs(config_freq - rate);
20015816:	fe042703          	lw	a4,-32(s0)
2001581a:	fc842783          	lw	a5,-56(s0)
2001581e:	8f1d                	sub	a4,a4,a5
20015820:	41f75793          	srai	a5,a4,0x1f
20015824:	8f3d                	xor	a4,a4,a5
20015826:	40f707b3          	sub	a5,a4,a5
2001582a:	fcf42e23          	sw	a5,-36(s0)
/home/jw/Desktop/sifive-standalone-project/freedom-metal/src/drivers/sifive_fe310-g000_pll.c:265
            if (freq_diff < closest_diff) {
2001582e:	fdc42703          	lw	a4,-36(s0)
20015832:	fe842783          	lw	a5,-24(s0)
20015836:	00f75a63          	bge	a4,a5,2001584a <find_closest_config+0x8c>
/home/jw/Desktop/sifive-standalone-project/freedom-metal/src/drivers/sifive_fe310-g000_pll.c:266
                closest_index = i;
2001583a:	fe442783          	lw	a5,-28(s0)
2001583e:	fef42623          	sw	a5,-20(s0)
/home/jw/Desktop/sifive-standalone-project/freedom-metal/src/drivers/sifive_fe310-g000_pll.c:267
                closest_diff = freq_diff;
20015842:	fdc42783          	lw	a5,-36(s0)
20015846:	fef42423          	sw	a5,-24(s0)
/home/jw/Desktop/sifive-standalone-project/freedom-metal/src/drivers/sifive_fe310-g000_pll.c:260
         i--) {
2001584a:	fe442783          	lw	a5,-28(s0)
2001584e:	17fd                	addi	a5,a5,-1
20015850:	fef42223          	sw	a5,-28(s0)
/home/jw/Desktop/sifive-standalone-project/freedom-metal/src/drivers/sifive_fe310-g000_pll.c:259 (discriminator 1)
    for (int i = (sizeof(pll_configs) / sizeof(pll_configs[0])) - 1; i >= 0;
20015854:	fe442783          	lw	a5,-28(s0)
20015858:	f807d9e3          	bgez	a5,200157ea <find_closest_config+0x2c>
/home/jw/Desktop/sifive-standalone-project/freedom-metal/src/drivers/sifive_fe310-g000_pll.c:272
    return closest_index;
2001585c:	fec42783          	lw	a5,-20(s0)
/home/jw/Desktop/sifive-standalone-project/freedom-metal/src/drivers/sifive_fe310-g000_pll.c:273
}
20015860:	853e                	mv	a0,a5
20015862:	50f2                	lw	ra,60(sp)
20015864:	5462                	lw	s0,56(sp)
20015866:	6121                	addi	sp,sp,64
20015868:	8082                	ret

2001586a <configure_pll>:
configure_pll():
/home/jw/Desktop/sifive-standalone-project/freedom-metal/src/drivers/sifive_fe310-g000_pll.c:290
                          const struct pll_config_t *config) {
2001586a:	7179                	addi	sp,sp,-48
2001586c:	d606                	sw	ra,44(sp)
2001586e:	d422                	sw	s0,40(sp)
20015870:	1800                	addi	s0,sp,48
20015872:	fca42e23          	sw	a0,-36(s0)
20015876:	fcb42c23          	sw	a1,-40(s0)
2001587a:	fcc42a23          	sw	a2,-44(s0)
/home/jw/Desktop/sifive-standalone-project/freedom-metal/src/drivers/sifive_fe310-g000_pll.c:291
    __METAL_ACCESS_ONCE(pllcfg) &= ~(PLL_R);
2001587e:	fdc42783          	lw	a5,-36(s0)
20015882:	439c                	lw	a5,0(a5)
20015884:	ff87f713          	andi	a4,a5,-8
20015888:	fdc42783          	lw	a5,-36(s0)
2001588c:	c398                	sw	a4,0(a5)
/home/jw/Desktop/sifive-standalone-project/freedom-metal/src/drivers/sifive_fe310-g000_pll.c:292
    __METAL_ACCESS_ONCE(pllcfg) |= PLL_R_SHIFT(config->r);
2001588e:	fdc42783          	lw	a5,-36(s0)
20015892:	4398                	lw	a4,0(a5)
20015894:	fd442783          	lw	a5,-44(s0)
20015898:	4b9c                	lw	a5,16(a5)
2001589a:	8b9d                	andi	a5,a5,7
2001589c:	8f5d                	or	a4,a4,a5
2001589e:	fdc42783          	lw	a5,-36(s0)
200158a2:	c398                	sw	a4,0(a5)
/home/jw/Desktop/sifive-standalone-project/freedom-metal/src/drivers/sifive_fe310-g000_pll.c:294
    __METAL_ACCESS_ONCE(pllcfg) &= ~(PLL_F);
200158a4:	fdc42783          	lw	a5,-36(s0)
200158a8:	439c                	lw	a5,0(a5)
200158aa:	c0f7f713          	andi	a4,a5,-1009
200158ae:	fdc42783          	lw	a5,-36(s0)
200158b2:	c398                	sw	a4,0(a5)
/home/jw/Desktop/sifive-standalone-project/freedom-metal/src/drivers/sifive_fe310-g000_pll.c:295
    __METAL_ACCESS_ONCE(pllcfg) |= PLL_F_SHIFT(config->f);
200158b4:	fdc42783          	lw	a5,-36(s0)
200158b8:	4398                	lw	a4,0(a5)
200158ba:	fd442783          	lw	a5,-44(s0)
200158be:	4bdc                	lw	a5,20(a5)
200158c0:	0792                	slli	a5,a5,0x4
200158c2:	3f07f793          	andi	a5,a5,1008
200158c6:	8f5d                	or	a4,a4,a5
200158c8:	fdc42783          	lw	a5,-36(s0)
200158cc:	c398                	sw	a4,0(a5)
/home/jw/Desktop/sifive-standalone-project/freedom-metal/src/drivers/sifive_fe310-g000_pll.c:297
    __METAL_ACCESS_ONCE(pllcfg) &= ~(PLL_Q);
200158ce:	fdc42783          	lw	a5,-36(s0)
200158d2:	4398                	lw	a4,0(a5)
200158d4:	77fd                	lui	a5,0xfffff
200158d6:	3ff78793          	addi	a5,a5,1023 # fffff3ff <metal_segment_heap_target_end+0x7fffdc8f>
200158da:	8f7d                	and	a4,a4,a5
200158dc:	fdc42783          	lw	a5,-36(s0)
200158e0:	c398                	sw	a4,0(a5)
/home/jw/Desktop/sifive-standalone-project/freedom-metal/src/drivers/sifive_fe310-g000_pll.c:298
    __METAL_ACCESS_ONCE(pllcfg) |= PLL_Q_SHIFT(config->q);
200158e2:	fdc42783          	lw	a5,-36(s0)
200158e6:	4398                	lw	a4,0(a5)
200158e8:	fd442783          	lw	a5,-44(s0)
200158ec:	4f9c                	lw	a5,24(a5)
200158ee:	00a79693          	slli	a3,a5,0xa
200158f2:	6785                	lui	a5,0x1
200158f4:	c0078793          	addi	a5,a5,-1024 # c00 <__heap_size+0x400>
200158f8:	8ff5                	and	a5,a5,a3
200158fa:	8f5d                	or	a4,a4,a5
200158fc:	fdc42783          	lw	a5,-36(s0)
20015900:	c398                	sw	a4,0(a5)
/home/jw/Desktop/sifive-standalone-project/freedom-metal/src/drivers/sifive_fe310-g000_pll.c:300
    if (config->d < 0) {
20015902:	fd442783          	lw	a5,-44(s0)
20015906:	4fdc                	lw	a5,28(a5)
20015908:	0207db63          	bgez	a5,2001593e <configure_pll+0xd4>
/home/jw/Desktop/sifive-standalone-project/freedom-metal/src/drivers/sifive_fe310-g000_pll.c:302
        __METAL_ACCESS_ONCE(plloutdiv) |= DIV_1;
2001590c:	fd842783          	lw	a5,-40(s0)
20015910:	439c                	lw	a5,0(a5)
20015912:	1007e713          	ori	a4,a5,256
20015916:	fd842783          	lw	a5,-40(s0)
2001591a:	c398                	sw	a4,0(a5)
/home/jw/Desktop/sifive-standalone-project/freedom-metal/src/drivers/sifive_fe310-g000_pll.c:304
        __METAL_ACCESS_ONCE(plloutdiv) &= ~(DIV_DIV);
2001591c:	fd842783          	lw	a5,-40(s0)
20015920:	439c                	lw	a5,0(a5)
20015922:	fc07f713          	andi	a4,a5,-64
20015926:	fd842783          	lw	a5,-40(s0)
2001592a:	c398                	sw	a4,0(a5)
/home/jw/Desktop/sifive-standalone-project/freedom-metal/src/drivers/sifive_fe310-g000_pll.c:305
        __METAL_ACCESS_ONCE(plloutdiv) |= PLL_DIV_SHIFT(1);
2001592c:	fd842783          	lw	a5,-40(s0)
20015930:	439c                	lw	a5,0(a5)
20015932:	0017e713          	ori	a4,a5,1
20015936:	fd842783          	lw	a5,-40(s0)
2001593a:	c398                	sw	a4,0(a5)
2001593c:	a82d                	j	20015976 <configure_pll+0x10c>
/home/jw/Desktop/sifive-standalone-project/freedom-metal/src/drivers/sifive_fe310-g000_pll.c:307
        __METAL_ACCESS_ONCE(plloutdiv) &= ~(DIV_1);
2001593e:	fd842783          	lw	a5,-40(s0)
20015942:	439c                	lw	a5,0(a5)
20015944:	eff7f713          	andi	a4,a5,-257
20015948:	fd842783          	lw	a5,-40(s0)
2001594c:	c398                	sw	a4,0(a5)
/home/jw/Desktop/sifive-standalone-project/freedom-metal/src/drivers/sifive_fe310-g000_pll.c:309
        __METAL_ACCESS_ONCE(plloutdiv) &= ~(DIV_DIV);
2001594e:	fd842783          	lw	a5,-40(s0)
20015952:	439c                	lw	a5,0(a5)
20015954:	fc07f713          	andi	a4,a5,-64
20015958:	fd842783          	lw	a5,-40(s0)
2001595c:	c398                	sw	a4,0(a5)
/home/jw/Desktop/sifive-standalone-project/freedom-metal/src/drivers/sifive_fe310-g000_pll.c:310
        __METAL_ACCESS_ONCE(plloutdiv) |= PLL_DIV_SHIFT(config->d);
2001595e:	fd842783          	lw	a5,-40(s0)
20015962:	4398                	lw	a4,0(a5)
20015964:	fd442783          	lw	a5,-44(s0)
20015968:	4fdc                	lw	a5,28(a5)
2001596a:	03f7f793          	andi	a5,a5,63
2001596e:	8f5d                	or	a4,a4,a5
20015970:	fd842783          	lw	a5,-40(s0)
20015974:	c398                	sw	a4,0(a5)
/home/jw/Desktop/sifive-standalone-project/freedom-metal/src/drivers/sifive_fe310-g000_pll.c:313
    __METAL_ACCESS_ONCE(pllcfg) &= ~(PLL_BYPASS);
20015976:	fdc42783          	lw	a5,-36(s0)
2001597a:	4398                	lw	a4,0(a5)
2001597c:	fffc07b7          	lui	a5,0xfffc0
20015980:	17fd                	addi	a5,a5,-1
20015982:	8f7d                	and	a4,a4,a5
20015984:	fdc42783          	lw	a5,-36(s0)
20015988:	c398                	sw	a4,0(a5)
/home/jw/Desktop/sifive-standalone-project/freedom-metal/src/drivers/sifive_fe310-g000_pll.c:318
    __metal_driver_riscv_clint0_command_request(__METAL_DT_RISCV_CLINT0_HANDLE,
2001598a:	fe040793          	addi	a5,s0,-32
2001598e:	863e                	mv	a2,a5
20015990:	4585                	li	a1,1
20015992:	800017b7          	lui	a5,0x80001
20015996:	aac78513          	addi	a0,a5,-1364 # 80000aac <metal_segment_heap_target_end+0xfffff33c>
2001599a:	ca0fd0ef          	jal	ra,20012e3a <__metal_driver_riscv_clint0_command_request>
/home/jw/Desktop/sifive-standalone-project/freedom-metal/src/drivers/sifive_fe310-g000_pll.c:320
    mtime_end = mtime + PLL_LOCK_WAIT_TICKS;
2001599e:	fe042603          	lw	a2,-32(s0)
200159a2:	fe442683          	lw	a3,-28(s0)
200159a6:	4511                	li	a0,4
200159a8:	4581                	li	a1,0
200159aa:	00a60733          	add	a4,a2,a0
200159ae:	883a                	mv	a6,a4
200159b0:	00c83833          	sltu	a6,a6,a2
200159b4:	00b687b3          	add	a5,a3,a1
200159b8:	00f806b3          	add	a3,a6,a5
200159bc:	87b6                	mv	a5,a3
200159be:	fee42423          	sw	a4,-24(s0)
200159c2:	fef42623          	sw	a5,-20(s0)
/home/jw/Desktop/sifive-standalone-project/freedom-metal/src/drivers/sifive_fe310-g000_pll.c:321
    while (mtime <= mtime_end) {
200159c6:	a819                	j	200159dc <configure_pll+0x172>
/home/jw/Desktop/sifive-standalone-project/freedom-metal/src/drivers/sifive_fe310-g000_pll.c:322
        __metal_driver_riscv_clint0_command_request(
200159c8:	fe040793          	addi	a5,s0,-32
200159cc:	863e                	mv	a2,a5
200159ce:	4585                	li	a1,1
200159d0:	800017b7          	lui	a5,0x80001
200159d4:	aac78513          	addi	a0,a5,-1364 # 80000aac <metal_segment_heap_target_end+0xfffff33c>
200159d8:	c62fd0ef          	jal	ra,20012e3a <__metal_driver_riscv_clint0_command_request>
/home/jw/Desktop/sifive-standalone-project/freedom-metal/src/drivers/sifive_fe310-g000_pll.c:321
    while (mtime <= mtime_end) {
200159dc:	fe042703          	lw	a4,-32(s0)
200159e0:	fe442783          	lw	a5,-28(s0)
200159e4:	fec42683          	lw	a3,-20(s0)
200159e8:	863e                	mv	a2,a5
200159ea:	00c6ec63          	bltu	a3,a2,20015a02 <configure_pll+0x198>
200159ee:	fec42683          	lw	a3,-20(s0)
200159f2:	863e                	mv	a2,a5
200159f4:	fcc69ae3          	bne	a3,a2,200159c8 <configure_pll+0x15e>
200159f8:	fe842683          	lw	a3,-24(s0)
200159fc:	87ba                	mv	a5,a4
200159fe:	fcf6f5e3          	bgeu	a3,a5,200159c8 <configure_pll+0x15e>
/home/jw/Desktop/sifive-standalone-project/freedom-metal/src/drivers/sifive_fe310-g000_pll.c:340
    while ((__METAL_ACCESS_ONCE(pllcfg) & PLL_LOCK) == 0)
20015a02:	0001                	nop
/home/jw/Desktop/sifive-standalone-project/freedom-metal/src/drivers/sifive_fe310-g000_pll.c:340 (discriminator 1)
20015a04:	fdc42783          	lw	a5,-36(s0)
20015a08:	439c                	lw	a5,0(a5)
20015a0a:	fe07dde3          	bgez	a5,20015a04 <configure_pll+0x19a>
/home/jw/Desktop/sifive-standalone-project/freedom-metal/src/drivers/sifive_fe310-g000_pll.c:342
}
20015a0e:	0001                	nop
20015a10:	0001                	nop
20015a12:	50b2                	lw	ra,44(sp)
20015a14:	5422                	lw	s0,40(sp)
20015a16:	6145                	addi	sp,sp,48
20015a18:	8082                	ret

20015a1a <__metal_driver_sifive_fe310_g000_pll_set_rate_hz>:
__metal_driver_sifive_fe310_g000_pll_set_rate_hz():
/home/jw/Desktop/sifive-standalone-project/freedom-metal/src/drivers/sifive_fe310-g000_pll.c:345
                                                      long rate) {
20015a1a:	715d                	addi	sp,sp,-80
20015a1c:	c686                	sw	ra,76(sp)
20015a1e:	c4a2                	sw	s0,72(sp)
20015a20:	0880                	addi	s0,sp,80
20015a22:	faa42e23          	sw	a0,-68(s0)
20015a26:	fab42c23          	sw	a1,-72(s0)
/home/jw/Desktop/sifive-standalone-project/freedom-metal/src/drivers/sifive_fe310-g000_pll.c:347
        __metal_driver_sifive_fe310_g000_pll_pllref(clock);
20015a2a:	fbc42503          	lw	a0,-68(s0)
20015a2e:	a8bff0ef          	jal	ra,200154b8 <__metal_driver_sifive_fe310_g000_pll_pllref>
20015a32:	fea42623          	sw	a0,-20(s0)
/home/jw/Desktop/sifive-standalone-project/freedom-metal/src/drivers/sifive_fe310-g000_pll.c:349
        __metal_driver_sifive_fe310_g000_pll_pllsel0(clock);
20015a36:	fbc42503          	lw	a0,-68(s0)
20015a3a:	a65ff0ef          	jal	ra,2001549e <__metal_driver_sifive_fe310_g000_pll_pllsel0>
20015a3e:	fea42423          	sw	a0,-24(s0)
/home/jw/Desktop/sifive-standalone-project/freedom-metal/src/drivers/sifive_fe310-g000_pll.c:351
        __metal_driver_sifive_fe310_g000_pll_config_offset(clock);
20015a42:	fbc42503          	lw	a0,-68(s0)
20015a46:	ac9ff0ef          	jal	ra,2001550e <__metal_driver_sifive_fe310_g000_pll_config_offset>
20015a4a:	fea42223          	sw	a0,-28(s0)
/home/jw/Desktop/sifive-standalone-project/freedom-metal/src/drivers/sifive_fe310-g000_pll.c:353
        __metal_driver_sifive_fe310_g000_pll_divider_offset(clock);
20015a4e:	fbc42503          	lw	a0,-68(s0)
20015a52:	a97ff0ef          	jal	ra,200154e8 <__metal_driver_sifive_fe310_g000_pll_divider_offset>
20015a56:	fea42023          	sw	a0,-32(s0)
/home/jw/Desktop/sifive-standalone-project/freedom-metal/src/drivers/sifive_fe310-g000_pll.c:354
    long base = __metal_driver_sifive_fe310_g000_prci_base();
20015a5a:	adbff0ef          	jal	ra,20015534 <__metal_driver_sifive_fe310_g000_prci_base>
20015a5e:	fca42e23          	sw	a0,-36(s0)
/home/jw/Desktop/sifive-standalone-project/freedom-metal/src/drivers/sifive_fe310-g000_pll.c:356
    __metal_io_u32 *pllcfg = (__metal_io_u32 *)(base + config_offset);
20015a62:	fdc42703          	lw	a4,-36(s0)
20015a66:	fe442783          	lw	a5,-28(s0)
20015a6a:	97ba                	add	a5,a5,a4
20015a6c:	fcf42c23          	sw	a5,-40(s0)
/home/jw/Desktop/sifive-standalone-project/freedom-metal/src/drivers/sifive_fe310-g000_pll.c:357
    __metal_io_u32 *plloutdiv = (__metal_io_u32 *)(base + divider_offset);
20015a70:	fdc42703          	lw	a4,-36(s0)
20015a74:	fe042783          	lw	a5,-32(s0)
20015a78:	97ba                	add	a5,a5,a4
20015a7a:	fcf42a23          	sw	a5,-44(s0)
/home/jw/Desktop/sifive-standalone-project/freedom-metal/src/drivers/sifive_fe310-g000_pll.c:360
    if (__METAL_ACCESS_ONCE(pllcfg) & PLL_SEL)
20015a7e:	fd842783          	lw	a5,-40(s0)
20015a82:	4398                	lw	a4,0(a5)
20015a84:	67c1                	lui	a5,0x10
20015a86:	8ff9                	and	a5,a5,a4
20015a88:	cb91                	beqz	a5,20015a9c <__metal_driver_sifive_fe310_g000_pll_set_rate_hz+0x82>
/home/jw/Desktop/sifive-standalone-project/freedom-metal/src/drivers/sifive_fe310-g000_pll.c:361
        __METAL_ACCESS_ONCE(pllcfg) &= ~(PLL_SEL);
20015a8a:	fd842783          	lw	a5,-40(s0)
20015a8e:	4398                	lw	a4,0(a5)
20015a90:	77c1                	lui	a5,0xffff0
20015a92:	17fd                	addi	a5,a5,-1
20015a94:	8f7d                	and	a4,a4,a5
20015a96:	fd842783          	lw	a5,-40(s0)
20015a9a:	c398                	sw	a4,0(a5)
/home/jw/Desktop/sifive-standalone-project/freedom-metal/src/drivers/sifive_fe310-g000_pll.c:366
        __METAL_ACCESS_ONCE(pllcfg) & PLL_REFSEL ? pllref : pllsel0);
20015a9c:	fd842783          	lw	a5,-40(s0)
20015aa0:	4398                	lw	a4,0(a5)
20015aa2:	000207b7          	lui	a5,0x20
20015aa6:	8ff9                	and	a5,a5,a4
/home/jw/Desktop/sifive-standalone-project/freedom-metal/src/drivers/sifive_fe310-g000_pll.c:365
    long ref_hz = metal_clock_get_rate_hz(
20015aa8:	c781                	beqz	a5,20015ab0 <__metal_driver_sifive_fe310_g000_pll_set_rate_hz+0x96>
/home/jw/Desktop/sifive-standalone-project/freedom-metal/src/drivers/sifive_fe310-g000_pll.c:365 (discriminator 1)
20015aaa:	fec42783          	lw	a5,-20(s0)
20015aae:	a019                	j	20015ab4 <__metal_driver_sifive_fe310_g000_pll_set_rate_hz+0x9a>
/home/jw/Desktop/sifive-standalone-project/freedom-metal/src/drivers/sifive_fe310-g000_pll.c:365 (discriminator 2)
20015ab0:	fe842783          	lw	a5,-24(s0)
/home/jw/Desktop/sifive-standalone-project/freedom-metal/src/drivers/sifive_fe310-g000_pll.c:365 (discriminator 4)
20015ab4:	853e                	mv	a0,a5
20015ab6:	37a010ef          	jal	ra,20016e30 <metal_clock_get_rate_hz>
20015aba:	fca42823          	sw	a0,-48(s0)
/home/jw/Desktop/sifive-standalone-project/freedom-metal/src/drivers/sifive_fe310-g000_pll.c:370 (discriminator 4)
    if ((ref_hz * 3 / 4) <= rate && (ref_hz * 5 / 4) >= rate) {
20015abe:	fd042703          	lw	a4,-48(s0)
20015ac2:	87ba                	mv	a5,a4
20015ac4:	0786                	slli	a5,a5,0x1
20015ac6:	97ba                	add	a5,a5,a4
20015ac8:	41f7d713          	srai	a4,a5,0x1f
20015acc:	8b0d                	andi	a4,a4,3
20015ace:	97ba                	add	a5,a5,a4
20015ad0:	8789                	srai	a5,a5,0x2
20015ad2:	873e                	mv	a4,a5
20015ad4:	fb842783          	lw	a5,-72(s0)
20015ad8:	02e7cb63          	blt	a5,a4,20015b0e <__metal_driver_sifive_fe310_g000_pll_set_rate_hz+0xf4>
/home/jw/Desktop/sifive-standalone-project/freedom-metal/src/drivers/sifive_fe310-g000_pll.c:370 (discriminator 1)
20015adc:	fd042703          	lw	a4,-48(s0)
20015ae0:	87ba                	mv	a5,a4
20015ae2:	078a                	slli	a5,a5,0x2
20015ae4:	97ba                	add	a5,a5,a4
20015ae6:	41f7d713          	srai	a4,a5,0x1f
20015aea:	8b0d                	andi	a4,a4,3
20015aec:	97ba                	add	a5,a5,a4
20015aee:	8789                	srai	a5,a5,0x2
20015af0:	873e                	mv	a4,a5
20015af2:	fb842783          	lw	a5,-72(s0)
20015af6:	00f74c63          	blt	a4,a5,20015b0e <__metal_driver_sifive_fe310_g000_pll_set_rate_hz+0xf4>
/home/jw/Desktop/sifive-standalone-project/freedom-metal/src/drivers/sifive_fe310-g000_pll.c:371
        __METAL_ACCESS_ONCE(pllcfg) |= PLL_BYPASS;
20015afa:	fd842783          	lw	a5,-40(s0)
20015afe:	4398                	lw	a4,0(a5)
20015b00:	000407b7          	lui	a5,0x40
20015b04:	8f5d                	or	a4,a4,a5
20015b06:	fd842783          	lw	a5,-40(s0)
20015b0a:	c398                	sw	a4,0(a5)
20015b0c:	a881                	j	20015b5c <__metal_driver_sifive_fe310_g000_pll_set_rate_hz+0x142>
/home/jw/Desktop/sifive-standalone-project/freedom-metal/src/drivers/sifive_fe310-g000_pll.c:373
        int config_index = find_closest_config(ref_hz, rate);
20015b0e:	fb842583          	lw	a1,-72(s0)
20015b12:	fd042503          	lw	a0,-48(s0)
20015b16:	ca9ff0ef          	jal	ra,200157be <find_closest_config>
20015b1a:	fca42623          	sw	a0,-52(s0)
/home/jw/Desktop/sifive-standalone-project/freedom-metal/src/drivers/sifive_fe310-g000_pll.c:374
        if (config_index != -1) {
20015b1e:	fcc42703          	lw	a4,-52(s0)
20015b22:	57fd                	li	a5,-1
20015b24:	02f70363          	beq	a4,a5,20015b4a <__metal_driver_sifive_fe310_g000_pll_set_rate_hz+0x130>
/home/jw/Desktop/sifive-standalone-project/freedom-metal/src/drivers/sifive_fe310-g000_pll.c:375
            configure_pll(pllcfg, plloutdiv, &(pll_configs[config_index]));
20015b28:	fcc42783          	lw	a5,-52(s0)
20015b2c:	00579713          	slli	a4,a5,0x5
20015b30:	200107b7          	lui	a5,0x20010
20015b34:	69c78793          	addi	a5,a5,1692 # 2001069c <pll_configs>
20015b38:	97ba                	add	a5,a5,a4
20015b3a:	863e                	mv	a2,a5
20015b3c:	fd442583          	lw	a1,-44(s0)
20015b40:	fd842503          	lw	a0,-40(s0)
20015b44:	d27ff0ef          	jal	ra,2001586a <configure_pll>
20015b48:	a811                	j	20015b5c <__metal_driver_sifive_fe310_g000_pll_set_rate_hz+0x142>
/home/jw/Desktop/sifive-standalone-project/freedom-metal/src/drivers/sifive_fe310-g000_pll.c:378
            __METAL_ACCESS_ONCE(pllcfg) |= PLL_BYPASS;
20015b4a:	fd842783          	lw	a5,-40(s0)
20015b4e:	4398                	lw	a4,0(a5)
20015b50:	000407b7          	lui	a5,0x40
20015b54:	8f5d                	or	a4,a4,a5
20015b56:	fd842783          	lw	a5,-40(s0)
20015b5a:	c398                	sw	a4,0(a5)
/home/jw/Desktop/sifive-standalone-project/freedom-metal/src/drivers/sifive_fe310-g000_pll.c:383
    __METAL_ACCESS_ONCE(pllcfg) |= PLL_SEL;
20015b5c:	fd842783          	lw	a5,-40(s0)
20015b60:	4398                	lw	a4,0(a5)
20015b62:	67c1                	lui	a5,0x10
20015b64:	8f5d                	or	a4,a4,a5
20015b66:	fd842783          	lw	a5,-40(s0)
20015b6a:	c398                	sw	a4,0(a5)
/home/jw/Desktop/sifive-standalone-project/freedom-metal/src/drivers/sifive_fe310-g000_pll.c:385
    return __metal_driver_sifive_fe310_g000_pll_get_rate_hz(clock);
20015b6c:	fbc42503          	lw	a0,-68(s0)
20015b70:	adfff0ef          	jal	ra,2001564e <__metal_driver_sifive_fe310_g000_pll_get_rate_hz>
20015b74:	87aa                	mv	a5,a0
/home/jw/Desktop/sifive-standalone-project/freedom-metal/src/drivers/sifive_fe310-g000_pll.c:386
}
20015b76:	853e                	mv	a0,a5
20015b78:	40b6                	lw	ra,76(sp)
20015b7a:	4426                	lw	s0,72(sp)
20015b7c:	6161                	addi	sp,sp,80
20015b7e:	8082                	ret

20015b80 <__metal_driver_sifive_fe310_g000_prci_base>:
__metal_driver_sifive_fe310_g000_prci_base():
/home/jw/Desktop/sifive-standalone-project/bsp/build/debug/./metal/machine.h:1370
{
20015b80:	1141                	addi	sp,sp,-16
20015b82:	c622                	sw	s0,12(sp)
20015b84:	0800                	addi	s0,sp,16
/home/jw/Desktop/sifive-standalone-project/bsp/build/debug/./metal/machine.h:1371
		return METAL_SIFIVE_FE310_G000_PRCI_10008000_BASE_ADDRESS;
20015b86:	100087b7          	lui	a5,0x10008
/home/jw/Desktop/sifive-standalone-project/bsp/build/debug/./metal/machine.h:1372
}
20015b8a:	853e                	mv	a0,a5
20015b8c:	4432                	lw	s0,12(sp)
20015b8e:	0141                	addi	sp,sp,16
20015b90:	8082                	ret

20015b92 <__metal_driver_sifive_fe310_g000_prci_get_reg>:
__metal_driver_sifive_fe310_g000_prci_get_reg():
/home/jw/Desktop/sifive-standalone-project/freedom-metal/src/drivers/sifive_fe310-g000_prci.c:12

#include <metal/drivers/sifive_fe310-g000_prci.h>
#include <metal/machine.h>

long __metal_driver_sifive_fe310_g000_prci_get_reg(
    const struct __metal_driver_sifive_fe310_g000_prci *prci, long offset) {
20015b92:	7179                	addi	sp,sp,-48
20015b94:	d606                	sw	ra,44(sp)
20015b96:	d422                	sw	s0,40(sp)
20015b98:	1800                	addi	s0,sp,48
20015b9a:	fca42e23          	sw	a0,-36(s0)
20015b9e:	fcb42c23          	sw	a1,-40(s0)
/home/jw/Desktop/sifive-standalone-project/freedom-metal/src/drivers/sifive_fe310-g000_prci.c:13
    unsigned long base = __metal_driver_sifive_fe310_g000_prci_base();
20015ba2:	3ff9                	jal	20015b80 <__metal_driver_sifive_fe310_g000_prci_base>
20015ba4:	87aa                	mv	a5,a0
20015ba6:	fef42623          	sw	a5,-20(s0)
/home/jw/Desktop/sifive-standalone-project/freedom-metal/src/drivers/sifive_fe310-g000_prci.c:14
    return __METAL_ACCESS_ONCE((__metal_io_u32 *)(base + offset));
20015baa:	fd842703          	lw	a4,-40(s0)
20015bae:	fec42783          	lw	a5,-20(s0)
20015bb2:	97ba                	add	a5,a5,a4
20015bb4:	439c                	lw	a5,0(a5)
/home/jw/Desktop/sifive-standalone-project/freedom-metal/src/drivers/sifive_fe310-g000_prci.c:15
}
20015bb6:	853e                	mv	a0,a5
20015bb8:	50b2                	lw	ra,44(sp)
20015bba:	5422                	lw	s0,40(sp)
20015bbc:	6145                	addi	sp,sp,48
20015bbe:	8082                	ret

20015bc0 <__metal_driver_sifive_fe310_g000_prci_set_reg>:
__metal_driver_sifive_fe310_g000_prci_set_reg():
/home/jw/Desktop/sifive-standalone-project/freedom-metal/src/drivers/sifive_fe310-g000_prci.c:19

long __metal_driver_sifive_fe310_g000_prci_set_reg(
    const struct __metal_driver_sifive_fe310_g000_prci *prci, long offset,
    long value) {
20015bc0:	7179                	addi	sp,sp,-48
20015bc2:	d606                	sw	ra,44(sp)
20015bc4:	d422                	sw	s0,40(sp)
20015bc6:	1800                	addi	s0,sp,48
20015bc8:	fca42e23          	sw	a0,-36(s0)
20015bcc:	fcb42c23          	sw	a1,-40(s0)
20015bd0:	fcc42a23          	sw	a2,-44(s0)
/home/jw/Desktop/sifive-standalone-project/freedom-metal/src/drivers/sifive_fe310-g000_prci.c:20
    unsigned long base = __metal_driver_sifive_fe310_g000_prci_base();
20015bd4:	3775                	jal	20015b80 <__metal_driver_sifive_fe310_g000_prci_base>
20015bd6:	87aa                	mv	a5,a0
20015bd8:	fef42623          	sw	a5,-20(s0)
/home/jw/Desktop/sifive-standalone-project/freedom-metal/src/drivers/sifive_fe310-g000_prci.c:21
    return __METAL_ACCESS_ONCE((__metal_io_u32 *)(base + offset)) = value;
20015bdc:	fd842703          	lw	a4,-40(s0)
20015be0:	fec42783          	lw	a5,-20(s0)
20015be4:	97ba                	add	a5,a5,a4
20015be6:	873e                	mv	a4,a5
20015be8:	fd442783          	lw	a5,-44(s0)
20015bec:	c31c                	sw	a5,0(a4)
/home/jw/Desktop/sifive-standalone-project/freedom-metal/src/drivers/sifive_fe310-g000_prci.c:22
}
20015bee:	853e                	mv	a0,a5
20015bf0:	50b2                	lw	ra,44(sp)
20015bf2:	5422                	lw	s0,40(sp)
20015bf4:	6145                	addi	sp,sp,48
20015bf6:	8082                	ret

20015bf8 <__metal_driver_sifive_gpio0_base>:
__metal_driver_sifive_gpio0_base():
/home/jw/Desktop/sifive-standalone-project/bsp/build/debug/./metal/machine.h:430
{
20015bf8:	1101                	addi	sp,sp,-32
20015bfa:	ce22                	sw	s0,28(sp)
20015bfc:	1000                	addi	s0,sp,32
20015bfe:	fea42623          	sw	a0,-20(s0)
/home/jw/Desktop/sifive-standalone-project/bsp/build/debug/./metal/machine.h:431
	if ((uintptr_t)gpio == (uintptr_t)&__metal_dt_gpio_10012000) {
20015c02:	fec42703          	lw	a4,-20(s0)
20015c06:	81c18793          	addi	a5,gp,-2020 # 80000abc <__metal_dt_gpio_10012000>
20015c0a:	00f71563          	bne	a4,a5,20015c14 <__metal_driver_sifive_gpio0_base+0x1c>
/home/jw/Desktop/sifive-standalone-project/bsp/build/debug/./metal/machine.h:432
		return METAL_SIFIVE_GPIO0_10012000_BASE_ADDRESS;
20015c0e:	100127b7          	lui	a5,0x10012
20015c12:	a011                	j	20015c16 <__metal_driver_sifive_gpio0_base+0x1e>
/home/jw/Desktop/sifive-standalone-project/bsp/build/debug/./metal/machine.h:435
		return 0;
20015c14:	4781                	li	a5,0
/home/jw/Desktop/sifive-standalone-project/bsp/build/debug/./metal/machine.h:437
}
20015c16:	853e                	mv	a0,a5
20015c18:	4472                	lw	s0,28(sp)
20015c1a:	6105                	addi	sp,sp,32
20015c1c:	8082                	ret

20015c1e <__metal_driver_sifive_gpio0_interrupt_parent>:
__metal_driver_sifive_gpio0_interrupt_parent():
/home/jw/Desktop/sifive-standalone-project/bsp/build/debug/./metal/machine.h:460
{
20015c1e:	1101                	addi	sp,sp,-32
20015c20:	ce22                	sw	s0,28(sp)
20015c22:	1000                	addi	s0,sp,32
20015c24:	fea42623          	sw	a0,-20(s0)
/home/jw/Desktop/sifive-standalone-project/bsp/build/debug/./metal/machine.h:461
	if ((uintptr_t)gpio == (uintptr_t)&__metal_dt_gpio_10012000) {
20015c28:	fec42703          	lw	a4,-20(s0)
20015c2c:	81c18793          	addi	a5,gp,-2020 # 80000abc <__metal_dt_gpio_10012000>
20015c30:	00f71763          	bne	a4,a5,20015c3e <__metal_driver_sifive_gpio0_interrupt_parent+0x20>
/home/jw/Desktop/sifive-standalone-project/bsp/build/debug/./metal/machine.h:462
		return (struct metal_interrupt *)&__metal_dt_interrupt_controller_c000000.controller;
20015c34:	800007b7          	lui	a5,0x80000
20015c38:	46078793          	addi	a5,a5,1120 # 80000460 <metal_segment_heap_target_end+0xffffecf0>
20015c3c:	a011                	j	20015c40 <__metal_driver_sifive_gpio0_interrupt_parent+0x22>
/home/jw/Desktop/sifive-standalone-project/bsp/build/debug/./metal/machine.h:465
		return 0;
20015c3e:	4781                	li	a5,0
/home/jw/Desktop/sifive-standalone-project/bsp/build/debug/./metal/machine.h:467
}
20015c40:	853e                	mv	a0,a5
20015c42:	4472                	lw	s0,28(sp)
20015c44:	6105                	addi	sp,sp,32
20015c46:	8082                	ret

20015c48 <__metal_driver_sifive_gpio0_interrupt_lines>:
__metal_driver_sifive_gpio0_interrupt_lines():
/home/jw/Desktop/sifive-standalone-project/bsp/build/debug/./metal/machine.h:470
{
20015c48:	1101                	addi	sp,sp,-32
20015c4a:	ce22                	sw	s0,28(sp)
20015c4c:	1000                	addi	s0,sp,32
20015c4e:	fea42623          	sw	a0,-20(s0)
20015c52:	feb42423          	sw	a1,-24(s0)
/home/jw/Desktop/sifive-standalone-project/bsp/build/debug/./metal/machine.h:471
	if (((uintptr_t)gpio == (uintptr_t)&__metal_dt_gpio_10012000) && (idx == 0)) {
20015c56:	fec42703          	lw	a4,-20(s0)
20015c5a:	81c18793          	addi	a5,gp,-2020 # 80000abc <__metal_dt_gpio_10012000>
20015c5e:	00f71763          	bne	a4,a5,20015c6c <__metal_driver_sifive_gpio0_interrupt_lines+0x24>
/home/jw/Desktop/sifive-standalone-project/bsp/build/debug/./metal/machine.h:471 (discriminator 1)
20015c62:	fe842783          	lw	a5,-24(s0)
20015c66:	e399                	bnez	a5,20015c6c <__metal_driver_sifive_gpio0_interrupt_lines+0x24>
/home/jw/Desktop/sifive-standalone-project/bsp/build/debug/./metal/machine.h:472
		return 8;
20015c68:	47a1                	li	a5,8
20015c6a:	ae15                	j	20015f9e <__metal_driver_sifive_gpio0_interrupt_lines+0x356>
/home/jw/Desktop/sifive-standalone-project/bsp/build/debug/./metal/machine.h:474
	else if ((((uintptr_t)gpio == (uintptr_t)&__metal_dt_gpio_10012000) && (idx == 1))) {
20015c6c:	fec42703          	lw	a4,-20(s0)
20015c70:	81c18793          	addi	a5,gp,-2020 # 80000abc <__metal_dt_gpio_10012000>
20015c74:	00f71963          	bne	a4,a5,20015c86 <__metal_driver_sifive_gpio0_interrupt_lines+0x3e>
/home/jw/Desktop/sifive-standalone-project/bsp/build/debug/./metal/machine.h:474 (discriminator 1)
20015c78:	fe842703          	lw	a4,-24(s0)
20015c7c:	4785                	li	a5,1
20015c7e:	00f71463          	bne	a4,a5,20015c86 <__metal_driver_sifive_gpio0_interrupt_lines+0x3e>
/home/jw/Desktop/sifive-standalone-project/bsp/build/debug/./metal/machine.h:475
		return 9;
20015c82:	47a5                	li	a5,9
20015c84:	ae29                	j	20015f9e <__metal_driver_sifive_gpio0_interrupt_lines+0x356>
/home/jw/Desktop/sifive-standalone-project/bsp/build/debug/./metal/machine.h:477
	else if ((((uintptr_t)gpio == (uintptr_t)&__metal_dt_gpio_10012000) && (idx == 2))) {
20015c86:	fec42703          	lw	a4,-20(s0)
20015c8a:	81c18793          	addi	a5,gp,-2020 # 80000abc <__metal_dt_gpio_10012000>
20015c8e:	00f71963          	bne	a4,a5,20015ca0 <__metal_driver_sifive_gpio0_interrupt_lines+0x58>
/home/jw/Desktop/sifive-standalone-project/bsp/build/debug/./metal/machine.h:477 (discriminator 1)
20015c92:	fe842703          	lw	a4,-24(s0)
20015c96:	4789                	li	a5,2
20015c98:	00f71463          	bne	a4,a5,20015ca0 <__metal_driver_sifive_gpio0_interrupt_lines+0x58>
/home/jw/Desktop/sifive-standalone-project/bsp/build/debug/./metal/machine.h:478
		return 10;
20015c9c:	47a9                	li	a5,10
20015c9e:	a601                	j	20015f9e <__metal_driver_sifive_gpio0_interrupt_lines+0x356>
/home/jw/Desktop/sifive-standalone-project/bsp/build/debug/./metal/machine.h:480
	else if ((((uintptr_t)gpio == (uintptr_t)&__metal_dt_gpio_10012000) && (idx == 3))) {
20015ca0:	fec42703          	lw	a4,-20(s0)
20015ca4:	81c18793          	addi	a5,gp,-2020 # 80000abc <__metal_dt_gpio_10012000>
20015ca8:	00f71963          	bne	a4,a5,20015cba <__metal_driver_sifive_gpio0_interrupt_lines+0x72>
/home/jw/Desktop/sifive-standalone-project/bsp/build/debug/./metal/machine.h:480 (discriminator 1)
20015cac:	fe842703          	lw	a4,-24(s0)
20015cb0:	478d                	li	a5,3
20015cb2:	00f71463          	bne	a4,a5,20015cba <__metal_driver_sifive_gpio0_interrupt_lines+0x72>
/home/jw/Desktop/sifive-standalone-project/bsp/build/debug/./metal/machine.h:481
		return 11;
20015cb6:	47ad                	li	a5,11
20015cb8:	a4dd                	j	20015f9e <__metal_driver_sifive_gpio0_interrupt_lines+0x356>
/home/jw/Desktop/sifive-standalone-project/bsp/build/debug/./metal/machine.h:483
	else if ((((uintptr_t)gpio == (uintptr_t)&__metal_dt_gpio_10012000) && (idx == 4))) {
20015cba:	fec42703          	lw	a4,-20(s0)
20015cbe:	81c18793          	addi	a5,gp,-2020 # 80000abc <__metal_dt_gpio_10012000>
20015cc2:	00f71963          	bne	a4,a5,20015cd4 <__metal_driver_sifive_gpio0_interrupt_lines+0x8c>
/home/jw/Desktop/sifive-standalone-project/bsp/build/debug/./metal/machine.h:483 (discriminator 1)
20015cc6:	fe842703          	lw	a4,-24(s0)
20015cca:	4791                	li	a5,4
20015ccc:	00f71463          	bne	a4,a5,20015cd4 <__metal_driver_sifive_gpio0_interrupt_lines+0x8c>
/home/jw/Desktop/sifive-standalone-project/bsp/build/debug/./metal/machine.h:484
		return 12;
20015cd0:	47b1                	li	a5,12
20015cd2:	a4f1                	j	20015f9e <__metal_driver_sifive_gpio0_interrupt_lines+0x356>
/home/jw/Desktop/sifive-standalone-project/bsp/build/debug/./metal/machine.h:486
	else if ((((uintptr_t)gpio == (uintptr_t)&__metal_dt_gpio_10012000) && (idx == 5))) {
20015cd4:	fec42703          	lw	a4,-20(s0)
20015cd8:	81c18793          	addi	a5,gp,-2020 # 80000abc <__metal_dt_gpio_10012000>
20015cdc:	00f71963          	bne	a4,a5,20015cee <__metal_driver_sifive_gpio0_interrupt_lines+0xa6>
/home/jw/Desktop/sifive-standalone-project/bsp/build/debug/./metal/machine.h:486 (discriminator 1)
20015ce0:	fe842703          	lw	a4,-24(s0)
20015ce4:	4795                	li	a5,5
20015ce6:	00f71463          	bne	a4,a5,20015cee <__metal_driver_sifive_gpio0_interrupt_lines+0xa6>
/home/jw/Desktop/sifive-standalone-project/bsp/build/debug/./metal/machine.h:487
		return 13;
20015cea:	47b5                	li	a5,13
20015cec:	ac4d                	j	20015f9e <__metal_driver_sifive_gpio0_interrupt_lines+0x356>
/home/jw/Desktop/sifive-standalone-project/bsp/build/debug/./metal/machine.h:489
	else if ((((uintptr_t)gpio == (uintptr_t)&__metal_dt_gpio_10012000) && (idx == 6))) {
20015cee:	fec42703          	lw	a4,-20(s0)
20015cf2:	81c18793          	addi	a5,gp,-2020 # 80000abc <__metal_dt_gpio_10012000>
20015cf6:	00f71963          	bne	a4,a5,20015d08 <__metal_driver_sifive_gpio0_interrupt_lines+0xc0>
/home/jw/Desktop/sifive-standalone-project/bsp/build/debug/./metal/machine.h:489 (discriminator 1)
20015cfa:	fe842703          	lw	a4,-24(s0)
20015cfe:	4799                	li	a5,6
20015d00:	00f71463          	bne	a4,a5,20015d08 <__metal_driver_sifive_gpio0_interrupt_lines+0xc0>
/home/jw/Desktop/sifive-standalone-project/bsp/build/debug/./metal/machine.h:490
		return 14;
20015d04:	47b9                	li	a5,14
20015d06:	ac61                	j	20015f9e <__metal_driver_sifive_gpio0_interrupt_lines+0x356>
/home/jw/Desktop/sifive-standalone-project/bsp/build/debug/./metal/machine.h:492
	else if ((((uintptr_t)gpio == (uintptr_t)&__metal_dt_gpio_10012000) && (idx == 7))) {
20015d08:	fec42703          	lw	a4,-20(s0)
20015d0c:	81c18793          	addi	a5,gp,-2020 # 80000abc <__metal_dt_gpio_10012000>
20015d10:	00f71963          	bne	a4,a5,20015d22 <__metal_driver_sifive_gpio0_interrupt_lines+0xda>
/home/jw/Desktop/sifive-standalone-project/bsp/build/debug/./metal/machine.h:492 (discriminator 1)
20015d14:	fe842703          	lw	a4,-24(s0)
20015d18:	479d                	li	a5,7
20015d1a:	00f71463          	bne	a4,a5,20015d22 <__metal_driver_sifive_gpio0_interrupt_lines+0xda>
/home/jw/Desktop/sifive-standalone-project/bsp/build/debug/./metal/machine.h:493
		return 15;
20015d1e:	47bd                	li	a5,15
20015d20:	acbd                	j	20015f9e <__metal_driver_sifive_gpio0_interrupt_lines+0x356>
/home/jw/Desktop/sifive-standalone-project/bsp/build/debug/./metal/machine.h:495
	else if ((((uintptr_t)gpio == (uintptr_t)&__metal_dt_gpio_10012000) && (idx == 8))) {
20015d22:	fec42703          	lw	a4,-20(s0)
20015d26:	81c18793          	addi	a5,gp,-2020 # 80000abc <__metal_dt_gpio_10012000>
20015d2a:	00f71963          	bne	a4,a5,20015d3c <__metal_driver_sifive_gpio0_interrupt_lines+0xf4>
/home/jw/Desktop/sifive-standalone-project/bsp/build/debug/./metal/machine.h:495 (discriminator 1)
20015d2e:	fe842703          	lw	a4,-24(s0)
20015d32:	47a1                	li	a5,8
20015d34:	00f71463          	bne	a4,a5,20015d3c <__metal_driver_sifive_gpio0_interrupt_lines+0xf4>
/home/jw/Desktop/sifive-standalone-project/bsp/build/debug/./metal/machine.h:496
		return 16;
20015d38:	47c1                	li	a5,16
20015d3a:	a495                	j	20015f9e <__metal_driver_sifive_gpio0_interrupt_lines+0x356>
/home/jw/Desktop/sifive-standalone-project/bsp/build/debug/./metal/machine.h:498
	else if ((((uintptr_t)gpio == (uintptr_t)&__metal_dt_gpio_10012000) && (idx == 9))) {
20015d3c:	fec42703          	lw	a4,-20(s0)
20015d40:	81c18793          	addi	a5,gp,-2020 # 80000abc <__metal_dt_gpio_10012000>
20015d44:	00f71963          	bne	a4,a5,20015d56 <__metal_driver_sifive_gpio0_interrupt_lines+0x10e>
/home/jw/Desktop/sifive-standalone-project/bsp/build/debug/./metal/machine.h:498 (discriminator 1)
20015d48:	fe842703          	lw	a4,-24(s0)
20015d4c:	47a5                	li	a5,9
20015d4e:	00f71463          	bne	a4,a5,20015d56 <__metal_driver_sifive_gpio0_interrupt_lines+0x10e>
/home/jw/Desktop/sifive-standalone-project/bsp/build/debug/./metal/machine.h:499
		return 17;
20015d52:	47c5                	li	a5,17
20015d54:	a4a9                	j	20015f9e <__metal_driver_sifive_gpio0_interrupt_lines+0x356>
/home/jw/Desktop/sifive-standalone-project/bsp/build/debug/./metal/machine.h:501
	else if ((((uintptr_t)gpio == (uintptr_t)&__metal_dt_gpio_10012000) && (idx == 10))) {
20015d56:	fec42703          	lw	a4,-20(s0)
20015d5a:	81c18793          	addi	a5,gp,-2020 # 80000abc <__metal_dt_gpio_10012000>
20015d5e:	00f71963          	bne	a4,a5,20015d70 <__metal_driver_sifive_gpio0_interrupt_lines+0x128>
/home/jw/Desktop/sifive-standalone-project/bsp/build/debug/./metal/machine.h:501 (discriminator 1)
20015d62:	fe842703          	lw	a4,-24(s0)
20015d66:	47a9                	li	a5,10
20015d68:	00f71463          	bne	a4,a5,20015d70 <__metal_driver_sifive_gpio0_interrupt_lines+0x128>
/home/jw/Desktop/sifive-standalone-project/bsp/build/debug/./metal/machine.h:502
		return 18;
20015d6c:	47c9                	li	a5,18
20015d6e:	ac05                	j	20015f9e <__metal_driver_sifive_gpio0_interrupt_lines+0x356>
/home/jw/Desktop/sifive-standalone-project/bsp/build/debug/./metal/machine.h:504
	else if ((((uintptr_t)gpio == (uintptr_t)&__metal_dt_gpio_10012000) && (idx == 11))) {
20015d70:	fec42703          	lw	a4,-20(s0)
20015d74:	81c18793          	addi	a5,gp,-2020 # 80000abc <__metal_dt_gpio_10012000>
20015d78:	00f71963          	bne	a4,a5,20015d8a <__metal_driver_sifive_gpio0_interrupt_lines+0x142>
/home/jw/Desktop/sifive-standalone-project/bsp/build/debug/./metal/machine.h:504 (discriminator 1)
20015d7c:	fe842703          	lw	a4,-24(s0)
20015d80:	47ad                	li	a5,11
20015d82:	00f71463          	bne	a4,a5,20015d8a <__metal_driver_sifive_gpio0_interrupt_lines+0x142>
/home/jw/Desktop/sifive-standalone-project/bsp/build/debug/./metal/machine.h:505
		return 19;
20015d86:	47cd                	li	a5,19
20015d88:	ac19                	j	20015f9e <__metal_driver_sifive_gpio0_interrupt_lines+0x356>
/home/jw/Desktop/sifive-standalone-project/bsp/build/debug/./metal/machine.h:507
	else if ((((uintptr_t)gpio == (uintptr_t)&__metal_dt_gpio_10012000) && (idx == 12))) {
20015d8a:	fec42703          	lw	a4,-20(s0)
20015d8e:	81c18793          	addi	a5,gp,-2020 # 80000abc <__metal_dt_gpio_10012000>
20015d92:	00f71963          	bne	a4,a5,20015da4 <__metal_driver_sifive_gpio0_interrupt_lines+0x15c>
/home/jw/Desktop/sifive-standalone-project/bsp/build/debug/./metal/machine.h:507 (discriminator 1)
20015d96:	fe842703          	lw	a4,-24(s0)
20015d9a:	47b1                	li	a5,12
20015d9c:	00f71463          	bne	a4,a5,20015da4 <__metal_driver_sifive_gpio0_interrupt_lines+0x15c>
/home/jw/Desktop/sifive-standalone-project/bsp/build/debug/./metal/machine.h:508
		return 20;
20015da0:	47d1                	li	a5,20
20015da2:	aaf5                	j	20015f9e <__metal_driver_sifive_gpio0_interrupt_lines+0x356>
/home/jw/Desktop/sifive-standalone-project/bsp/build/debug/./metal/machine.h:510
	else if ((((uintptr_t)gpio == (uintptr_t)&__metal_dt_gpio_10012000) && (idx == 13))) {
20015da4:	fec42703          	lw	a4,-20(s0)
20015da8:	81c18793          	addi	a5,gp,-2020 # 80000abc <__metal_dt_gpio_10012000>
20015dac:	00f71963          	bne	a4,a5,20015dbe <__metal_driver_sifive_gpio0_interrupt_lines+0x176>
/home/jw/Desktop/sifive-standalone-project/bsp/build/debug/./metal/machine.h:510 (discriminator 1)
20015db0:	fe842703          	lw	a4,-24(s0)
20015db4:	47b5                	li	a5,13
20015db6:	00f71463          	bne	a4,a5,20015dbe <__metal_driver_sifive_gpio0_interrupt_lines+0x176>
/home/jw/Desktop/sifive-standalone-project/bsp/build/debug/./metal/machine.h:511
		return 21;
20015dba:	47d5                	li	a5,21
20015dbc:	a2cd                	j	20015f9e <__metal_driver_sifive_gpio0_interrupt_lines+0x356>
/home/jw/Desktop/sifive-standalone-project/bsp/build/debug/./metal/machine.h:513
	else if ((((uintptr_t)gpio == (uintptr_t)&__metal_dt_gpio_10012000) && (idx == 14))) {
20015dbe:	fec42703          	lw	a4,-20(s0)
20015dc2:	81c18793          	addi	a5,gp,-2020 # 80000abc <__metal_dt_gpio_10012000>
20015dc6:	00f71963          	bne	a4,a5,20015dd8 <__metal_driver_sifive_gpio0_interrupt_lines+0x190>
/home/jw/Desktop/sifive-standalone-project/bsp/build/debug/./metal/machine.h:513 (discriminator 1)
20015dca:	fe842703          	lw	a4,-24(s0)
20015dce:	47b9                	li	a5,14
20015dd0:	00f71463          	bne	a4,a5,20015dd8 <__metal_driver_sifive_gpio0_interrupt_lines+0x190>
/home/jw/Desktop/sifive-standalone-project/bsp/build/debug/./metal/machine.h:514
		return 22;
20015dd4:	47d9                	li	a5,22
20015dd6:	a2e1                	j	20015f9e <__metal_driver_sifive_gpio0_interrupt_lines+0x356>
/home/jw/Desktop/sifive-standalone-project/bsp/build/debug/./metal/machine.h:516
	else if ((((uintptr_t)gpio == (uintptr_t)&__metal_dt_gpio_10012000) && (idx == 15))) {
20015dd8:	fec42703          	lw	a4,-20(s0)
20015ddc:	81c18793          	addi	a5,gp,-2020 # 80000abc <__metal_dt_gpio_10012000>
20015de0:	00f71963          	bne	a4,a5,20015df2 <__metal_driver_sifive_gpio0_interrupt_lines+0x1aa>
/home/jw/Desktop/sifive-standalone-project/bsp/build/debug/./metal/machine.h:516 (discriminator 1)
20015de4:	fe842703          	lw	a4,-24(s0)
20015de8:	47bd                	li	a5,15
20015dea:	00f71463          	bne	a4,a5,20015df2 <__metal_driver_sifive_gpio0_interrupt_lines+0x1aa>
/home/jw/Desktop/sifive-standalone-project/bsp/build/debug/./metal/machine.h:517
		return 23;
20015dee:	47dd                	li	a5,23
20015df0:	a27d                	j	20015f9e <__metal_driver_sifive_gpio0_interrupt_lines+0x356>
/home/jw/Desktop/sifive-standalone-project/bsp/build/debug/./metal/machine.h:519
	else if ((((uintptr_t)gpio == (uintptr_t)&__metal_dt_gpio_10012000) && (idx == 16))) {
20015df2:	fec42703          	lw	a4,-20(s0)
20015df6:	81c18793          	addi	a5,gp,-2020 # 80000abc <__metal_dt_gpio_10012000>
20015dfa:	00f71963          	bne	a4,a5,20015e0c <__metal_driver_sifive_gpio0_interrupt_lines+0x1c4>
/home/jw/Desktop/sifive-standalone-project/bsp/build/debug/./metal/machine.h:519 (discriminator 1)
20015dfe:	fe842703          	lw	a4,-24(s0)
20015e02:	47c1                	li	a5,16
20015e04:	00f71463          	bne	a4,a5,20015e0c <__metal_driver_sifive_gpio0_interrupt_lines+0x1c4>
/home/jw/Desktop/sifive-standalone-project/bsp/build/debug/./metal/machine.h:520
		return 24;
20015e08:	47e1                	li	a5,24
20015e0a:	aa51                	j	20015f9e <__metal_driver_sifive_gpio0_interrupt_lines+0x356>
/home/jw/Desktop/sifive-standalone-project/bsp/build/debug/./metal/machine.h:522
	else if ((((uintptr_t)gpio == (uintptr_t)&__metal_dt_gpio_10012000) && (idx == 17))) {
20015e0c:	fec42703          	lw	a4,-20(s0)
20015e10:	81c18793          	addi	a5,gp,-2020 # 80000abc <__metal_dt_gpio_10012000>
20015e14:	00f71963          	bne	a4,a5,20015e26 <__metal_driver_sifive_gpio0_interrupt_lines+0x1de>
/home/jw/Desktop/sifive-standalone-project/bsp/build/debug/./metal/machine.h:522 (discriminator 1)
20015e18:	fe842703          	lw	a4,-24(s0)
20015e1c:	47c5                	li	a5,17
20015e1e:	00f71463          	bne	a4,a5,20015e26 <__metal_driver_sifive_gpio0_interrupt_lines+0x1de>
/home/jw/Desktop/sifive-standalone-project/bsp/build/debug/./metal/machine.h:523
		return 25;
20015e22:	47e5                	li	a5,25
20015e24:	aaad                	j	20015f9e <__metal_driver_sifive_gpio0_interrupt_lines+0x356>
/home/jw/Desktop/sifive-standalone-project/bsp/build/debug/./metal/machine.h:525
	else if ((((uintptr_t)gpio == (uintptr_t)&__metal_dt_gpio_10012000) && (idx == 18))) {
20015e26:	fec42703          	lw	a4,-20(s0)
20015e2a:	81c18793          	addi	a5,gp,-2020 # 80000abc <__metal_dt_gpio_10012000>
20015e2e:	00f71963          	bne	a4,a5,20015e40 <__metal_driver_sifive_gpio0_interrupt_lines+0x1f8>
/home/jw/Desktop/sifive-standalone-project/bsp/build/debug/./metal/machine.h:525 (discriminator 1)
20015e32:	fe842703          	lw	a4,-24(s0)
20015e36:	47c9                	li	a5,18
20015e38:	00f71463          	bne	a4,a5,20015e40 <__metal_driver_sifive_gpio0_interrupt_lines+0x1f8>
/home/jw/Desktop/sifive-standalone-project/bsp/build/debug/./metal/machine.h:526
		return 26;
20015e3c:	47e9                	li	a5,26
20015e3e:	a285                	j	20015f9e <__metal_driver_sifive_gpio0_interrupt_lines+0x356>
/home/jw/Desktop/sifive-standalone-project/bsp/build/debug/./metal/machine.h:528
	else if ((((uintptr_t)gpio == (uintptr_t)&__metal_dt_gpio_10012000) && (idx == 19))) {
20015e40:	fec42703          	lw	a4,-20(s0)
20015e44:	81c18793          	addi	a5,gp,-2020 # 80000abc <__metal_dt_gpio_10012000>
20015e48:	00f71963          	bne	a4,a5,20015e5a <__metal_driver_sifive_gpio0_interrupt_lines+0x212>
/home/jw/Desktop/sifive-standalone-project/bsp/build/debug/./metal/machine.h:528 (discriminator 1)
20015e4c:	fe842703          	lw	a4,-24(s0)
20015e50:	47cd                	li	a5,19
20015e52:	00f71463          	bne	a4,a5,20015e5a <__metal_driver_sifive_gpio0_interrupt_lines+0x212>
/home/jw/Desktop/sifive-standalone-project/bsp/build/debug/./metal/machine.h:529
		return 27;
20015e56:	47ed                	li	a5,27
20015e58:	a299                	j	20015f9e <__metal_driver_sifive_gpio0_interrupt_lines+0x356>
/home/jw/Desktop/sifive-standalone-project/bsp/build/debug/./metal/machine.h:531
	else if ((((uintptr_t)gpio == (uintptr_t)&__metal_dt_gpio_10012000) && (idx == 20))) {
20015e5a:	fec42703          	lw	a4,-20(s0)
20015e5e:	81c18793          	addi	a5,gp,-2020 # 80000abc <__metal_dt_gpio_10012000>
20015e62:	00f71963          	bne	a4,a5,20015e74 <__metal_driver_sifive_gpio0_interrupt_lines+0x22c>
/home/jw/Desktop/sifive-standalone-project/bsp/build/debug/./metal/machine.h:531 (discriminator 1)
20015e66:	fe842703          	lw	a4,-24(s0)
20015e6a:	47d1                	li	a5,20
20015e6c:	00f71463          	bne	a4,a5,20015e74 <__metal_driver_sifive_gpio0_interrupt_lines+0x22c>
/home/jw/Desktop/sifive-standalone-project/bsp/build/debug/./metal/machine.h:532
		return 28;
20015e70:	47f1                	li	a5,28
20015e72:	a235                	j	20015f9e <__metal_driver_sifive_gpio0_interrupt_lines+0x356>
/home/jw/Desktop/sifive-standalone-project/bsp/build/debug/./metal/machine.h:534
	else if ((((uintptr_t)gpio == (uintptr_t)&__metal_dt_gpio_10012000) && (idx == 21))) {
20015e74:	fec42703          	lw	a4,-20(s0)
20015e78:	81c18793          	addi	a5,gp,-2020 # 80000abc <__metal_dt_gpio_10012000>
20015e7c:	00f71963          	bne	a4,a5,20015e8e <__metal_driver_sifive_gpio0_interrupt_lines+0x246>
/home/jw/Desktop/sifive-standalone-project/bsp/build/debug/./metal/machine.h:534 (discriminator 1)
20015e80:	fe842703          	lw	a4,-24(s0)
20015e84:	47d5                	li	a5,21
20015e86:	00f71463          	bne	a4,a5,20015e8e <__metal_driver_sifive_gpio0_interrupt_lines+0x246>
/home/jw/Desktop/sifive-standalone-project/bsp/build/debug/./metal/machine.h:535
		return 29;
20015e8a:	47f5                	li	a5,29
20015e8c:	aa09                	j	20015f9e <__metal_driver_sifive_gpio0_interrupt_lines+0x356>
/home/jw/Desktop/sifive-standalone-project/bsp/build/debug/./metal/machine.h:537
	else if ((((uintptr_t)gpio == (uintptr_t)&__metal_dt_gpio_10012000) && (idx == 22))) {
20015e8e:	fec42703          	lw	a4,-20(s0)
20015e92:	81c18793          	addi	a5,gp,-2020 # 80000abc <__metal_dt_gpio_10012000>
20015e96:	00f71963          	bne	a4,a5,20015ea8 <__metal_driver_sifive_gpio0_interrupt_lines+0x260>
/home/jw/Desktop/sifive-standalone-project/bsp/build/debug/./metal/machine.h:537 (discriminator 1)
20015e9a:	fe842703          	lw	a4,-24(s0)
20015e9e:	47d9                	li	a5,22
20015ea0:	00f71463          	bne	a4,a5,20015ea8 <__metal_driver_sifive_gpio0_interrupt_lines+0x260>
/home/jw/Desktop/sifive-standalone-project/bsp/build/debug/./metal/machine.h:538
		return 30;
20015ea4:	47f9                	li	a5,30
20015ea6:	a8e5                	j	20015f9e <__metal_driver_sifive_gpio0_interrupt_lines+0x356>
/home/jw/Desktop/sifive-standalone-project/bsp/build/debug/./metal/machine.h:540
	else if ((((uintptr_t)gpio == (uintptr_t)&__metal_dt_gpio_10012000) && (idx == 23))) {
20015ea8:	fec42703          	lw	a4,-20(s0)
20015eac:	81c18793          	addi	a5,gp,-2020 # 80000abc <__metal_dt_gpio_10012000>
20015eb0:	00f71963          	bne	a4,a5,20015ec2 <__metal_driver_sifive_gpio0_interrupt_lines+0x27a>
/home/jw/Desktop/sifive-standalone-project/bsp/build/debug/./metal/machine.h:540 (discriminator 1)
20015eb4:	fe842703          	lw	a4,-24(s0)
20015eb8:	47dd                	li	a5,23
20015eba:	00f71463          	bne	a4,a5,20015ec2 <__metal_driver_sifive_gpio0_interrupt_lines+0x27a>
/home/jw/Desktop/sifive-standalone-project/bsp/build/debug/./metal/machine.h:541
		return 31;
20015ebe:	47fd                	li	a5,31
20015ec0:	a8f9                	j	20015f9e <__metal_driver_sifive_gpio0_interrupt_lines+0x356>
/home/jw/Desktop/sifive-standalone-project/bsp/build/debug/./metal/machine.h:543
	else if ((((uintptr_t)gpio == (uintptr_t)&__metal_dt_gpio_10012000) && (idx == 24))) {
20015ec2:	fec42703          	lw	a4,-20(s0)
20015ec6:	81c18793          	addi	a5,gp,-2020 # 80000abc <__metal_dt_gpio_10012000>
20015eca:	00f71a63          	bne	a4,a5,20015ede <__metal_driver_sifive_gpio0_interrupt_lines+0x296>
/home/jw/Desktop/sifive-standalone-project/bsp/build/debug/./metal/machine.h:543 (discriminator 1)
20015ece:	fe842703          	lw	a4,-24(s0)
20015ed2:	47e1                	li	a5,24
20015ed4:	00f71563          	bne	a4,a5,20015ede <__metal_driver_sifive_gpio0_interrupt_lines+0x296>
/home/jw/Desktop/sifive-standalone-project/bsp/build/debug/./metal/machine.h:544
		return 32;
20015ed8:	02000793          	li	a5,32
20015edc:	a0c9                	j	20015f9e <__metal_driver_sifive_gpio0_interrupt_lines+0x356>
/home/jw/Desktop/sifive-standalone-project/bsp/build/debug/./metal/machine.h:546
	else if ((((uintptr_t)gpio == (uintptr_t)&__metal_dt_gpio_10012000) && (idx == 25))) {
20015ede:	fec42703          	lw	a4,-20(s0)
20015ee2:	81c18793          	addi	a5,gp,-2020 # 80000abc <__metal_dt_gpio_10012000>
20015ee6:	00f71a63          	bne	a4,a5,20015efa <__metal_driver_sifive_gpio0_interrupt_lines+0x2b2>
/home/jw/Desktop/sifive-standalone-project/bsp/build/debug/./metal/machine.h:546 (discriminator 1)
20015eea:	fe842703          	lw	a4,-24(s0)
20015eee:	47e5                	li	a5,25
20015ef0:	00f71563          	bne	a4,a5,20015efa <__metal_driver_sifive_gpio0_interrupt_lines+0x2b2>
/home/jw/Desktop/sifive-standalone-project/bsp/build/debug/./metal/machine.h:547
		return 33;
20015ef4:	02100793          	li	a5,33
20015ef8:	a05d                	j	20015f9e <__metal_driver_sifive_gpio0_interrupt_lines+0x356>
/home/jw/Desktop/sifive-standalone-project/bsp/build/debug/./metal/machine.h:549
	else if ((((uintptr_t)gpio == (uintptr_t)&__metal_dt_gpio_10012000) && (idx == 26))) {
20015efa:	fec42703          	lw	a4,-20(s0)
20015efe:	81c18793          	addi	a5,gp,-2020 # 80000abc <__metal_dt_gpio_10012000>
20015f02:	00f71a63          	bne	a4,a5,20015f16 <__metal_driver_sifive_gpio0_interrupt_lines+0x2ce>
/home/jw/Desktop/sifive-standalone-project/bsp/build/debug/./metal/machine.h:549 (discriminator 1)
20015f06:	fe842703          	lw	a4,-24(s0)
20015f0a:	47e9                	li	a5,26
20015f0c:	00f71563          	bne	a4,a5,20015f16 <__metal_driver_sifive_gpio0_interrupt_lines+0x2ce>
/home/jw/Desktop/sifive-standalone-project/bsp/build/debug/./metal/machine.h:550
		return 34;
20015f10:	02200793          	li	a5,34
20015f14:	a069                	j	20015f9e <__metal_driver_sifive_gpio0_interrupt_lines+0x356>
/home/jw/Desktop/sifive-standalone-project/bsp/build/debug/./metal/machine.h:552
	else if ((((uintptr_t)gpio == (uintptr_t)&__metal_dt_gpio_10012000) && (idx == 27))) {
20015f16:	fec42703          	lw	a4,-20(s0)
20015f1a:	81c18793          	addi	a5,gp,-2020 # 80000abc <__metal_dt_gpio_10012000>
20015f1e:	00f71a63          	bne	a4,a5,20015f32 <__metal_driver_sifive_gpio0_interrupt_lines+0x2ea>
/home/jw/Desktop/sifive-standalone-project/bsp/build/debug/./metal/machine.h:552 (discriminator 1)
20015f22:	fe842703          	lw	a4,-24(s0)
20015f26:	47ed                	li	a5,27
20015f28:	00f71563          	bne	a4,a5,20015f32 <__metal_driver_sifive_gpio0_interrupt_lines+0x2ea>
/home/jw/Desktop/sifive-standalone-project/bsp/build/debug/./metal/machine.h:553
		return 35;
20015f2c:	02300793          	li	a5,35
20015f30:	a0bd                	j	20015f9e <__metal_driver_sifive_gpio0_interrupt_lines+0x356>
/home/jw/Desktop/sifive-standalone-project/bsp/build/debug/./metal/machine.h:555
	else if ((((uintptr_t)gpio == (uintptr_t)&__metal_dt_gpio_10012000) && (idx == 28))) {
20015f32:	fec42703          	lw	a4,-20(s0)
20015f36:	81c18793          	addi	a5,gp,-2020 # 80000abc <__metal_dt_gpio_10012000>
20015f3a:	00f71a63          	bne	a4,a5,20015f4e <__metal_driver_sifive_gpio0_interrupt_lines+0x306>
/home/jw/Desktop/sifive-standalone-project/bsp/build/debug/./metal/machine.h:555 (discriminator 1)
20015f3e:	fe842703          	lw	a4,-24(s0)
20015f42:	47f1                	li	a5,28
20015f44:	00f71563          	bne	a4,a5,20015f4e <__metal_driver_sifive_gpio0_interrupt_lines+0x306>
/home/jw/Desktop/sifive-standalone-project/bsp/build/debug/./metal/machine.h:556
		return 36;
20015f48:	02400793          	li	a5,36
20015f4c:	a889                	j	20015f9e <__metal_driver_sifive_gpio0_interrupt_lines+0x356>
/home/jw/Desktop/sifive-standalone-project/bsp/build/debug/./metal/machine.h:558
	else if ((((uintptr_t)gpio == (uintptr_t)&__metal_dt_gpio_10012000) && (idx == 29))) {
20015f4e:	fec42703          	lw	a4,-20(s0)
20015f52:	81c18793          	addi	a5,gp,-2020 # 80000abc <__metal_dt_gpio_10012000>
20015f56:	00f71963          	bne	a4,a5,20015f68 <__metal_driver_sifive_gpio0_interrupt_lines+0x320>
/home/jw/Desktop/sifive-standalone-project/bsp/build/debug/./metal/machine.h:558 (discriminator 1)
20015f5a:	fe842703          	lw	a4,-24(s0)
20015f5e:	47f5                	li	a5,29
20015f60:	00f71463          	bne	a4,a5,20015f68 <__metal_driver_sifive_gpio0_interrupt_lines+0x320>
/home/jw/Desktop/sifive-standalone-project/bsp/build/debug/./metal/machine.h:559
		return 27;
20015f64:	47ed                	li	a5,27
20015f66:	a825                	j	20015f9e <__metal_driver_sifive_gpio0_interrupt_lines+0x356>
/home/jw/Desktop/sifive-standalone-project/bsp/build/debug/./metal/machine.h:561
	else if ((((uintptr_t)gpio == (uintptr_t)&__metal_dt_gpio_10012000) && (idx == 30))) {
20015f68:	fec42703          	lw	a4,-20(s0)
20015f6c:	81c18793          	addi	a5,gp,-2020 # 80000abc <__metal_dt_gpio_10012000>
20015f70:	00f71963          	bne	a4,a5,20015f82 <__metal_driver_sifive_gpio0_interrupt_lines+0x33a>
/home/jw/Desktop/sifive-standalone-project/bsp/build/debug/./metal/machine.h:561 (discriminator 1)
20015f74:	fe842703          	lw	a4,-24(s0)
20015f78:	47f9                	li	a5,30
20015f7a:	00f71463          	bne	a4,a5,20015f82 <__metal_driver_sifive_gpio0_interrupt_lines+0x33a>
/home/jw/Desktop/sifive-standalone-project/bsp/build/debug/./metal/machine.h:562
		return 28;
20015f7e:	47f1                	li	a5,28
20015f80:	a839                	j	20015f9e <__metal_driver_sifive_gpio0_interrupt_lines+0x356>
/home/jw/Desktop/sifive-standalone-project/bsp/build/debug/./metal/machine.h:564
	else if ((((uintptr_t)gpio == (uintptr_t)&__metal_dt_gpio_10012000) && (idx == 31))) {
20015f82:	fec42703          	lw	a4,-20(s0)
20015f86:	81c18793          	addi	a5,gp,-2020 # 80000abc <__metal_dt_gpio_10012000>
20015f8a:	00f71963          	bne	a4,a5,20015f9c <__metal_driver_sifive_gpio0_interrupt_lines+0x354>
/home/jw/Desktop/sifive-standalone-project/bsp/build/debug/./metal/machine.h:564 (discriminator 1)
20015f8e:	fe842703          	lw	a4,-24(s0)
20015f92:	47fd                	li	a5,31
20015f94:	00f71463          	bne	a4,a5,20015f9c <__metal_driver_sifive_gpio0_interrupt_lines+0x354>
/home/jw/Desktop/sifive-standalone-project/bsp/build/debug/./metal/machine.h:565
		return 29;
20015f98:	47f5                	li	a5,29
20015f9a:	a011                	j	20015f9e <__metal_driver_sifive_gpio0_interrupt_lines+0x356>
/home/jw/Desktop/sifive-standalone-project/bsp/build/debug/./metal/machine.h:568
		return 0;
20015f9c:	4781                	li	a5,0
/home/jw/Desktop/sifive-standalone-project/bsp/build/debug/./metal/machine.h:570
}
20015f9e:	853e                	mv	a0,a5
20015fa0:	4472                	lw	s0,28(sp)
20015fa2:	6105                	addi	sp,sp,32
20015fa4:	8082                	ret

20015fa6 <__metal_driver_sifive_gpio0_enable_input>:
__metal_driver_sifive_gpio0_enable_input():
/home/jw/Desktop/sifive-standalone-project/freedom-metal/src/drivers/sifive_gpio0.c:13
#include <metal/drivers/sifive_gpio0.h>
#include <metal/io.h>
#include <metal/machine.h>

int __metal_driver_sifive_gpio0_enable_input(struct metal_gpio *ggpio,
                                             long source) {
20015fa6:	7179                	addi	sp,sp,-48
20015fa8:	d606                	sw	ra,44(sp)
20015faa:	d422                	sw	s0,40(sp)
20015fac:	1800                	addi	s0,sp,48
20015fae:	fca42e23          	sw	a0,-36(s0)
20015fb2:	fcb42c23          	sw	a1,-40(s0)
/home/jw/Desktop/sifive-standalone-project/freedom-metal/src/drivers/sifive_gpio0.c:14
    long base = __metal_driver_sifive_gpio0_base(ggpio);
20015fb6:	fdc42503          	lw	a0,-36(s0)
20015fba:	c3fff0ef          	jal	ra,20015bf8 <__metal_driver_sifive_gpio0_base>
20015fbe:	87aa                	mv	a5,a0
20015fc0:	fef42623          	sw	a5,-20(s0)
/home/jw/Desktop/sifive-standalone-project/freedom-metal/src/drivers/sifive_gpio0.c:17

    __METAL_ACCESS_ONCE(
        (__metal_io_u32 *)(base + METAL_SIFIVE_GPIO0_INPUT_EN)) |= source;
20015fc4:	fec42783          	lw	a5,-20(s0)
20015fc8:	0791                	addi	a5,a5,4
20015fca:	4398                	lw	a4,0(a5)
20015fcc:	fd842783          	lw	a5,-40(s0)
20015fd0:	fec42683          	lw	a3,-20(s0)
20015fd4:	0691                	addi	a3,a3,4
20015fd6:	8fd9                	or	a5,a5,a4
20015fd8:	c29c                	sw	a5,0(a3)
/home/jw/Desktop/sifive-standalone-project/freedom-metal/src/drivers/sifive_gpio0.c:19

    return 0;
20015fda:	4781                	li	a5,0
/home/jw/Desktop/sifive-standalone-project/freedom-metal/src/drivers/sifive_gpio0.c:20
}
20015fdc:	853e                	mv	a0,a5
20015fde:	50b2                	lw	ra,44(sp)
20015fe0:	5422                	lw	s0,40(sp)
20015fe2:	6145                	addi	sp,sp,48
20015fe4:	8082                	ret

20015fe6 <__metal_driver_sifive_gpio0_disable_input>:
__metal_driver_sifive_gpio0_disable_input():
/home/jw/Desktop/sifive-standalone-project/freedom-metal/src/drivers/sifive_gpio0.c:23

int __metal_driver_sifive_gpio0_disable_input(struct metal_gpio *ggpio,
                                              long source) {
20015fe6:	7179                	addi	sp,sp,-48
20015fe8:	d606                	sw	ra,44(sp)
20015fea:	d422                	sw	s0,40(sp)
20015fec:	1800                	addi	s0,sp,48
20015fee:	fca42e23          	sw	a0,-36(s0)
20015ff2:	fcb42c23          	sw	a1,-40(s0)
/home/jw/Desktop/sifive-standalone-project/freedom-metal/src/drivers/sifive_gpio0.c:24
    long base = __metal_driver_sifive_gpio0_base(ggpio);
20015ff6:	fdc42503          	lw	a0,-36(s0)
20015ffa:	bffff0ef          	jal	ra,20015bf8 <__metal_driver_sifive_gpio0_base>
20015ffe:	87aa                	mv	a5,a0
20016000:	fef42623          	sw	a5,-20(s0)
/home/jw/Desktop/sifive-standalone-project/freedom-metal/src/drivers/sifive_gpio0.c:27

    __METAL_ACCESS_ONCE(
        (__metal_io_u32 *)(base + METAL_SIFIVE_GPIO0_INPUT_EN)) &= ~source;
20016004:	fec42783          	lw	a5,-20(s0)
20016008:	0791                	addi	a5,a5,4
2001600a:	439c                	lw	a5,0(a5)
2001600c:	fd842703          	lw	a4,-40(s0)
20016010:	fff74713          	not	a4,a4
20016014:	86ba                	mv	a3,a4
20016016:	fec42703          	lw	a4,-20(s0)
2001601a:	0711                	addi	a4,a4,4
2001601c:	8ff5                	and	a5,a5,a3
2001601e:	c31c                	sw	a5,0(a4)
/home/jw/Desktop/sifive-standalone-project/freedom-metal/src/drivers/sifive_gpio0.c:29

    return 0;
20016020:	4781                	li	a5,0
/home/jw/Desktop/sifive-standalone-project/freedom-metal/src/drivers/sifive_gpio0.c:30
}
20016022:	853e                	mv	a0,a5
20016024:	50b2                	lw	ra,44(sp)
20016026:	5422                	lw	s0,40(sp)
20016028:	6145                	addi	sp,sp,48
2001602a:	8082                	ret

2001602c <__metal_driver_sifive_gpio0_input>:
__metal_driver_sifive_gpio0_input():
/home/jw/Desktop/sifive-standalone-project/freedom-metal/src/drivers/sifive_gpio0.c:32

long __metal_driver_sifive_gpio0_input(struct metal_gpio *ggpio) {
2001602c:	7179                	addi	sp,sp,-48
2001602e:	d606                	sw	ra,44(sp)
20016030:	d422                	sw	s0,40(sp)
20016032:	1800                	addi	s0,sp,48
20016034:	fca42e23          	sw	a0,-36(s0)
/home/jw/Desktop/sifive-standalone-project/freedom-metal/src/drivers/sifive_gpio0.c:33
    long base = __metal_driver_sifive_gpio0_base(ggpio);
20016038:	fdc42503          	lw	a0,-36(s0)
2001603c:	bbdff0ef          	jal	ra,20015bf8 <__metal_driver_sifive_gpio0_base>
20016040:	87aa                	mv	a5,a0
20016042:	fef42623          	sw	a5,-20(s0)
/home/jw/Desktop/sifive-standalone-project/freedom-metal/src/drivers/sifive_gpio0.c:35

    return __METAL_ACCESS_ONCE(
20016046:	fec42783          	lw	a5,-20(s0)
2001604a:	439c                	lw	a5,0(a5)
/home/jw/Desktop/sifive-standalone-project/freedom-metal/src/drivers/sifive_gpio0.c:37
        (__metal_io_u32 *)(base + METAL_SIFIVE_GPIO0_VALUE));
}
2001604c:	853e                	mv	a0,a5
2001604e:	50b2                	lw	ra,44(sp)
20016050:	5422                	lw	s0,40(sp)
20016052:	6145                	addi	sp,sp,48
20016054:	8082                	ret

20016056 <__metal_driver_sifive_gpio0_output>:
__metal_driver_sifive_gpio0_output():
/home/jw/Desktop/sifive-standalone-project/freedom-metal/src/drivers/sifive_gpio0.c:39

long __metal_driver_sifive_gpio0_output(struct metal_gpio *ggpio) {
20016056:	7179                	addi	sp,sp,-48
20016058:	d606                	sw	ra,44(sp)
2001605a:	d422                	sw	s0,40(sp)
2001605c:	1800                	addi	s0,sp,48
2001605e:	fca42e23          	sw	a0,-36(s0)
/home/jw/Desktop/sifive-standalone-project/freedom-metal/src/drivers/sifive_gpio0.c:40
    long base = __metal_driver_sifive_gpio0_base(ggpio);
20016062:	fdc42503          	lw	a0,-36(s0)
20016066:	b93ff0ef          	jal	ra,20015bf8 <__metal_driver_sifive_gpio0_base>
2001606a:	87aa                	mv	a5,a0
2001606c:	fef42623          	sw	a5,-20(s0)
/home/jw/Desktop/sifive-standalone-project/freedom-metal/src/drivers/sifive_gpio0.c:42

    return __METAL_ACCESS_ONCE(
20016070:	fec42783          	lw	a5,-20(s0)
20016074:	07b1                	addi	a5,a5,12
20016076:	439c                	lw	a5,0(a5)
/home/jw/Desktop/sifive-standalone-project/freedom-metal/src/drivers/sifive_gpio0.c:44
        (__metal_io_u32 *)(base + METAL_SIFIVE_GPIO0_PORT));
}
20016078:	853e                	mv	a0,a5
2001607a:	50b2                	lw	ra,44(sp)
2001607c:	5422                	lw	s0,40(sp)
2001607e:	6145                	addi	sp,sp,48
20016080:	8082                	ret

20016082 <__metal_driver_sifive_gpio0_disable_output>:
__metal_driver_sifive_gpio0_disable_output():
/home/jw/Desktop/sifive-standalone-project/freedom-metal/src/drivers/sifive_gpio0.c:47

int __metal_driver_sifive_gpio0_disable_output(struct metal_gpio *ggpio,
                                               long source) {
20016082:	7179                	addi	sp,sp,-48
20016084:	d606                	sw	ra,44(sp)
20016086:	d422                	sw	s0,40(sp)
20016088:	1800                	addi	s0,sp,48
2001608a:	fca42e23          	sw	a0,-36(s0)
2001608e:	fcb42c23          	sw	a1,-40(s0)
/home/jw/Desktop/sifive-standalone-project/freedom-metal/src/drivers/sifive_gpio0.c:48
    long base = __metal_driver_sifive_gpio0_base(ggpio);
20016092:	fdc42503          	lw	a0,-36(s0)
20016096:	b63ff0ef          	jal	ra,20015bf8 <__metal_driver_sifive_gpio0_base>
2001609a:	87aa                	mv	a5,a0
2001609c:	fef42623          	sw	a5,-20(s0)
/home/jw/Desktop/sifive-standalone-project/freedom-metal/src/drivers/sifive_gpio0.c:51

    __METAL_ACCESS_ONCE(
        (__metal_io_u32 *)(base + METAL_SIFIVE_GPIO0_OUTPUT_EN)) &= ~source;
200160a0:	fec42783          	lw	a5,-20(s0)
200160a4:	07a1                	addi	a5,a5,8
200160a6:	439c                	lw	a5,0(a5)
200160a8:	fd842703          	lw	a4,-40(s0)
200160ac:	fff74713          	not	a4,a4
200160b0:	86ba                	mv	a3,a4
200160b2:	fec42703          	lw	a4,-20(s0)
200160b6:	0721                	addi	a4,a4,8
200160b8:	8ff5                	and	a5,a5,a3
200160ba:	c31c                	sw	a5,0(a4)
/home/jw/Desktop/sifive-standalone-project/freedom-metal/src/drivers/sifive_gpio0.c:53

    return 0;
200160bc:	4781                	li	a5,0
/home/jw/Desktop/sifive-standalone-project/freedom-metal/src/drivers/sifive_gpio0.c:54
}
200160be:	853e                	mv	a0,a5
200160c0:	50b2                	lw	ra,44(sp)
200160c2:	5422                	lw	s0,40(sp)
200160c4:	6145                	addi	sp,sp,48
200160c6:	8082                	ret

200160c8 <__metal_driver_sifive_gpio0_enable_output>:
__metal_driver_sifive_gpio0_enable_output():
/home/jw/Desktop/sifive-standalone-project/freedom-metal/src/drivers/sifive_gpio0.c:57

int __metal_driver_sifive_gpio0_enable_output(struct metal_gpio *ggpio,
                                              long source) {
200160c8:	7179                	addi	sp,sp,-48
200160ca:	d606                	sw	ra,44(sp)
200160cc:	d422                	sw	s0,40(sp)
200160ce:	1800                	addi	s0,sp,48
200160d0:	fca42e23          	sw	a0,-36(s0)
200160d4:	fcb42c23          	sw	a1,-40(s0)
/home/jw/Desktop/sifive-standalone-project/freedom-metal/src/drivers/sifive_gpio0.c:58
    long base = __metal_driver_sifive_gpio0_base(ggpio);
200160d8:	fdc42503          	lw	a0,-36(s0)
200160dc:	b1dff0ef          	jal	ra,20015bf8 <__metal_driver_sifive_gpio0_base>
200160e0:	87aa                	mv	a5,a0
200160e2:	fef42623          	sw	a5,-20(s0)
/home/jw/Desktop/sifive-standalone-project/freedom-metal/src/drivers/sifive_gpio0.c:61

    __METAL_ACCESS_ONCE(
        (__metal_io_u32 *)(base + METAL_SIFIVE_GPIO0_OUTPUT_EN)) |= source;
200160e6:	fec42783          	lw	a5,-20(s0)
200160ea:	07a1                	addi	a5,a5,8
200160ec:	4398                	lw	a4,0(a5)
200160ee:	fd842783          	lw	a5,-40(s0)
200160f2:	fec42683          	lw	a3,-20(s0)
200160f6:	06a1                	addi	a3,a3,8
200160f8:	8fd9                	or	a5,a5,a4
200160fa:	c29c                	sw	a5,0(a3)
/home/jw/Desktop/sifive-standalone-project/freedom-metal/src/drivers/sifive_gpio0.c:63

    return 0;
200160fc:	4781                	li	a5,0
/home/jw/Desktop/sifive-standalone-project/freedom-metal/src/drivers/sifive_gpio0.c:64
}
200160fe:	853e                	mv	a0,a5
20016100:	50b2                	lw	ra,44(sp)
20016102:	5422                	lw	s0,40(sp)
20016104:	6145                	addi	sp,sp,48
20016106:	8082                	ret

20016108 <__metal_driver_sifive_gpio0_output_set>:
__metal_driver_sifive_gpio0_output_set():
/home/jw/Desktop/sifive-standalone-project/freedom-metal/src/drivers/sifive_gpio0.c:67

int __metal_driver_sifive_gpio0_output_set(struct metal_gpio *ggpio,
                                           long value) {
20016108:	7179                	addi	sp,sp,-48
2001610a:	d606                	sw	ra,44(sp)
2001610c:	d422                	sw	s0,40(sp)
2001610e:	1800                	addi	s0,sp,48
20016110:	fca42e23          	sw	a0,-36(s0)
20016114:	fcb42c23          	sw	a1,-40(s0)
/home/jw/Desktop/sifive-standalone-project/freedom-metal/src/drivers/sifive_gpio0.c:68
    long base = __metal_driver_sifive_gpio0_base(ggpio);
20016118:	fdc42503          	lw	a0,-36(s0)
2001611c:	addff0ef          	jal	ra,20015bf8 <__metal_driver_sifive_gpio0_base>
20016120:	87aa                	mv	a5,a0
20016122:	fef42623          	sw	a5,-20(s0)
/home/jw/Desktop/sifive-standalone-project/freedom-metal/src/drivers/sifive_gpio0.c:70

    __METAL_ACCESS_ONCE((__metal_io_u32 *)(base + METAL_SIFIVE_GPIO0_PORT)) |=
20016126:	fec42783          	lw	a5,-20(s0)
2001612a:	07b1                	addi	a5,a5,12
2001612c:	4398                	lw	a4,0(a5)
2001612e:	fd842783          	lw	a5,-40(s0)
20016132:	fec42683          	lw	a3,-20(s0)
20016136:	06b1                	addi	a3,a3,12
20016138:	8fd9                	or	a5,a5,a4
2001613a:	c29c                	sw	a5,0(a3)
/home/jw/Desktop/sifive-standalone-project/freedom-metal/src/drivers/sifive_gpio0.c:73
        value;

    return 0;
2001613c:	4781                	li	a5,0
/home/jw/Desktop/sifive-standalone-project/freedom-metal/src/drivers/sifive_gpio0.c:74
}
2001613e:	853e                	mv	a0,a5
20016140:	50b2                	lw	ra,44(sp)
20016142:	5422                	lw	s0,40(sp)
20016144:	6145                	addi	sp,sp,48
20016146:	8082                	ret

20016148 <__metal_driver_sifive_gpio0_output_clear>:
__metal_driver_sifive_gpio0_output_clear():
/home/jw/Desktop/sifive-standalone-project/freedom-metal/src/drivers/sifive_gpio0.c:77

int __metal_driver_sifive_gpio0_output_clear(struct metal_gpio *ggpio,
                                             long value) {
20016148:	7179                	addi	sp,sp,-48
2001614a:	d606                	sw	ra,44(sp)
2001614c:	d422                	sw	s0,40(sp)
2001614e:	1800                	addi	s0,sp,48
20016150:	fca42e23          	sw	a0,-36(s0)
20016154:	fcb42c23          	sw	a1,-40(s0)
/home/jw/Desktop/sifive-standalone-project/freedom-metal/src/drivers/sifive_gpio0.c:78
    long base = __metal_driver_sifive_gpio0_base(ggpio);
20016158:	fdc42503          	lw	a0,-36(s0)
2001615c:	a9dff0ef          	jal	ra,20015bf8 <__metal_driver_sifive_gpio0_base>
20016160:	87aa                	mv	a5,a0
20016162:	fef42623          	sw	a5,-20(s0)
/home/jw/Desktop/sifive-standalone-project/freedom-metal/src/drivers/sifive_gpio0.c:80

    __METAL_ACCESS_ONCE((__metal_io_u32 *)(base + METAL_SIFIVE_GPIO0_PORT)) &=
20016166:	fec42783          	lw	a5,-20(s0)
2001616a:	07b1                	addi	a5,a5,12
2001616c:	439c                	lw	a5,0(a5)
/home/jw/Desktop/sifive-standalone-project/freedom-metal/src/drivers/sifive_gpio0.c:81
        ~value;
2001616e:	fd842703          	lw	a4,-40(s0)
20016172:	fff74713          	not	a4,a4
20016176:	86ba                	mv	a3,a4
/home/jw/Desktop/sifive-standalone-project/freedom-metal/src/drivers/sifive_gpio0.c:80
    __METAL_ACCESS_ONCE((__metal_io_u32 *)(base + METAL_SIFIVE_GPIO0_PORT)) &=
20016178:	fec42703          	lw	a4,-20(s0)
2001617c:	0731                	addi	a4,a4,12
2001617e:	8ff5                	and	a5,a5,a3
20016180:	c31c                	sw	a5,0(a4)
/home/jw/Desktop/sifive-standalone-project/freedom-metal/src/drivers/sifive_gpio0.c:83

    return 0;
20016182:	4781                	li	a5,0
/home/jw/Desktop/sifive-standalone-project/freedom-metal/src/drivers/sifive_gpio0.c:84
}
20016184:	853e                	mv	a0,a5
20016186:	50b2                	lw	ra,44(sp)
20016188:	5422                	lw	s0,40(sp)
2001618a:	6145                	addi	sp,sp,48
2001618c:	8082                	ret

2001618e <__metal_driver_sifive_gpio0_output_toggle>:
__metal_driver_sifive_gpio0_output_toggle():
/home/jw/Desktop/sifive-standalone-project/freedom-metal/src/drivers/sifive_gpio0.c:87

int __metal_driver_sifive_gpio0_output_toggle(struct metal_gpio *ggpio,
                                              long value) {
2001618e:	7179                	addi	sp,sp,-48
20016190:	d606                	sw	ra,44(sp)
20016192:	d422                	sw	s0,40(sp)
20016194:	1800                	addi	s0,sp,48
20016196:	fca42e23          	sw	a0,-36(s0)
2001619a:	fcb42c23          	sw	a1,-40(s0)
/home/jw/Desktop/sifive-standalone-project/freedom-metal/src/drivers/sifive_gpio0.c:88
    long base = __metal_driver_sifive_gpio0_base(ggpio);
2001619e:	fdc42503          	lw	a0,-36(s0)
200161a2:	a57ff0ef          	jal	ra,20015bf8 <__metal_driver_sifive_gpio0_base>
200161a6:	87aa                	mv	a5,a0
200161a8:	fef42623          	sw	a5,-20(s0)
/home/jw/Desktop/sifive-standalone-project/freedom-metal/src/drivers/sifive_gpio0.c:91

    __METAL_ACCESS_ONCE((__metal_io_u32 *)(base + METAL_SIFIVE_GPIO0_PORT)) =
        __METAL_ACCESS_ONCE(
200161ac:	fec42783          	lw	a5,-20(s0)
200161b0:	07b1                	addi	a5,a5,12
200161b2:	4398                	lw	a4,0(a5)
/home/jw/Desktop/sifive-standalone-project/freedom-metal/src/drivers/sifive_gpio0.c:92
            (__metal_io_u32 *)(base + METAL_SIFIVE_GPIO0_PORT)) ^
200161b4:	fd842783          	lw	a5,-40(s0)
/home/jw/Desktop/sifive-standalone-project/freedom-metal/src/drivers/sifive_gpio0.c:90
    __METAL_ACCESS_ONCE((__metal_io_u32 *)(base + METAL_SIFIVE_GPIO0_PORT)) =
200161b8:	fec42683          	lw	a3,-20(s0)
200161bc:	06b1                	addi	a3,a3,12
/home/jw/Desktop/sifive-standalone-project/freedom-metal/src/drivers/sifive_gpio0.c:92
            (__metal_io_u32 *)(base + METAL_SIFIVE_GPIO0_PORT)) ^
200161be:	8fb9                	xor	a5,a5,a4
/home/jw/Desktop/sifive-standalone-project/freedom-metal/src/drivers/sifive_gpio0.c:90
    __METAL_ACCESS_ONCE((__metal_io_u32 *)(base + METAL_SIFIVE_GPIO0_PORT)) =
200161c0:	c29c                	sw	a5,0(a3)
/home/jw/Desktop/sifive-standalone-project/freedom-metal/src/drivers/sifive_gpio0.c:95
        value;

    return 0;
200161c2:	4781                	li	a5,0
/home/jw/Desktop/sifive-standalone-project/freedom-metal/src/drivers/sifive_gpio0.c:96
}
200161c4:	853e                	mv	a0,a5
200161c6:	50b2                	lw	ra,44(sp)
200161c8:	5422                	lw	s0,40(sp)
200161ca:	6145                	addi	sp,sp,48
200161cc:	8082                	ret

200161ce <__metal_driver_sifive_gpio0_enable_io>:
__metal_driver_sifive_gpio0_enable_io():
/home/jw/Desktop/sifive-standalone-project/freedom-metal/src/drivers/sifive_gpio0.c:99

int __metal_driver_sifive_gpio0_enable_io(struct metal_gpio *ggpio, long source,
                                          long dest) {
200161ce:	7179                	addi	sp,sp,-48
200161d0:	d606                	sw	ra,44(sp)
200161d2:	d422                	sw	s0,40(sp)
200161d4:	1800                	addi	s0,sp,48
200161d6:	fca42e23          	sw	a0,-36(s0)
200161da:	fcb42c23          	sw	a1,-40(s0)
200161de:	fcc42a23          	sw	a2,-44(s0)
/home/jw/Desktop/sifive-standalone-project/freedom-metal/src/drivers/sifive_gpio0.c:100
    long base = __metal_driver_sifive_gpio0_base(ggpio);
200161e2:	fdc42503          	lw	a0,-36(s0)
200161e6:	a13ff0ef          	jal	ra,20015bf8 <__metal_driver_sifive_gpio0_base>
200161ea:	87aa                	mv	a5,a0
200161ec:	fef42623          	sw	a5,-20(s0)
/home/jw/Desktop/sifive-standalone-project/freedom-metal/src/drivers/sifive_gpio0.c:103

    __METAL_ACCESS_ONCE(
        (__metal_io_u32 *)(base + METAL_SIFIVE_GPIO0_IOF_SEL)) |= source;
200161f0:	fec42783          	lw	a5,-20(s0)
200161f4:	03c78793          	addi	a5,a5,60
200161f8:	4398                	lw	a4,0(a5)
200161fa:	fd842783          	lw	a5,-40(s0)
200161fe:	fec42683          	lw	a3,-20(s0)
20016202:	03c68693          	addi	a3,a3,60
20016206:	8fd9                	or	a5,a5,a4
20016208:	c29c                	sw	a5,0(a3)
/home/jw/Desktop/sifive-standalone-project/freedom-metal/src/drivers/sifive_gpio0.c:104
    __METAL_ACCESS_ONCE((__metal_io_u32 *)(base + METAL_SIFIVE_GPIO0_IOF_EN)) |=
2001620a:	fec42783          	lw	a5,-20(s0)
2001620e:	03878793          	addi	a5,a5,56
20016212:	4398                	lw	a4,0(a5)
20016214:	fd442783          	lw	a5,-44(s0)
20016218:	fec42683          	lw	a3,-20(s0)
2001621c:	03868693          	addi	a3,a3,56
20016220:	8fd9                	or	a5,a5,a4
20016222:	c29c                	sw	a5,0(a3)
/home/jw/Desktop/sifive-standalone-project/freedom-metal/src/drivers/sifive_gpio0.c:107
        dest;

    return 0;
20016224:	4781                	li	a5,0
/home/jw/Desktop/sifive-standalone-project/freedom-metal/src/drivers/sifive_gpio0.c:108
}
20016226:	853e                	mv	a0,a5
20016228:	50b2                	lw	ra,44(sp)
2001622a:	5422                	lw	s0,40(sp)
2001622c:	6145                	addi	sp,sp,48
2001622e:	8082                	ret

20016230 <__metal_driver_sifive_gpio0_disable_io>:
__metal_driver_sifive_gpio0_disable_io():
/home/jw/Desktop/sifive-standalone-project/freedom-metal/src/drivers/sifive_gpio0.c:111

int __metal_driver_sifive_gpio0_disable_io(struct metal_gpio *ggpio,
                                           long source) {
20016230:	7179                	addi	sp,sp,-48
20016232:	d606                	sw	ra,44(sp)
20016234:	d422                	sw	s0,40(sp)
20016236:	1800                	addi	s0,sp,48
20016238:	fca42e23          	sw	a0,-36(s0)
2001623c:	fcb42c23          	sw	a1,-40(s0)
/home/jw/Desktop/sifive-standalone-project/freedom-metal/src/drivers/sifive_gpio0.c:112
    long base = __metal_driver_sifive_gpio0_base(ggpio);
20016240:	fdc42503          	lw	a0,-36(s0)
20016244:	9b5ff0ef          	jal	ra,20015bf8 <__metal_driver_sifive_gpio0_base>
20016248:	87aa                	mv	a5,a0
2001624a:	fef42623          	sw	a5,-20(s0)
/home/jw/Desktop/sifive-standalone-project/freedom-metal/src/drivers/sifive_gpio0.c:114

    __METAL_ACCESS_ONCE((__metal_io_u32 *)(base + METAL_SIFIVE_GPIO0_IOF_EN)) &=
2001624e:	fec42783          	lw	a5,-20(s0)
20016252:	03878793          	addi	a5,a5,56
20016256:	439c                	lw	a5,0(a5)
/home/jw/Desktop/sifive-standalone-project/freedom-metal/src/drivers/sifive_gpio0.c:115
        ~source;
20016258:	fd842703          	lw	a4,-40(s0)
2001625c:	fff74713          	not	a4,a4
20016260:	86ba                	mv	a3,a4
/home/jw/Desktop/sifive-standalone-project/freedom-metal/src/drivers/sifive_gpio0.c:114
    __METAL_ACCESS_ONCE((__metal_io_u32 *)(base + METAL_SIFIVE_GPIO0_IOF_EN)) &=
20016262:	fec42703          	lw	a4,-20(s0)
20016266:	03870713          	addi	a4,a4,56
2001626a:	8ff5                	and	a5,a5,a3
2001626c:	c31c                	sw	a5,0(a4)
/home/jw/Desktop/sifive-standalone-project/freedom-metal/src/drivers/sifive_gpio0.c:117

    return 0;
2001626e:	4781                	li	a5,0
/home/jw/Desktop/sifive-standalone-project/freedom-metal/src/drivers/sifive_gpio0.c:118
}
20016270:	853e                	mv	a0,a5
20016272:	50b2                	lw	ra,44(sp)
20016274:	5422                	lw	s0,40(sp)
20016276:	6145                	addi	sp,sp,48
20016278:	8082                	ret

2001627a <__metal_driver_sifive_gpio0_config_int>:
__metal_driver_sifive_gpio0_config_int():
/home/jw/Desktop/sifive-standalone-project/freedom-metal/src/drivers/sifive_gpio0.c:121

int __metal_driver_sifive_gpio0_config_int(struct metal_gpio *ggpio,
                                           long source, int intr_type) {
2001627a:	7179                	addi	sp,sp,-48
2001627c:	d606                	sw	ra,44(sp)
2001627e:	d422                	sw	s0,40(sp)
20016280:	1800                	addi	s0,sp,48
20016282:	fca42e23          	sw	a0,-36(s0)
20016286:	fcb42c23          	sw	a1,-40(s0)
2001628a:	fcc42a23          	sw	a2,-44(s0)
/home/jw/Desktop/sifive-standalone-project/freedom-metal/src/drivers/sifive_gpio0.c:122
    long base = __metal_driver_sifive_gpio0_base(ggpio);
2001628e:	fdc42503          	lw	a0,-36(s0)
20016292:	967ff0ef          	jal	ra,20015bf8 <__metal_driver_sifive_gpio0_base>
20016296:	87aa                	mv	a5,a0
20016298:	fef42623          	sw	a5,-20(s0)
2001629c:	fd442703          	lw	a4,-44(s0)
200162a0:	479d                	li	a5,7
200162a2:	1ce7e963          	bltu	a5,a4,20016474 <__metal_driver_sifive_gpio0_config_int+0x1fa>
200162a6:	fd442783          	lw	a5,-44(s0)
200162aa:	00279713          	slli	a4,a5,0x2
200162ae:	200117b7          	lui	a5,0x20011
200162b2:	f2878793          	addi	a5,a5,-216 # 20010f28 <__metal_driver_vtable_sifive_fe310_g000_pll+0xc>
200162b6:	97ba                	add	a5,a5,a4
200162b8:	439c                	lw	a5,0(a5)
200162ba:	8782                	jr	a5
/home/jw/Desktop/sifive-standalone-project/freedom-metal/src/drivers/sifive_gpio0.c:127

    switch (intr_type) {
    case METAL_GPIO_INT_DISABLE:
        __METAL_ACCESS_ONCE(
            (__metal_io_u32 *)(base + METAL_SIFIVE_GPIO0_RISE_IE)) &= ~source;
200162bc:	fec42783          	lw	a5,-20(s0)
200162c0:	07e1                	addi	a5,a5,24
200162c2:	439c                	lw	a5,0(a5)
200162c4:	fd842703          	lw	a4,-40(s0)
200162c8:	fff74713          	not	a4,a4
200162cc:	86ba                	mv	a3,a4
200162ce:	fec42703          	lw	a4,-20(s0)
200162d2:	0761                	addi	a4,a4,24
200162d4:	8ff5                	and	a5,a5,a3
200162d6:	c31c                	sw	a5,0(a4)
/home/jw/Desktop/sifive-standalone-project/freedom-metal/src/drivers/sifive_gpio0.c:129
        __METAL_ACCESS_ONCE(
            (__metal_io_u32 *)(base + METAL_SIFIVE_GPIO0_FALL_IE)) &= ~source;
200162d8:	fec42783          	lw	a5,-20(s0)
200162dc:	02078793          	addi	a5,a5,32
200162e0:	439c                	lw	a5,0(a5)
200162e2:	fd842703          	lw	a4,-40(s0)
200162e6:	fff74713          	not	a4,a4
200162ea:	86ba                	mv	a3,a4
200162ec:	fec42703          	lw	a4,-20(s0)
200162f0:	02070713          	addi	a4,a4,32
200162f4:	8ff5                	and	a5,a5,a3
200162f6:	c31c                	sw	a5,0(a4)
/home/jw/Desktop/sifive-standalone-project/freedom-metal/src/drivers/sifive_gpio0.c:131
        __METAL_ACCESS_ONCE(
            (__metal_io_u32 *)(base + METAL_SIFIVE_GPIO0_HIGH_IE)) &= ~source;
200162f8:	fec42783          	lw	a5,-20(s0)
200162fc:	02878793          	addi	a5,a5,40
20016300:	439c                	lw	a5,0(a5)
20016302:	fd842703          	lw	a4,-40(s0)
20016306:	fff74713          	not	a4,a4
2001630a:	86ba                	mv	a3,a4
2001630c:	fec42703          	lw	a4,-20(s0)
20016310:	02870713          	addi	a4,a4,40
20016314:	8ff5                	and	a5,a5,a3
20016316:	c31c                	sw	a5,0(a4)
/home/jw/Desktop/sifive-standalone-project/freedom-metal/src/drivers/sifive_gpio0.c:133
        __METAL_ACCESS_ONCE(
            (__metal_io_u32 *)(base + METAL_SIFIVE_GPIO0_LOW_IE)) &= ~source;
20016318:	fec42783          	lw	a5,-20(s0)
2001631c:	03078793          	addi	a5,a5,48
20016320:	439c                	lw	a5,0(a5)
20016322:	fd842703          	lw	a4,-40(s0)
20016326:	fff74713          	not	a4,a4
2001632a:	86ba                	mv	a3,a4
2001632c:	fec42703          	lw	a4,-20(s0)
20016330:	03070713          	addi	a4,a4,48
20016334:	8ff5                	and	a5,a5,a3
20016336:	c31c                	sw	a5,0(a4)
/home/jw/Desktop/sifive-standalone-project/freedom-metal/src/drivers/sifive_gpio0.c:134
        break;
20016338:	aa35                	j	20016474 <__metal_driver_sifive_gpio0_config_int+0x1fa>
/home/jw/Desktop/sifive-standalone-project/freedom-metal/src/drivers/sifive_gpio0.c:137
    case METAL_GPIO_INT_RISING:
        __METAL_ACCESS_ONCE(
            (__metal_io_u32 *)(base + METAL_SIFIVE_GPIO0_RISE_IE)) |= source;
2001633a:	fec42783          	lw	a5,-20(s0)
2001633e:	07e1                	addi	a5,a5,24
20016340:	4398                	lw	a4,0(a5)
20016342:	fd842783          	lw	a5,-40(s0)
20016346:	fec42683          	lw	a3,-20(s0)
2001634a:	06e1                	addi	a3,a3,24
2001634c:	8fd9                	or	a5,a5,a4
2001634e:	c29c                	sw	a5,0(a3)
/home/jw/Desktop/sifive-standalone-project/freedom-metal/src/drivers/sifive_gpio0.c:138
        break;
20016350:	a215                	j	20016474 <__metal_driver_sifive_gpio0_config_int+0x1fa>
/home/jw/Desktop/sifive-standalone-project/freedom-metal/src/drivers/sifive_gpio0.c:141
    case METAL_GPIO_INT_FALLING:
        __METAL_ACCESS_ONCE(
            (__metal_io_u32 *)(base + METAL_SIFIVE_GPIO0_FALL_IE)) |= source;
20016352:	fec42783          	lw	a5,-20(s0)
20016356:	02078793          	addi	a5,a5,32
2001635a:	4398                	lw	a4,0(a5)
2001635c:	fd842783          	lw	a5,-40(s0)
20016360:	fec42683          	lw	a3,-20(s0)
20016364:	02068693          	addi	a3,a3,32
20016368:	8fd9                	or	a5,a5,a4
2001636a:	c29c                	sw	a5,0(a3)
/home/jw/Desktop/sifive-standalone-project/freedom-metal/src/drivers/sifive_gpio0.c:142
        break;
2001636c:	a221                	j	20016474 <__metal_driver_sifive_gpio0_config_int+0x1fa>
/home/jw/Desktop/sifive-standalone-project/freedom-metal/src/drivers/sifive_gpio0.c:145
    case METAL_GPIO_INT_BOTH_EDGE:
        __METAL_ACCESS_ONCE(
            (__metal_io_u32 *)(base + METAL_SIFIVE_GPIO0_RISE_IE)) |= source;
2001636e:	fec42783          	lw	a5,-20(s0)
20016372:	07e1                	addi	a5,a5,24
20016374:	4398                	lw	a4,0(a5)
20016376:	fd842783          	lw	a5,-40(s0)
2001637a:	fec42683          	lw	a3,-20(s0)
2001637e:	06e1                	addi	a3,a3,24
20016380:	8fd9                	or	a5,a5,a4
20016382:	c29c                	sw	a5,0(a3)
/home/jw/Desktop/sifive-standalone-project/freedom-metal/src/drivers/sifive_gpio0.c:147
        __METAL_ACCESS_ONCE(
            (__metal_io_u32 *)(base + METAL_SIFIVE_GPIO0_FALL_IE)) |= source;
20016384:	fec42783          	lw	a5,-20(s0)
20016388:	02078793          	addi	a5,a5,32
2001638c:	4398                	lw	a4,0(a5)
2001638e:	fd842783          	lw	a5,-40(s0)
20016392:	fec42683          	lw	a3,-20(s0)
20016396:	02068693          	addi	a3,a3,32
2001639a:	8fd9                	or	a5,a5,a4
2001639c:	c29c                	sw	a5,0(a3)
/home/jw/Desktop/sifive-standalone-project/freedom-metal/src/drivers/sifive_gpio0.c:148
        break;
2001639e:	a8d9                	j	20016474 <__metal_driver_sifive_gpio0_config_int+0x1fa>
/home/jw/Desktop/sifive-standalone-project/freedom-metal/src/drivers/sifive_gpio0.c:151
    case METAL_GPIO_INT_HIGH:
        __METAL_ACCESS_ONCE(
            (__metal_io_u32 *)(base + METAL_SIFIVE_GPIO0_HIGH_IE)) |= source;
200163a0:	fec42783          	lw	a5,-20(s0)
200163a4:	02878793          	addi	a5,a5,40
200163a8:	4398                	lw	a4,0(a5)
200163aa:	fd842783          	lw	a5,-40(s0)
200163ae:	fec42683          	lw	a3,-20(s0)
200163b2:	02868693          	addi	a3,a3,40
200163b6:	8fd9                	or	a5,a5,a4
200163b8:	c29c                	sw	a5,0(a3)
/home/jw/Desktop/sifive-standalone-project/freedom-metal/src/drivers/sifive_gpio0.c:152
        break;
200163ba:	a86d                	j	20016474 <__metal_driver_sifive_gpio0_config_int+0x1fa>
/home/jw/Desktop/sifive-standalone-project/freedom-metal/src/drivers/sifive_gpio0.c:155
    case METAL_GPIO_INT_LOW:
        __METAL_ACCESS_ONCE(
            (__metal_io_u32 *)(base + METAL_SIFIVE_GPIO0_LOW_IE)) |= source;
200163bc:	fec42783          	lw	a5,-20(s0)
200163c0:	03078793          	addi	a5,a5,48
200163c4:	4398                	lw	a4,0(a5)
200163c6:	fd842783          	lw	a5,-40(s0)
200163ca:	fec42683          	lw	a3,-20(s0)
200163ce:	03068693          	addi	a3,a3,48
200163d2:	8fd9                	or	a5,a5,a4
200163d4:	c29c                	sw	a5,0(a3)
/home/jw/Desktop/sifive-standalone-project/freedom-metal/src/drivers/sifive_gpio0.c:156
        break;
200163d6:	a879                	j	20016474 <__metal_driver_sifive_gpio0_config_int+0x1fa>
/home/jw/Desktop/sifive-standalone-project/freedom-metal/src/drivers/sifive_gpio0.c:159
    case METAL_GPIO_INT_BOTH_LEVEL:
        __METAL_ACCESS_ONCE(
            (__metal_io_u32 *)(base + METAL_SIFIVE_GPIO0_HIGH_IE)) |= source;
200163d8:	fec42783          	lw	a5,-20(s0)
200163dc:	02878793          	addi	a5,a5,40
200163e0:	4398                	lw	a4,0(a5)
200163e2:	fd842783          	lw	a5,-40(s0)
200163e6:	fec42683          	lw	a3,-20(s0)
200163ea:	02868693          	addi	a3,a3,40
200163ee:	8fd9                	or	a5,a5,a4
200163f0:	c29c                	sw	a5,0(a3)
/home/jw/Desktop/sifive-standalone-project/freedom-metal/src/drivers/sifive_gpio0.c:161
        __METAL_ACCESS_ONCE(
            (__metal_io_u32 *)(base + METAL_SIFIVE_GPIO0_LOW_IE)) |= source;
200163f2:	fec42783          	lw	a5,-20(s0)
200163f6:	03078793          	addi	a5,a5,48
200163fa:	4398                	lw	a4,0(a5)
200163fc:	fd842783          	lw	a5,-40(s0)
20016400:	fec42683          	lw	a3,-20(s0)
20016404:	03068693          	addi	a3,a3,48
20016408:	8fd9                	or	a5,a5,a4
2001640a:	c29c                	sw	a5,0(a3)
/home/jw/Desktop/sifive-standalone-project/freedom-metal/src/drivers/sifive_gpio0.c:162
        break;
2001640c:	a0a5                	j	20016474 <__metal_driver_sifive_gpio0_config_int+0x1fa>
/home/jw/Desktop/sifive-standalone-project/freedom-metal/src/drivers/sifive_gpio0.c:165
    case METAL_GPIO_INT_MAX:
        __METAL_ACCESS_ONCE(
            (__metal_io_u32 *)(base + METAL_SIFIVE_GPIO0_RISE_IE)) |= source;
2001640e:	fec42783          	lw	a5,-20(s0)
20016412:	07e1                	addi	a5,a5,24
20016414:	4398                	lw	a4,0(a5)
20016416:	fd842783          	lw	a5,-40(s0)
2001641a:	fec42683          	lw	a3,-20(s0)
2001641e:	06e1                	addi	a3,a3,24
20016420:	8fd9                	or	a5,a5,a4
20016422:	c29c                	sw	a5,0(a3)
/home/jw/Desktop/sifive-standalone-project/freedom-metal/src/drivers/sifive_gpio0.c:167
        __METAL_ACCESS_ONCE(
            (__metal_io_u32 *)(base + METAL_SIFIVE_GPIO0_FALL_IE)) |= source;
20016424:	fec42783          	lw	a5,-20(s0)
20016428:	02078793          	addi	a5,a5,32
2001642c:	4398                	lw	a4,0(a5)
2001642e:	fd842783          	lw	a5,-40(s0)
20016432:	fec42683          	lw	a3,-20(s0)
20016436:	02068693          	addi	a3,a3,32
2001643a:	8fd9                	or	a5,a5,a4
2001643c:	c29c                	sw	a5,0(a3)
/home/jw/Desktop/sifive-standalone-project/freedom-metal/src/drivers/sifive_gpio0.c:169
        __METAL_ACCESS_ONCE(
            (__metal_io_u32 *)(base + METAL_SIFIVE_GPIO0_HIGH_IE)) |= source;
2001643e:	fec42783          	lw	a5,-20(s0)
20016442:	02878793          	addi	a5,a5,40
20016446:	4398                	lw	a4,0(a5)
20016448:	fd842783          	lw	a5,-40(s0)
2001644c:	fec42683          	lw	a3,-20(s0)
20016450:	02868693          	addi	a3,a3,40
20016454:	8fd9                	or	a5,a5,a4
20016456:	c29c                	sw	a5,0(a3)
/home/jw/Desktop/sifive-standalone-project/freedom-metal/src/drivers/sifive_gpio0.c:171
        __METAL_ACCESS_ONCE(
            (__metal_io_u32 *)(base + METAL_SIFIVE_GPIO0_LOW_IE)) |= source;
20016458:	fec42783          	lw	a5,-20(s0)
2001645c:	03078793          	addi	a5,a5,48
20016460:	4398                	lw	a4,0(a5)
20016462:	fd842783          	lw	a5,-40(s0)
20016466:	fec42683          	lw	a3,-20(s0)
2001646a:	03068693          	addi	a3,a3,48
2001646e:	8fd9                	or	a5,a5,a4
20016470:	c29c                	sw	a5,0(a3)
/home/jw/Desktop/sifive-standalone-project/freedom-metal/src/drivers/sifive_gpio0.c:172
        break;
20016472:	0001                	nop
/home/jw/Desktop/sifive-standalone-project/freedom-metal/src/drivers/sifive_gpio0.c:174
    }
    return 0;
20016474:	4781                	li	a5,0
/home/jw/Desktop/sifive-standalone-project/freedom-metal/src/drivers/sifive_gpio0.c:175
}
20016476:	853e                	mv	a0,a5
20016478:	50b2                	lw	ra,44(sp)
2001647a:	5422                	lw	s0,40(sp)
2001647c:	6145                	addi	sp,sp,48
2001647e:	8082                	ret

20016480 <__metal_driver_sifive_gpio0_clear_int>:
__metal_driver_sifive_gpio0_clear_int():
/home/jw/Desktop/sifive-standalone-project/freedom-metal/src/drivers/sifive_gpio0.c:178

int __metal_driver_sifive_gpio0_clear_int(struct metal_gpio *ggpio, long source,
                                          int intr_type) {
20016480:	7179                	addi	sp,sp,-48
20016482:	d606                	sw	ra,44(sp)
20016484:	d422                	sw	s0,40(sp)
20016486:	1800                	addi	s0,sp,48
20016488:	fca42e23          	sw	a0,-36(s0)
2001648c:	fcb42c23          	sw	a1,-40(s0)
20016490:	fcc42a23          	sw	a2,-44(s0)
/home/jw/Desktop/sifive-standalone-project/freedom-metal/src/drivers/sifive_gpio0.c:179
    long base = __metal_driver_sifive_gpio0_base(ggpio);
20016494:	fdc42503          	lw	a0,-36(s0)
20016498:	f60ff0ef          	jal	ra,20015bf8 <__metal_driver_sifive_gpio0_base>
2001649c:	87aa                	mv	a5,a0
2001649e:	fef42623          	sw	a5,-20(s0)
200164a2:	fd442703          	lw	a4,-44(s0)
200164a6:	479d                	li	a5,7
200164a8:	14e7ea63          	bltu	a5,a4,200165fc <__metal_driver_sifive_gpio0_clear_int+0x17c>
200164ac:	fd442783          	lw	a5,-44(s0)
200164b0:	00279713          	slli	a4,a5,0x2
200164b4:	200117b7          	lui	a5,0x20011
200164b8:	f4878793          	addi	a5,a5,-184 # 20010f48 <__metal_driver_vtable_sifive_fe310_g000_pll+0x2c>
200164bc:	97ba                	add	a5,a5,a4
200164be:	439c                	lw	a5,0(a5)
200164c0:	8782                	jr	a5
/home/jw/Desktop/sifive-standalone-project/freedom-metal/src/drivers/sifive_gpio0.c:184

    switch (intr_type) {
    case METAL_GPIO_INT_RISING:
        __METAL_ACCESS_ONCE(
            (__metal_io_u32 *)(base + METAL_SIFIVE_GPIO0_RISE_IP)) |= source;
200164c2:	fec42783          	lw	a5,-20(s0)
200164c6:	07f1                	addi	a5,a5,28
200164c8:	4398                	lw	a4,0(a5)
200164ca:	fd842783          	lw	a5,-40(s0)
200164ce:	fec42683          	lw	a3,-20(s0)
200164d2:	06f1                	addi	a3,a3,28
200164d4:	8fd9                	or	a5,a5,a4
200164d6:	c29c                	sw	a5,0(a3)
/home/jw/Desktop/sifive-standalone-project/freedom-metal/src/drivers/sifive_gpio0.c:185
        break;
200164d8:	a215                	j	200165fc <__metal_driver_sifive_gpio0_clear_int+0x17c>
/home/jw/Desktop/sifive-standalone-project/freedom-metal/src/drivers/sifive_gpio0.c:188
    case METAL_GPIO_INT_FALLING:
        __METAL_ACCESS_ONCE(
            (__metal_io_u32 *)(base + METAL_SIFIVE_GPIO0_FALL_IP)) |= source;
200164da:	fec42783          	lw	a5,-20(s0)
200164de:	02478793          	addi	a5,a5,36
200164e2:	4398                	lw	a4,0(a5)
200164e4:	fd842783          	lw	a5,-40(s0)
200164e8:	fec42683          	lw	a3,-20(s0)
200164ec:	02468693          	addi	a3,a3,36
200164f0:	8fd9                	or	a5,a5,a4
200164f2:	c29c                	sw	a5,0(a3)
/home/jw/Desktop/sifive-standalone-project/freedom-metal/src/drivers/sifive_gpio0.c:189
        break;
200164f4:	a221                	j	200165fc <__metal_driver_sifive_gpio0_clear_int+0x17c>
/home/jw/Desktop/sifive-standalone-project/freedom-metal/src/drivers/sifive_gpio0.c:192
    case METAL_GPIO_INT_BOTH_EDGE:
        __METAL_ACCESS_ONCE(
            (__metal_io_u32 *)(base + METAL_SIFIVE_GPIO0_RISE_IP)) |= source;
200164f6:	fec42783          	lw	a5,-20(s0)
200164fa:	07f1                	addi	a5,a5,28
200164fc:	4398                	lw	a4,0(a5)
200164fe:	fd842783          	lw	a5,-40(s0)
20016502:	fec42683          	lw	a3,-20(s0)
20016506:	06f1                	addi	a3,a3,28
20016508:	8fd9                	or	a5,a5,a4
2001650a:	c29c                	sw	a5,0(a3)
/home/jw/Desktop/sifive-standalone-project/freedom-metal/src/drivers/sifive_gpio0.c:194
        __METAL_ACCESS_ONCE(
            (__metal_io_u32 *)(base + METAL_SIFIVE_GPIO0_FALL_IP)) |= source;
2001650c:	fec42783          	lw	a5,-20(s0)
20016510:	02478793          	addi	a5,a5,36
20016514:	4398                	lw	a4,0(a5)
20016516:	fd842783          	lw	a5,-40(s0)
2001651a:	fec42683          	lw	a3,-20(s0)
2001651e:	02468693          	addi	a3,a3,36
20016522:	8fd9                	or	a5,a5,a4
20016524:	c29c                	sw	a5,0(a3)
/home/jw/Desktop/sifive-standalone-project/freedom-metal/src/drivers/sifive_gpio0.c:195
        break;
20016526:	a8d9                	j	200165fc <__metal_driver_sifive_gpio0_clear_int+0x17c>
/home/jw/Desktop/sifive-standalone-project/freedom-metal/src/drivers/sifive_gpio0.c:198
    case METAL_GPIO_INT_HIGH:
        __METAL_ACCESS_ONCE(
            (__metal_io_u32 *)(base + METAL_SIFIVE_GPIO0_HIGH_IP)) |= source;
20016528:	fec42783          	lw	a5,-20(s0)
2001652c:	02c78793          	addi	a5,a5,44
20016530:	4398                	lw	a4,0(a5)
20016532:	fd842783          	lw	a5,-40(s0)
20016536:	fec42683          	lw	a3,-20(s0)
2001653a:	02c68693          	addi	a3,a3,44
2001653e:	8fd9                	or	a5,a5,a4
20016540:	c29c                	sw	a5,0(a3)
/home/jw/Desktop/sifive-standalone-project/freedom-metal/src/drivers/sifive_gpio0.c:199
        break;
20016542:	a86d                	j	200165fc <__metal_driver_sifive_gpio0_clear_int+0x17c>
/home/jw/Desktop/sifive-standalone-project/freedom-metal/src/drivers/sifive_gpio0.c:202
    case METAL_GPIO_INT_LOW:
        __METAL_ACCESS_ONCE(
            (__metal_io_u32 *)(base + METAL_SIFIVE_GPIO0_LOW_IP)) |= source;
20016544:	fec42783          	lw	a5,-20(s0)
20016548:	03478793          	addi	a5,a5,52
2001654c:	4398                	lw	a4,0(a5)
2001654e:	fd842783          	lw	a5,-40(s0)
20016552:	fec42683          	lw	a3,-20(s0)
20016556:	03468693          	addi	a3,a3,52
2001655a:	8fd9                	or	a5,a5,a4
2001655c:	c29c                	sw	a5,0(a3)
/home/jw/Desktop/sifive-standalone-project/freedom-metal/src/drivers/sifive_gpio0.c:203
        break;
2001655e:	a879                	j	200165fc <__metal_driver_sifive_gpio0_clear_int+0x17c>
/home/jw/Desktop/sifive-standalone-project/freedom-metal/src/drivers/sifive_gpio0.c:206
    case METAL_GPIO_INT_BOTH_LEVEL:
        __METAL_ACCESS_ONCE(
            (__metal_io_u32 *)(base + METAL_SIFIVE_GPIO0_HIGH_IP)) |= source;
20016560:	fec42783          	lw	a5,-20(s0)
20016564:	02c78793          	addi	a5,a5,44
20016568:	4398                	lw	a4,0(a5)
2001656a:	fd842783          	lw	a5,-40(s0)
2001656e:	fec42683          	lw	a3,-20(s0)
20016572:	02c68693          	addi	a3,a3,44
20016576:	8fd9                	or	a5,a5,a4
20016578:	c29c                	sw	a5,0(a3)
/home/jw/Desktop/sifive-standalone-project/freedom-metal/src/drivers/sifive_gpio0.c:208
        __METAL_ACCESS_ONCE(
            (__metal_io_u32 *)(base + METAL_SIFIVE_GPIO0_LOW_IP)) |= source;
2001657a:	fec42783          	lw	a5,-20(s0)
2001657e:	03478793          	addi	a5,a5,52
20016582:	4398                	lw	a4,0(a5)
20016584:	fd842783          	lw	a5,-40(s0)
20016588:	fec42683          	lw	a3,-20(s0)
2001658c:	03468693          	addi	a3,a3,52
20016590:	8fd9                	or	a5,a5,a4
20016592:	c29c                	sw	a5,0(a3)
/home/jw/Desktop/sifive-standalone-project/freedom-metal/src/drivers/sifive_gpio0.c:209
        break;
20016594:	a0a5                	j	200165fc <__metal_driver_sifive_gpio0_clear_int+0x17c>
/home/jw/Desktop/sifive-standalone-project/freedom-metal/src/drivers/sifive_gpio0.c:212
    case METAL_GPIO_INT_MAX:
        __METAL_ACCESS_ONCE(
            (__metal_io_u32 *)(base + METAL_SIFIVE_GPIO0_RISE_IP)) |= source;
20016596:	fec42783          	lw	a5,-20(s0)
2001659a:	07f1                	addi	a5,a5,28
2001659c:	4398                	lw	a4,0(a5)
2001659e:	fd842783          	lw	a5,-40(s0)
200165a2:	fec42683          	lw	a3,-20(s0)
200165a6:	06f1                	addi	a3,a3,28
200165a8:	8fd9                	or	a5,a5,a4
200165aa:	c29c                	sw	a5,0(a3)
/home/jw/Desktop/sifive-standalone-project/freedom-metal/src/drivers/sifive_gpio0.c:214
        __METAL_ACCESS_ONCE(
            (__metal_io_u32 *)(base + METAL_SIFIVE_GPIO0_FALL_IP)) |= source;
200165ac:	fec42783          	lw	a5,-20(s0)
200165b0:	02478793          	addi	a5,a5,36
200165b4:	4398                	lw	a4,0(a5)
200165b6:	fd842783          	lw	a5,-40(s0)
200165ba:	fec42683          	lw	a3,-20(s0)
200165be:	02468693          	addi	a3,a3,36
200165c2:	8fd9                	or	a5,a5,a4
200165c4:	c29c                	sw	a5,0(a3)
/home/jw/Desktop/sifive-standalone-project/freedom-metal/src/drivers/sifive_gpio0.c:216
        __METAL_ACCESS_ONCE(
            (__metal_io_u32 *)(base + METAL_SIFIVE_GPIO0_HIGH_IP)) |= source;
200165c6:	fec42783          	lw	a5,-20(s0)
200165ca:	02c78793          	addi	a5,a5,44
200165ce:	4398                	lw	a4,0(a5)
200165d0:	fd842783          	lw	a5,-40(s0)
200165d4:	fec42683          	lw	a3,-20(s0)
200165d8:	02c68693          	addi	a3,a3,44
200165dc:	8fd9                	or	a5,a5,a4
200165de:	c29c                	sw	a5,0(a3)
/home/jw/Desktop/sifive-standalone-project/freedom-metal/src/drivers/sifive_gpio0.c:218
        __METAL_ACCESS_ONCE(
            (__metal_io_u32 *)(base + METAL_SIFIVE_GPIO0_LOW_IP)) |= source;
200165e0:	fec42783          	lw	a5,-20(s0)
200165e4:	03478793          	addi	a5,a5,52
200165e8:	4398                	lw	a4,0(a5)
200165ea:	fd842783          	lw	a5,-40(s0)
200165ee:	fec42683          	lw	a3,-20(s0)
200165f2:	03468693          	addi	a3,a3,52
200165f6:	8fd9                	or	a5,a5,a4
200165f8:	c29c                	sw	a5,0(a3)
/home/jw/Desktop/sifive-standalone-project/freedom-metal/src/drivers/sifive_gpio0.c:219
        break;
200165fa:	0001                	nop
/home/jw/Desktop/sifive-standalone-project/freedom-metal/src/drivers/sifive_gpio0.c:221
    }
    return 0;
200165fc:	4781                	li	a5,0
/home/jw/Desktop/sifive-standalone-project/freedom-metal/src/drivers/sifive_gpio0.c:222
}
200165fe:	853e                	mv	a0,a5
20016600:	50b2                	lw	ra,44(sp)
20016602:	5422                	lw	s0,40(sp)
20016604:	6145                	addi	sp,sp,48
20016606:	8082                	ret

20016608 <__metal_driver_gpio_interrupt_controller>:
__metal_driver_gpio_interrupt_controller():
/home/jw/Desktop/sifive-standalone-project/freedom-metal/src/drivers/sifive_gpio0.c:225

struct metal_interrupt *
__metal_driver_gpio_interrupt_controller(struct metal_gpio *gpio) {
20016608:	1101                	addi	sp,sp,-32
2001660a:	ce06                	sw	ra,28(sp)
2001660c:	cc22                	sw	s0,24(sp)
2001660e:	1000                	addi	s0,sp,32
20016610:	fea42623          	sw	a0,-20(s0)
/home/jw/Desktop/sifive-standalone-project/freedom-metal/src/drivers/sifive_gpio0.c:226
    return __metal_driver_sifive_gpio0_interrupt_parent(gpio);
20016614:	fec42503          	lw	a0,-20(s0)
20016618:	e06ff0ef          	jal	ra,20015c1e <__metal_driver_sifive_gpio0_interrupt_parent>
2001661c:	87aa                	mv	a5,a0
/home/jw/Desktop/sifive-standalone-project/freedom-metal/src/drivers/sifive_gpio0.c:227
}
2001661e:	853e                	mv	a0,a5
20016620:	40f2                	lw	ra,28(sp)
20016622:	4462                	lw	s0,24(sp)
20016624:	6105                	addi	sp,sp,32
20016626:	8082                	ret

20016628 <__metal_driver_gpio_get_interrupt_id>:
__metal_driver_gpio_get_interrupt_id():
/home/jw/Desktop/sifive-standalone-project/freedom-metal/src/drivers/sifive_gpio0.c:229

int __metal_driver_gpio_get_interrupt_id(struct metal_gpio *gpio, int pin) {
20016628:	7179                	addi	sp,sp,-48
2001662a:	d606                	sw	ra,44(sp)
2001662c:	d422                	sw	s0,40(sp)
2001662e:	1800                	addi	s0,sp,48
20016630:	fca42e23          	sw	a0,-36(s0)
20016634:	fcb42c23          	sw	a1,-40(s0)
/home/jw/Desktop/sifive-standalone-project/freedom-metal/src/drivers/sifive_gpio0.c:231
    int irq;
    irq = __metal_driver_sifive_gpio0_interrupt_lines(gpio, pin);
20016638:	fd842583          	lw	a1,-40(s0)
2001663c:	fdc42503          	lw	a0,-36(s0)
20016640:	e08ff0ef          	jal	ra,20015c48 <__metal_driver_sifive_gpio0_interrupt_lines>
20016644:	fea42623          	sw	a0,-20(s0)
/home/jw/Desktop/sifive-standalone-project/freedom-metal/src/drivers/sifive_gpio0.c:232
    return irq;
20016648:	fec42783          	lw	a5,-20(s0)
/home/jw/Desktop/sifive-standalone-project/freedom-metal/src/drivers/sifive_gpio0.c:233
}
2001664c:	853e                	mv	a0,a5
2001664e:	50b2                	lw	ra,44(sp)
20016650:	5422                	lw	s0,40(sp)
20016652:	6145                	addi	sp,sp,48
20016654:	8082                	ret

20016656 <__metal_driver_sifive_uart0_control_base>:
__metal_driver_sifive_uart0_control_base():
/home/jw/Desktop/sifive-standalone-project/bsp/build/debug/./metal/machine.h:1072
{
20016656:	1101                	addi	sp,sp,-32
20016658:	ce22                	sw	s0,28(sp)
2001665a:	1000                	addi	s0,sp,32
2001665c:	fea42623          	sw	a0,-20(s0)
/home/jw/Desktop/sifive-standalone-project/bsp/build/debug/./metal/machine.h:1073
	if ((uintptr_t)uart == (uintptr_t)&__metal_dt_serial_10013000) {
20016660:	fec42703          	lw	a4,-20(s0)
20016664:	800017b7          	lui	a5,0x80001
20016668:	a3878793          	addi	a5,a5,-1480 # 80000a38 <metal_segment_heap_target_end+0xfffff2c8>
2001666c:	00f71563          	bne	a4,a5,20016676 <__metal_driver_sifive_uart0_control_base+0x20>
/home/jw/Desktop/sifive-standalone-project/bsp/build/debug/./metal/machine.h:1074
		return METAL_SIFIVE_UART0_10013000_BASE_ADDRESS;
20016670:	100137b7          	lui	a5,0x10013
20016674:	a829                	j	2001668e <__metal_driver_sifive_uart0_control_base+0x38>
/home/jw/Desktop/sifive-standalone-project/bsp/build/debug/./metal/machine.h:1076
	else if ((uintptr_t)uart == (uintptr_t)&__metal_dt_serial_10023000) {
20016676:	fec42703          	lw	a4,-20(s0)
2001667a:	800017b7          	lui	a5,0x80001
2001667e:	a5878793          	addi	a5,a5,-1448 # 80000a58 <metal_segment_heap_target_end+0xfffff2e8>
20016682:	00f71563          	bne	a4,a5,2001668c <__metal_driver_sifive_uart0_control_base+0x36>
/home/jw/Desktop/sifive-standalone-project/bsp/build/debug/./metal/machine.h:1077
		return METAL_SIFIVE_UART0_10023000_BASE_ADDRESS;
20016686:	100237b7          	lui	a5,0x10023
2001668a:	a011                	j	2001668e <__metal_driver_sifive_uart0_control_base+0x38>
/home/jw/Desktop/sifive-standalone-project/bsp/build/debug/./metal/machine.h:1080
		return 0;
2001668c:	4781                	li	a5,0
/home/jw/Desktop/sifive-standalone-project/bsp/build/debug/./metal/machine.h:1082
}
2001668e:	853e                	mv	a0,a5
20016690:	4472                	lw	s0,28(sp)
20016692:	6105                	addi	sp,sp,32
20016694:	8082                	ret

20016696 <__metal_driver_sifive_uart0_interrupt_parent>:
__metal_driver_sifive_uart0_interrupt_parent():
/home/jw/Desktop/sifive-standalone-project/bsp/build/debug/./metal/machine.h:1111
{
20016696:	1101                	addi	sp,sp,-32
20016698:	ce22                	sw	s0,28(sp)
2001669a:	1000                	addi	s0,sp,32
2001669c:	fea42623          	sw	a0,-20(s0)
/home/jw/Desktop/sifive-standalone-project/bsp/build/debug/./metal/machine.h:1112
	if ((uintptr_t)uart == (uintptr_t)&__metal_dt_serial_10013000) {
200166a0:	fec42703          	lw	a4,-20(s0)
200166a4:	800017b7          	lui	a5,0x80001
200166a8:	a3878793          	addi	a5,a5,-1480 # 80000a38 <metal_segment_heap_target_end+0xfffff2c8>
200166ac:	00f71763          	bne	a4,a5,200166ba <__metal_driver_sifive_uart0_interrupt_parent+0x24>
/home/jw/Desktop/sifive-standalone-project/bsp/build/debug/./metal/machine.h:1113
		return (struct metal_interrupt *)&__metal_dt_interrupt_controller_c000000.controller;
200166b0:	800007b7          	lui	a5,0x80000
200166b4:	46078793          	addi	a5,a5,1120 # 80000460 <metal_segment_heap_target_end+0xffffecf0>
200166b8:	a839                	j	200166d6 <__metal_driver_sifive_uart0_interrupt_parent+0x40>
/home/jw/Desktop/sifive-standalone-project/bsp/build/debug/./metal/machine.h:1115
	else if ((uintptr_t)uart == (uintptr_t)&__metal_dt_serial_10023000) {
200166ba:	fec42703          	lw	a4,-20(s0)
200166be:	800017b7          	lui	a5,0x80001
200166c2:	a5878793          	addi	a5,a5,-1448 # 80000a58 <metal_segment_heap_target_end+0xfffff2e8>
200166c6:	00f71763          	bne	a4,a5,200166d4 <__metal_driver_sifive_uart0_interrupt_parent+0x3e>
/home/jw/Desktop/sifive-standalone-project/bsp/build/debug/./metal/machine.h:1116
		return (struct metal_interrupt *)&__metal_dt_interrupt_controller_c000000.controller;
200166ca:	800007b7          	lui	a5,0x80000
200166ce:	46078793          	addi	a5,a5,1120 # 80000460 <metal_segment_heap_target_end+0xffffecf0>
200166d2:	a011                	j	200166d6 <__metal_driver_sifive_uart0_interrupt_parent+0x40>
/home/jw/Desktop/sifive-standalone-project/bsp/build/debug/./metal/machine.h:1119
		return 0;
200166d4:	4781                	li	a5,0
/home/jw/Desktop/sifive-standalone-project/bsp/build/debug/./metal/machine.h:1121
}
200166d6:	853e                	mv	a0,a5
200166d8:	4472                	lw	s0,28(sp)
200166da:	6105                	addi	sp,sp,32
200166dc:	8082                	ret

200166de <__metal_driver_sifive_uart0_interrupt_line>:
__metal_driver_sifive_uart0_interrupt_line():
/home/jw/Desktop/sifive-standalone-project/bsp/build/debug/./metal/machine.h:1124
{
200166de:	1101                	addi	sp,sp,-32
200166e0:	ce22                	sw	s0,28(sp)
200166e2:	1000                	addi	s0,sp,32
200166e4:	fea42623          	sw	a0,-20(s0)
/home/jw/Desktop/sifive-standalone-project/bsp/build/debug/./metal/machine.h:1125
	if ((uintptr_t)uart == (uintptr_t)&__metal_dt_serial_10013000) {
200166e8:	fec42703          	lw	a4,-20(s0)
200166ec:	800017b7          	lui	a5,0x80001
200166f0:	a3878793          	addi	a5,a5,-1480 # 80000a38 <metal_segment_heap_target_end+0xfffff2c8>
200166f4:	00f71463          	bne	a4,a5,200166fc <__metal_driver_sifive_uart0_interrupt_line+0x1e>
/home/jw/Desktop/sifive-standalone-project/bsp/build/debug/./metal/machine.h:1126
		return 3;
200166f8:	478d                	li	a5,3
200166fa:	a821                	j	20016712 <__metal_driver_sifive_uart0_interrupt_line+0x34>
/home/jw/Desktop/sifive-standalone-project/bsp/build/debug/./metal/machine.h:1128
	else if ((uintptr_t)uart == (uintptr_t)&__metal_dt_serial_10023000) {
200166fc:	fec42703          	lw	a4,-20(s0)
20016700:	800017b7          	lui	a5,0x80001
20016704:	a5878793          	addi	a5,a5,-1448 # 80000a58 <metal_segment_heap_target_end+0xfffff2e8>
20016708:	00f71463          	bne	a4,a5,20016710 <__metal_driver_sifive_uart0_interrupt_line+0x32>
/home/jw/Desktop/sifive-standalone-project/bsp/build/debug/./metal/machine.h:1129
		return 4;
2001670c:	4791                	li	a5,4
2001670e:	a011                	j	20016712 <__metal_driver_sifive_uart0_interrupt_line+0x34>
/home/jw/Desktop/sifive-standalone-project/bsp/build/debug/./metal/machine.h:1132
		return 0;
20016710:	4781                	li	a5,0
/home/jw/Desktop/sifive-standalone-project/bsp/build/debug/./metal/machine.h:1134
}
20016712:	853e                	mv	a0,a5
20016714:	4472                	lw	s0,28(sp)
20016716:	6105                	addi	sp,sp,32
20016718:	8082                	ret

2001671a <__metal_driver_sifive_uart0_clock>:
__metal_driver_sifive_uart0_clock():
/home/jw/Desktop/sifive-standalone-project/bsp/build/debug/./metal/machine.h:1137
{
2001671a:	1101                	addi	sp,sp,-32
2001671c:	ce22                	sw	s0,28(sp)
2001671e:	1000                	addi	s0,sp,32
20016720:	fea42623          	sw	a0,-20(s0)
/home/jw/Desktop/sifive-standalone-project/bsp/build/debug/./metal/machine.h:1138
	if ((uintptr_t)uart == (uintptr_t)&__metal_dt_serial_10013000) {
20016724:	fec42703          	lw	a4,-20(s0)
20016728:	800017b7          	lui	a5,0x80001
2001672c:	a3878793          	addi	a5,a5,-1480 # 80000a38 <metal_segment_heap_target_end+0xfffff2c8>
20016730:	00f71763          	bne	a4,a5,2001673e <__metal_driver_sifive_uart0_clock+0x24>
/home/jw/Desktop/sifive-standalone-project/bsp/build/debug/./metal/machine.h:1139
		return (struct metal_clock *)&__metal_dt_clock_4.clock;
20016734:	800017b7          	lui	a5,0x80001
20016738:	a9078793          	addi	a5,a5,-1392 # 80000a90 <metal_segment_heap_target_end+0xfffff320>
2001673c:	a839                	j	2001675a <__metal_driver_sifive_uart0_clock+0x40>
/home/jw/Desktop/sifive-standalone-project/bsp/build/debug/./metal/machine.h:1141
	else if ((uintptr_t)uart == (uintptr_t)&__metal_dt_serial_10023000) {
2001673e:	fec42703          	lw	a4,-20(s0)
20016742:	800017b7          	lui	a5,0x80001
20016746:	a5878793          	addi	a5,a5,-1448 # 80000a58 <metal_segment_heap_target_end+0xfffff2e8>
2001674a:	00f71763          	bne	a4,a5,20016758 <__metal_driver_sifive_uart0_clock+0x3e>
/home/jw/Desktop/sifive-standalone-project/bsp/build/debug/./metal/machine.h:1142
		return (struct metal_clock *)&__metal_dt_clock_4.clock;
2001674e:	800017b7          	lui	a5,0x80001
20016752:	a9078793          	addi	a5,a5,-1392 # 80000a90 <metal_segment_heap_target_end+0xfffff320>
20016756:	a011                	j	2001675a <__metal_driver_sifive_uart0_clock+0x40>
/home/jw/Desktop/sifive-standalone-project/bsp/build/debug/./metal/machine.h:1145
		return 0;
20016758:	4781                	li	a5,0
/home/jw/Desktop/sifive-standalone-project/bsp/build/debug/./metal/machine.h:1147
}
2001675a:	853e                	mv	a0,a5
2001675c:	4472                	lw	s0,28(sp)
2001675e:	6105                	addi	sp,sp,32
20016760:	8082                	ret

20016762 <__metal_driver_sifive_uart0_pinmux>:
__metal_driver_sifive_uart0_pinmux():
/home/jw/Desktop/sifive-standalone-project/bsp/build/debug/./metal/machine.h:1150
{
20016762:	1101                	addi	sp,sp,-32
20016764:	ce22                	sw	s0,28(sp)
20016766:	1000                	addi	s0,sp,32
20016768:	fea42623          	sw	a0,-20(s0)
/home/jw/Desktop/sifive-standalone-project/bsp/build/debug/./metal/machine.h:1151
	if ((uintptr_t)uart == (uintptr_t)&__metal_dt_serial_10013000) {
2001676c:	fec42703          	lw	a4,-20(s0)
20016770:	800017b7          	lui	a5,0x80001
20016774:	a3878793          	addi	a5,a5,-1480 # 80000a38 <metal_segment_heap_target_end+0xfffff2c8>
20016778:	00f71563          	bne	a4,a5,20016782 <__metal_driver_sifive_uart0_pinmux+0x20>
/home/jw/Desktop/sifive-standalone-project/bsp/build/debug/./metal/machine.h:1152
		return (struct __metal_driver_sifive_gpio0 *)&__metal_dt_gpio_10012000;
2001677c:	81c18793          	addi	a5,gp,-2020 # 80000abc <__metal_dt_gpio_10012000>
20016780:	a829                	j	2001679a <__metal_driver_sifive_uart0_pinmux+0x38>
/home/jw/Desktop/sifive-standalone-project/bsp/build/debug/./metal/machine.h:1154
	else if ((uintptr_t)uart == (uintptr_t)&__metal_dt_serial_10023000) {
20016782:	fec42703          	lw	a4,-20(s0)
20016786:	800017b7          	lui	a5,0x80001
2001678a:	a5878793          	addi	a5,a5,-1448 # 80000a58 <metal_segment_heap_target_end+0xfffff2e8>
2001678e:	00f71563          	bne	a4,a5,20016798 <__metal_driver_sifive_uart0_pinmux+0x36>
/home/jw/Desktop/sifive-standalone-project/bsp/build/debug/./metal/machine.h:1155
		return (struct __metal_driver_sifive_gpio0 *)&__metal_dt_gpio_10012000;
20016792:	81c18793          	addi	a5,gp,-2020 # 80000abc <__metal_dt_gpio_10012000>
20016796:	a011                	j	2001679a <__metal_driver_sifive_uart0_pinmux+0x38>
/home/jw/Desktop/sifive-standalone-project/bsp/build/debug/./metal/machine.h:1158
		return 0;
20016798:	4781                	li	a5,0
/home/jw/Desktop/sifive-standalone-project/bsp/build/debug/./metal/machine.h:1160
}
2001679a:	853e                	mv	a0,a5
2001679c:	4472                	lw	s0,28(sp)
2001679e:	6105                	addi	sp,sp,32
200167a0:	8082                	ret

200167a2 <__metal_driver_sifive_uart0_pinmux_output_selector>:
__metal_driver_sifive_uart0_pinmux_output_selector():
/home/jw/Desktop/sifive-standalone-project/bsp/build/debug/./metal/machine.h:1163
{
200167a2:	1101                	addi	sp,sp,-32
200167a4:	ce22                	sw	s0,28(sp)
200167a6:	1000                	addi	s0,sp,32
200167a8:	fea42623          	sw	a0,-20(s0)
/home/jw/Desktop/sifive-standalone-project/bsp/build/debug/./metal/machine.h:1164
	if ((uintptr_t)uart == (uintptr_t)&__metal_dt_serial_10013000) {
200167ac:	fec42703          	lw	a4,-20(s0)
200167b0:	800017b7          	lui	a5,0x80001
200167b4:	a3878793          	addi	a5,a5,-1480 # 80000a38 <metal_segment_heap_target_end+0xfffff2c8>
200167b8:	00f71463          	bne	a4,a5,200167c0 <__metal_driver_sifive_uart0_pinmux_output_selector+0x1e>
/home/jw/Desktop/sifive-standalone-project/bsp/build/debug/./metal/machine.h:1165
		return 0;
200167bc:	4781                	li	a5,0
200167be:	a821                	j	200167d6 <__metal_driver_sifive_uart0_pinmux_output_selector+0x34>
/home/jw/Desktop/sifive-standalone-project/bsp/build/debug/./metal/machine.h:1167
	else if ((uintptr_t)uart == (uintptr_t)&__metal_dt_serial_10023000) {
200167c0:	fec42703          	lw	a4,-20(s0)
200167c4:	800017b7          	lui	a5,0x80001
200167c8:	a5878793          	addi	a5,a5,-1448 # 80000a58 <metal_segment_heap_target_end+0xfffff2e8>
200167cc:	00f71463          	bne	a4,a5,200167d4 <__metal_driver_sifive_uart0_pinmux_output_selector+0x32>
/home/jw/Desktop/sifive-standalone-project/bsp/build/debug/./metal/machine.h:1168
		return 0;
200167d0:	4781                	li	a5,0
200167d2:	a011                	j	200167d6 <__metal_driver_sifive_uart0_pinmux_output_selector+0x34>
/home/jw/Desktop/sifive-standalone-project/bsp/build/debug/./metal/machine.h:1171
		return 0;
200167d4:	4781                	li	a5,0
/home/jw/Desktop/sifive-standalone-project/bsp/build/debug/./metal/machine.h:1173
}
200167d6:	853e                	mv	a0,a5
200167d8:	4472                	lw	s0,28(sp)
200167da:	6105                	addi	sp,sp,32
200167dc:	8082                	ret

200167de <__metal_driver_sifive_uart0_pinmux_source_selector>:
__metal_driver_sifive_uart0_pinmux_source_selector():
/home/jw/Desktop/sifive-standalone-project/bsp/build/debug/./metal/machine.h:1176
{
200167de:	1101                	addi	sp,sp,-32
200167e0:	ce22                	sw	s0,28(sp)
200167e2:	1000                	addi	s0,sp,32
200167e4:	fea42623          	sw	a0,-20(s0)
/home/jw/Desktop/sifive-standalone-project/bsp/build/debug/./metal/machine.h:1177
	if ((uintptr_t)uart == (uintptr_t)&__metal_dt_serial_10013000) {
200167e8:	fec42703          	lw	a4,-20(s0)
200167ec:	800017b7          	lui	a5,0x80001
200167f0:	a3878793          	addi	a5,a5,-1480 # 80000a38 <metal_segment_heap_target_end+0xfffff2c8>
200167f4:	00f71563          	bne	a4,a5,200167fe <__metal_driver_sifive_uart0_pinmux_source_selector+0x20>
/home/jw/Desktop/sifive-standalone-project/bsp/build/debug/./metal/machine.h:1178
		return 196608;
200167f8:	000307b7          	lui	a5,0x30
200167fc:	a829                	j	20016816 <__metal_driver_sifive_uart0_pinmux_source_selector+0x38>
/home/jw/Desktop/sifive-standalone-project/bsp/build/debug/./metal/machine.h:1180
	else if ((uintptr_t)uart == (uintptr_t)&__metal_dt_serial_10023000) {
200167fe:	fec42703          	lw	a4,-20(s0)
20016802:	800017b7          	lui	a5,0x80001
20016806:	a5878793          	addi	a5,a5,-1448 # 80000a58 <metal_segment_heap_target_end+0xfffff2e8>
2001680a:	00f71563          	bne	a4,a5,20016814 <__metal_driver_sifive_uart0_pinmux_source_selector+0x36>
/home/jw/Desktop/sifive-standalone-project/bsp/build/debug/./metal/machine.h:1181
		return 8650752;
2001680e:	008407b7          	lui	a5,0x840
20016812:	a011                	j	20016816 <__metal_driver_sifive_uart0_pinmux_source_selector+0x38>
/home/jw/Desktop/sifive-standalone-project/bsp/build/debug/./metal/machine.h:1184
		return 0;
20016814:	4781                	li	a5,0
/home/jw/Desktop/sifive-standalone-project/bsp/build/debug/./metal/machine.h:1186
}
20016816:	853e                	mv	a0,a5
20016818:	4472                	lw	s0,28(sp)
2001681a:	6105                	addi	sp,sp,32
2001681c:	8082                	ret

2001681e <__metal_driver_sifive_uart0_interrupt_controller>:
__metal_driver_sifive_uart0_interrupt_controller():
/home/jw/Desktop/sifive-standalone-project/freedom-metal/src/drivers/sifive_uart0.c:37
    (__METAL_ACCESS_ONCE((__metal_io_u8 *)UART_REG(offset)))
#define UART_REGW(offset)                                                      \
    (__METAL_ACCESS_ONCE((__metal_io_u32 *)UART_REG(offset)))

struct metal_interrupt *
__metal_driver_sifive_uart0_interrupt_controller(struct metal_uart *uart) {
2001681e:	1101                	addi	sp,sp,-32
20016820:	ce06                	sw	ra,28(sp)
20016822:	cc22                	sw	s0,24(sp)
20016824:	1000                	addi	s0,sp,32
20016826:	fea42623          	sw	a0,-20(s0)
/home/jw/Desktop/sifive-standalone-project/freedom-metal/src/drivers/sifive_uart0.c:38
    return __metal_driver_sifive_uart0_interrupt_parent(uart);
2001682a:	fec42503          	lw	a0,-20(s0)
2001682e:	e69ff0ef          	jal	ra,20016696 <__metal_driver_sifive_uart0_interrupt_parent>
20016832:	87aa                	mv	a5,a0
/home/jw/Desktop/sifive-standalone-project/freedom-metal/src/drivers/sifive_uart0.c:39
}
20016834:	853e                	mv	a0,a5
20016836:	40f2                	lw	ra,28(sp)
20016838:	4462                	lw	s0,24(sp)
2001683a:	6105                	addi	sp,sp,32
2001683c:	8082                	ret

2001683e <__metal_driver_sifive_uart0_get_interrupt_id>:
__metal_driver_sifive_uart0_get_interrupt_id():
/home/jw/Desktop/sifive-standalone-project/freedom-metal/src/drivers/sifive_uart0.c:41

int __metal_driver_sifive_uart0_get_interrupt_id(struct metal_uart *uart) {
2001683e:	1101                	addi	sp,sp,-32
20016840:	ce06                	sw	ra,28(sp)
20016842:	cc22                	sw	s0,24(sp)
20016844:	1000                	addi	s0,sp,32
20016846:	fea42623          	sw	a0,-20(s0)
/home/jw/Desktop/sifive-standalone-project/freedom-metal/src/drivers/sifive_uart0.c:42
    return __metal_driver_sifive_uart0_interrupt_line(uart);
2001684a:	fec42503          	lw	a0,-20(s0)
2001684e:	e91ff0ef          	jal	ra,200166de <__metal_driver_sifive_uart0_interrupt_line>
20016852:	87aa                	mv	a5,a0
/home/jw/Desktop/sifive-standalone-project/freedom-metal/src/drivers/sifive_uart0.c:43
}
20016854:	853e                	mv	a0,a5
20016856:	40f2                	lw	ra,28(sp)
20016858:	4462                	lw	s0,24(sp)
2001685a:	6105                	addi	sp,sp,32
2001685c:	8082                	ret

2001685e <__metal_driver_sifive_uart0_tx_interrupt_enable>:
__metal_driver_sifive_uart0_tx_interrupt_enable():
/home/jw/Desktop/sifive-standalone-project/freedom-metal/src/drivers/sifive_uart0.c:45

int __metal_driver_sifive_uart0_tx_interrupt_enable(struct metal_uart *uart) {
2001685e:	7179                	addi	sp,sp,-48
20016860:	d606                	sw	ra,44(sp)
20016862:	d422                	sw	s0,40(sp)
20016864:	1800                	addi	s0,sp,48
20016866:	fca42e23          	sw	a0,-36(s0)
/home/jw/Desktop/sifive-standalone-project/freedom-metal/src/drivers/sifive_uart0.c:46
    long control_base = __metal_driver_sifive_uart0_control_base(uart);
2001686a:	fdc42503          	lw	a0,-36(s0)
2001686e:	de9ff0ef          	jal	ra,20016656 <__metal_driver_sifive_uart0_control_base>
20016872:	87aa                	mv	a5,a0
20016874:	fef42623          	sw	a5,-20(s0)
/home/jw/Desktop/sifive-standalone-project/freedom-metal/src/drivers/sifive_uart0.c:48

    UART_REGW(METAL_SIFIVE_UART0_IE) |= UART_TXWM;
20016878:	fec42783          	lw	a5,-20(s0)
2001687c:	07c1                	addi	a5,a5,16
2001687e:	439c                	lw	a5,0(a5)
20016880:	fec42703          	lw	a4,-20(s0)
20016884:	0741                	addi	a4,a4,16
20016886:	0017e793          	ori	a5,a5,1
2001688a:	c31c                	sw	a5,0(a4)
/home/jw/Desktop/sifive-standalone-project/freedom-metal/src/drivers/sifive_uart0.c:49
    return 0;
2001688c:	4781                	li	a5,0
/home/jw/Desktop/sifive-standalone-project/freedom-metal/src/drivers/sifive_uart0.c:50
}
2001688e:	853e                	mv	a0,a5
20016890:	50b2                	lw	ra,44(sp)
20016892:	5422                	lw	s0,40(sp)
20016894:	6145                	addi	sp,sp,48
20016896:	8082                	ret

20016898 <__metal_driver_sifive_uart0_tx_interrupt_disable>:
__metal_driver_sifive_uart0_tx_interrupt_disable():
/home/jw/Desktop/sifive-standalone-project/freedom-metal/src/drivers/sifive_uart0.c:52

int __metal_driver_sifive_uart0_tx_interrupt_disable(struct metal_uart *uart) {
20016898:	7179                	addi	sp,sp,-48
2001689a:	d606                	sw	ra,44(sp)
2001689c:	d422                	sw	s0,40(sp)
2001689e:	1800                	addi	s0,sp,48
200168a0:	fca42e23          	sw	a0,-36(s0)
/home/jw/Desktop/sifive-standalone-project/freedom-metal/src/drivers/sifive_uart0.c:53
    long control_base = __metal_driver_sifive_uart0_control_base(uart);
200168a4:	fdc42503          	lw	a0,-36(s0)
200168a8:	dafff0ef          	jal	ra,20016656 <__metal_driver_sifive_uart0_control_base>
200168ac:	87aa                	mv	a5,a0
200168ae:	fef42623          	sw	a5,-20(s0)
/home/jw/Desktop/sifive-standalone-project/freedom-metal/src/drivers/sifive_uart0.c:55

    UART_REGW(METAL_SIFIVE_UART0_IE) &= ~UART_TXWM;
200168b2:	fec42783          	lw	a5,-20(s0)
200168b6:	07c1                	addi	a5,a5,16
200168b8:	439c                	lw	a5,0(a5)
200168ba:	fec42703          	lw	a4,-20(s0)
200168be:	0741                	addi	a4,a4,16
200168c0:	9bf9                	andi	a5,a5,-2
200168c2:	c31c                	sw	a5,0(a4)
/home/jw/Desktop/sifive-standalone-project/freedom-metal/src/drivers/sifive_uart0.c:56
    return 0;
200168c4:	4781                	li	a5,0
/home/jw/Desktop/sifive-standalone-project/freedom-metal/src/drivers/sifive_uart0.c:57
}
200168c6:	853e                	mv	a0,a5
200168c8:	50b2                	lw	ra,44(sp)
200168ca:	5422                	lw	s0,40(sp)
200168cc:	6145                	addi	sp,sp,48
200168ce:	8082                	ret

200168d0 <__metal_driver_sifive_uart0_rx_interrupt_enable>:
__metal_driver_sifive_uart0_rx_interrupt_enable():
/home/jw/Desktop/sifive-standalone-project/freedom-metal/src/drivers/sifive_uart0.c:59

int __metal_driver_sifive_uart0_rx_interrupt_enable(struct metal_uart *uart) {
200168d0:	7179                	addi	sp,sp,-48
200168d2:	d606                	sw	ra,44(sp)
200168d4:	d422                	sw	s0,40(sp)
200168d6:	1800                	addi	s0,sp,48
200168d8:	fca42e23          	sw	a0,-36(s0)
/home/jw/Desktop/sifive-standalone-project/freedom-metal/src/drivers/sifive_uart0.c:60
    long control_base = __metal_driver_sifive_uart0_control_base(uart);
200168dc:	fdc42503          	lw	a0,-36(s0)
200168e0:	d77ff0ef          	jal	ra,20016656 <__metal_driver_sifive_uart0_control_base>
200168e4:	87aa                	mv	a5,a0
200168e6:	fef42623          	sw	a5,-20(s0)
/home/jw/Desktop/sifive-standalone-project/freedom-metal/src/drivers/sifive_uart0.c:62

    UART_REGW(METAL_SIFIVE_UART0_IE) |= UART_RXWM;
200168ea:	fec42783          	lw	a5,-20(s0)
200168ee:	07c1                	addi	a5,a5,16
200168f0:	439c                	lw	a5,0(a5)
200168f2:	fec42703          	lw	a4,-20(s0)
200168f6:	0741                	addi	a4,a4,16
200168f8:	0027e793          	ori	a5,a5,2
200168fc:	c31c                	sw	a5,0(a4)
/home/jw/Desktop/sifive-standalone-project/freedom-metal/src/drivers/sifive_uart0.c:63
    return 0;
200168fe:	4781                	li	a5,0
/home/jw/Desktop/sifive-standalone-project/freedom-metal/src/drivers/sifive_uart0.c:64
}
20016900:	853e                	mv	a0,a5
20016902:	50b2                	lw	ra,44(sp)
20016904:	5422                	lw	s0,40(sp)
20016906:	6145                	addi	sp,sp,48
20016908:	8082                	ret

2001690a <__metal_driver_sifive_uart0_rx_interrupt_disable>:
__metal_driver_sifive_uart0_rx_interrupt_disable():
/home/jw/Desktop/sifive-standalone-project/freedom-metal/src/drivers/sifive_uart0.c:66

int __metal_driver_sifive_uart0_rx_interrupt_disable(struct metal_uart *uart) {
2001690a:	7179                	addi	sp,sp,-48
2001690c:	d606                	sw	ra,44(sp)
2001690e:	d422                	sw	s0,40(sp)
20016910:	1800                	addi	s0,sp,48
20016912:	fca42e23          	sw	a0,-36(s0)
/home/jw/Desktop/sifive-standalone-project/freedom-metal/src/drivers/sifive_uart0.c:67
    long control_base = __metal_driver_sifive_uart0_control_base(uart);
20016916:	fdc42503          	lw	a0,-36(s0)
2001691a:	d3dff0ef          	jal	ra,20016656 <__metal_driver_sifive_uart0_control_base>
2001691e:	87aa                	mv	a5,a0
20016920:	fef42623          	sw	a5,-20(s0)
/home/jw/Desktop/sifive-standalone-project/freedom-metal/src/drivers/sifive_uart0.c:69

    UART_REGW(METAL_SIFIVE_UART0_IE) &= ~UART_RXWM;
20016924:	fec42783          	lw	a5,-20(s0)
20016928:	07c1                	addi	a5,a5,16
2001692a:	439c                	lw	a5,0(a5)
2001692c:	fec42703          	lw	a4,-20(s0)
20016930:	0741                	addi	a4,a4,16
20016932:	9bf5                	andi	a5,a5,-3
20016934:	c31c                	sw	a5,0(a4)
/home/jw/Desktop/sifive-standalone-project/freedom-metal/src/drivers/sifive_uart0.c:70
    return 0;
20016936:	4781                	li	a5,0
/home/jw/Desktop/sifive-standalone-project/freedom-metal/src/drivers/sifive_uart0.c:71
}
20016938:	853e                	mv	a0,a5
2001693a:	50b2                	lw	ra,44(sp)
2001693c:	5422                	lw	s0,40(sp)
2001693e:	6145                	addi	sp,sp,48
20016940:	8082                	ret

20016942 <__metal_driver_sifive_uart0_txready>:
__metal_driver_sifive_uart0_txready():
/home/jw/Desktop/sifive-standalone-project/freedom-metal/src/drivers/sifive_uart0.c:73

int __metal_driver_sifive_uart0_txready(struct metal_uart *uart) {
20016942:	7179                	addi	sp,sp,-48
20016944:	d606                	sw	ra,44(sp)
20016946:	d422                	sw	s0,40(sp)
20016948:	1800                	addi	s0,sp,48
2001694a:	fca42e23          	sw	a0,-36(s0)
/home/jw/Desktop/sifive-standalone-project/freedom-metal/src/drivers/sifive_uart0.c:74
    long control_base = __metal_driver_sifive_uart0_control_base(uart);
2001694e:	fdc42503          	lw	a0,-36(s0)
20016952:	d05ff0ef          	jal	ra,20016656 <__metal_driver_sifive_uart0_control_base>
20016956:	87aa                	mv	a5,a0
20016958:	fef42623          	sw	a5,-20(s0)
/home/jw/Desktop/sifive-standalone-project/freedom-metal/src/drivers/sifive_uart0.c:76

    return !!((UART_REGW(METAL_SIFIVE_UART0_TXDATA) & UART_TXFULL));
2001695c:	fec42783          	lw	a5,-20(s0)
20016960:	439c                	lw	a5,0(a5)
20016962:	83fd                	srli	a5,a5,0x1f
20016964:	0ff7f793          	zext.b	a5,a5
/home/jw/Desktop/sifive-standalone-project/freedom-metal/src/drivers/sifive_uart0.c:77
}
20016968:	853e                	mv	a0,a5
2001696a:	50b2                	lw	ra,44(sp)
2001696c:	5422                	lw	s0,40(sp)
2001696e:	6145                	addi	sp,sp,48
20016970:	8082                	ret

20016972 <__metal_driver_sifive_uart0_set_tx_watermark>:
__metal_driver_sifive_uart0_set_tx_watermark():
/home/jw/Desktop/sifive-standalone-project/freedom-metal/src/drivers/sifive_uart0.c:80

int __metal_driver_sifive_uart0_set_tx_watermark(struct metal_uart *uart,
                                                 size_t level) {
20016972:	7179                	addi	sp,sp,-48
20016974:	d606                	sw	ra,44(sp)
20016976:	d422                	sw	s0,40(sp)
20016978:	1800                	addi	s0,sp,48
2001697a:	fca42e23          	sw	a0,-36(s0)
2001697e:	fcb42c23          	sw	a1,-40(s0)
/home/jw/Desktop/sifive-standalone-project/freedom-metal/src/drivers/sifive_uart0.c:81
    long control_base = __metal_driver_sifive_uart0_control_base(uart);
20016982:	fdc42503          	lw	a0,-36(s0)
20016986:	cd1ff0ef          	jal	ra,20016656 <__metal_driver_sifive_uart0_control_base>
2001698a:	87aa                	mv	a5,a0
2001698c:	fef42623          	sw	a5,-20(s0)
/home/jw/Desktop/sifive-standalone-project/freedom-metal/src/drivers/sifive_uart0.c:83

    UART_REGW(METAL_SIFIVE_UART0_TXCTRL) |= UART_TXCNT(level);
20016990:	fec42783          	lw	a5,-20(s0)
20016994:	07a1                	addi	a5,a5,8
20016996:	4398                	lw	a4,0(a5)
20016998:	fd842783          	lw	a5,-40(s0)
2001699c:	01079693          	slli	a3,a5,0x10
200169a0:	000707b7          	lui	a5,0x70
200169a4:	8ff5                	and	a5,a5,a3
200169a6:	fec42683          	lw	a3,-20(s0)
200169aa:	06a1                	addi	a3,a3,8
200169ac:	8fd9                	or	a5,a5,a4
200169ae:	c29c                	sw	a5,0(a3)
/home/jw/Desktop/sifive-standalone-project/freedom-metal/src/drivers/sifive_uart0.c:84
    return 0;
200169b0:	4781                	li	a5,0
/home/jw/Desktop/sifive-standalone-project/freedom-metal/src/drivers/sifive_uart0.c:85
}
200169b2:	853e                	mv	a0,a5
200169b4:	50b2                	lw	ra,44(sp)
200169b6:	5422                	lw	s0,40(sp)
200169b8:	6145                	addi	sp,sp,48
200169ba:	8082                	ret

200169bc <__metal_driver_sifive_uart0_get_tx_watermark>:
__metal_driver_sifive_uart0_get_tx_watermark():
/home/jw/Desktop/sifive-standalone-project/freedom-metal/src/drivers/sifive_uart0.c:87

size_t __metal_driver_sifive_uart0_get_tx_watermark(struct metal_uart *uart) {
200169bc:	7179                	addi	sp,sp,-48
200169be:	d606                	sw	ra,44(sp)
200169c0:	d422                	sw	s0,40(sp)
200169c2:	1800                	addi	s0,sp,48
200169c4:	fca42e23          	sw	a0,-36(s0)
/home/jw/Desktop/sifive-standalone-project/freedom-metal/src/drivers/sifive_uart0.c:88
    long control_base = __metal_driver_sifive_uart0_control_base(uart);
200169c8:	fdc42503          	lw	a0,-36(s0)
200169cc:	c8bff0ef          	jal	ra,20016656 <__metal_driver_sifive_uart0_control_base>
200169d0:	87aa                	mv	a5,a0
200169d2:	fef42623          	sw	a5,-20(s0)
/home/jw/Desktop/sifive-standalone-project/freedom-metal/src/drivers/sifive_uart0.c:90

    return ((UART_REGW(METAL_SIFIVE_UART0_TXCTRL) >> 16) & 0x7);
200169d6:	fec42783          	lw	a5,-20(s0)
200169da:	07a1                	addi	a5,a5,8
200169dc:	439c                	lw	a5,0(a5)
200169de:	83c1                	srli	a5,a5,0x10
200169e0:	8b9d                	andi	a5,a5,7
/home/jw/Desktop/sifive-standalone-project/freedom-metal/src/drivers/sifive_uart0.c:91
}
200169e2:	853e                	mv	a0,a5
200169e4:	50b2                	lw	ra,44(sp)
200169e6:	5422                	lw	s0,40(sp)
200169e8:	6145                	addi	sp,sp,48
200169ea:	8082                	ret

200169ec <__metal_driver_sifive_uart0_set_rx_watermark>:
__metal_driver_sifive_uart0_set_rx_watermark():
/home/jw/Desktop/sifive-standalone-project/freedom-metal/src/drivers/sifive_uart0.c:94

int __metal_driver_sifive_uart0_set_rx_watermark(struct metal_uart *uart,
                                                 size_t level) {
200169ec:	7179                	addi	sp,sp,-48
200169ee:	d606                	sw	ra,44(sp)
200169f0:	d422                	sw	s0,40(sp)
200169f2:	1800                	addi	s0,sp,48
200169f4:	fca42e23          	sw	a0,-36(s0)
200169f8:	fcb42c23          	sw	a1,-40(s0)
/home/jw/Desktop/sifive-standalone-project/freedom-metal/src/drivers/sifive_uart0.c:95
    long control_base = __metal_driver_sifive_uart0_control_base(uart);
200169fc:	fdc42503          	lw	a0,-36(s0)
20016a00:	c57ff0ef          	jal	ra,20016656 <__metal_driver_sifive_uart0_control_base>
20016a04:	87aa                	mv	a5,a0
20016a06:	fef42623          	sw	a5,-20(s0)
/home/jw/Desktop/sifive-standalone-project/freedom-metal/src/drivers/sifive_uart0.c:97

    UART_REGW(METAL_SIFIVE_UART0_RXCTRL) |= UART_RXCNT(level);
20016a0a:	fec42783          	lw	a5,-20(s0)
20016a0e:	07b1                	addi	a5,a5,12
20016a10:	4398                	lw	a4,0(a5)
20016a12:	fd842783          	lw	a5,-40(s0)
20016a16:	01079693          	slli	a3,a5,0x10
20016a1a:	000707b7          	lui	a5,0x70
20016a1e:	8ff5                	and	a5,a5,a3
20016a20:	fec42683          	lw	a3,-20(s0)
20016a24:	06b1                	addi	a3,a3,12
20016a26:	8fd9                	or	a5,a5,a4
20016a28:	c29c                	sw	a5,0(a3)
/home/jw/Desktop/sifive-standalone-project/freedom-metal/src/drivers/sifive_uart0.c:98
    return 0;
20016a2a:	4781                	li	a5,0
/home/jw/Desktop/sifive-standalone-project/freedom-metal/src/drivers/sifive_uart0.c:99
}
20016a2c:	853e                	mv	a0,a5
20016a2e:	50b2                	lw	ra,44(sp)
20016a30:	5422                	lw	s0,40(sp)
20016a32:	6145                	addi	sp,sp,48
20016a34:	8082                	ret

20016a36 <__metal_driver_sifive_uart0_get_rx_watermark>:
__metal_driver_sifive_uart0_get_rx_watermark():
/home/jw/Desktop/sifive-standalone-project/freedom-metal/src/drivers/sifive_uart0.c:101

size_t __metal_driver_sifive_uart0_get_rx_watermark(struct metal_uart *uart) {
20016a36:	7179                	addi	sp,sp,-48
20016a38:	d606                	sw	ra,44(sp)
20016a3a:	d422                	sw	s0,40(sp)
20016a3c:	1800                	addi	s0,sp,48
20016a3e:	fca42e23          	sw	a0,-36(s0)
/home/jw/Desktop/sifive-standalone-project/freedom-metal/src/drivers/sifive_uart0.c:102
    long control_base = __metal_driver_sifive_uart0_control_base(uart);
20016a42:	fdc42503          	lw	a0,-36(s0)
20016a46:	c11ff0ef          	jal	ra,20016656 <__metal_driver_sifive_uart0_control_base>
20016a4a:	87aa                	mv	a5,a0
20016a4c:	fef42623          	sw	a5,-20(s0)
/home/jw/Desktop/sifive-standalone-project/freedom-metal/src/drivers/sifive_uart0.c:104

    return ((UART_REGW(METAL_SIFIVE_UART0_RXCTRL) >> 16) & 0x7);
20016a50:	fec42783          	lw	a5,-20(s0)
20016a54:	07b1                	addi	a5,a5,12
20016a56:	439c                	lw	a5,0(a5)
20016a58:	83c1                	srli	a5,a5,0x10
20016a5a:	8b9d                	andi	a5,a5,7
/home/jw/Desktop/sifive-standalone-project/freedom-metal/src/drivers/sifive_uart0.c:105
}
20016a5c:	853e                	mv	a0,a5
20016a5e:	50b2                	lw	ra,44(sp)
20016a60:	5422                	lw	s0,40(sp)
20016a62:	6145                	addi	sp,sp,48
20016a64:	8082                	ret

20016a66 <__metal_driver_sifive_uart0_putc>:
__metal_driver_sifive_uart0_putc():
/home/jw/Desktop/sifive-standalone-project/freedom-metal/src/drivers/sifive_uart0.c:107

int __metal_driver_sifive_uart0_putc(struct metal_uart *uart, int c) {
20016a66:	7179                	addi	sp,sp,-48
20016a68:	d606                	sw	ra,44(sp)
20016a6a:	d422                	sw	s0,40(sp)
20016a6c:	1800                	addi	s0,sp,48
20016a6e:	fca42e23          	sw	a0,-36(s0)
20016a72:	fcb42c23          	sw	a1,-40(s0)
/home/jw/Desktop/sifive-standalone-project/freedom-metal/src/drivers/sifive_uart0.c:108
    long control_base = __metal_driver_sifive_uart0_control_base(uart);
20016a76:	fdc42503          	lw	a0,-36(s0)
20016a7a:	bddff0ef          	jal	ra,20016656 <__metal_driver_sifive_uart0_control_base>
20016a7e:	87aa                	mv	a5,a0
20016a80:	fef42623          	sw	a5,-20(s0)
/home/jw/Desktop/sifive-standalone-project/freedom-metal/src/drivers/sifive_uart0.c:110

    while (__metal_driver_sifive_uart0_txready(uart) != 0) {
20016a84:	0001                	nop
/home/jw/Desktop/sifive-standalone-project/freedom-metal/src/drivers/sifive_uart0.c:110 (discriminator 1)
20016a86:	fdc42503          	lw	a0,-36(s0)
20016a8a:	eb9ff0ef          	jal	ra,20016942 <__metal_driver_sifive_uart0_txready>
20016a8e:	87aa                	mv	a5,a0
20016a90:	fbfd                	bnez	a5,20016a86 <__metal_driver_sifive_uart0_putc+0x20>
/home/jw/Desktop/sifive-standalone-project/freedom-metal/src/drivers/sifive_uart0.c:113
        /* wait */
    }
    UART_REGW(METAL_SIFIVE_UART0_TXDATA) = c;
20016a92:	fec42783          	lw	a5,-20(s0)
20016a96:	fd842703          	lw	a4,-40(s0)
20016a9a:	c398                	sw	a4,0(a5)
/home/jw/Desktop/sifive-standalone-project/freedom-metal/src/drivers/sifive_uart0.c:114
    return 0;
20016a9c:	4781                	li	a5,0
/home/jw/Desktop/sifive-standalone-project/freedom-metal/src/drivers/sifive_uart0.c:115
}
20016a9e:	853e                	mv	a0,a5
20016aa0:	50b2                	lw	ra,44(sp)
20016aa2:	5422                	lw	s0,40(sp)
20016aa4:	6145                	addi	sp,sp,48
20016aa6:	8082                	ret

20016aa8 <__metal_driver_sifive_uart0_getc>:
__metal_driver_sifive_uart0_getc():
/home/jw/Desktop/sifive-standalone-project/freedom-metal/src/drivers/sifive_uart0.c:117

int __metal_driver_sifive_uart0_getc(struct metal_uart *uart, int *c) {
20016aa8:	7179                	addi	sp,sp,-48
20016aaa:	d606                	sw	ra,44(sp)
20016aac:	d422                	sw	s0,40(sp)
20016aae:	1800                	addi	s0,sp,48
20016ab0:	fca42e23          	sw	a0,-36(s0)
20016ab4:	fcb42c23          	sw	a1,-40(s0)
/home/jw/Desktop/sifive-standalone-project/freedom-metal/src/drivers/sifive_uart0.c:119
    uint32_t ch;
    long control_base = __metal_driver_sifive_uart0_control_base(uart);
20016ab8:	fdc42503          	lw	a0,-36(s0)
20016abc:	b9bff0ef          	jal	ra,20016656 <__metal_driver_sifive_uart0_control_base>
20016ac0:	87aa                	mv	a5,a0
20016ac2:	fef42623          	sw	a5,-20(s0)
/home/jw/Desktop/sifive-standalone-project/freedom-metal/src/drivers/sifive_uart0.c:121
    /* No seperate status register, we get status and the byte at same time */
    ch = UART_REGW(METAL_SIFIVE_UART0_RXDATA);
20016ac6:	fec42783          	lw	a5,-20(s0)
20016aca:	0791                	addi	a5,a5,4
20016acc:	439c                	lw	a5,0(a5)
20016ace:	fef42423          	sw	a5,-24(s0)
/home/jw/Desktop/sifive-standalone-project/freedom-metal/src/drivers/sifive_uart0.c:123
    ;
    if (ch & UART_RXEMPTY) {
20016ad2:	fe842783          	lw	a5,-24(s0)
20016ad6:	0007d763          	bgez	a5,20016ae4 <__metal_driver_sifive_uart0_getc+0x3c>
/home/jw/Desktop/sifive-standalone-project/freedom-metal/src/drivers/sifive_uart0.c:124
        *c = -1; /* aka: EOF in most of the world */
20016ada:	fd842783          	lw	a5,-40(s0)
20016ade:	577d                	li	a4,-1
20016ae0:	c398                	sw	a4,0(a5)
20016ae2:	a801                	j	20016af2 <__metal_driver_sifive_uart0_getc+0x4a>
/home/jw/Desktop/sifive-standalone-project/freedom-metal/src/drivers/sifive_uart0.c:126
    } else {
        *c = ch & 0x0ff;
20016ae4:	fe842783          	lw	a5,-24(s0)
20016ae8:	0ff7f713          	zext.b	a4,a5
20016aec:	fd842783          	lw	a5,-40(s0)
20016af0:	c398                	sw	a4,0(a5)
/home/jw/Desktop/sifive-standalone-project/freedom-metal/src/drivers/sifive_uart0.c:128
    }
    return 0;
20016af2:	4781                	li	a5,0
/home/jw/Desktop/sifive-standalone-project/freedom-metal/src/drivers/sifive_uart0.c:129
}
20016af4:	853e                	mv	a0,a5
20016af6:	50b2                	lw	ra,44(sp)
20016af8:	5422                	lw	s0,40(sp)
20016afa:	6145                	addi	sp,sp,48
20016afc:	8082                	ret

20016afe <__metal_driver_sifive_uart0_get_baud_rate>:
__metal_driver_sifive_uart0_get_baud_rate():
/home/jw/Desktop/sifive-standalone-project/freedom-metal/src/drivers/sifive_uart0.c:131

int __metal_driver_sifive_uart0_get_baud_rate(struct metal_uart *guart) {
20016afe:	7179                	addi	sp,sp,-48
20016b00:	d622                	sw	s0,44(sp)
20016b02:	1800                	addi	s0,sp,48
20016b04:	fca42e23          	sw	a0,-36(s0)
/home/jw/Desktop/sifive-standalone-project/freedom-metal/src/drivers/sifive_uart0.c:132
    struct __metal_driver_sifive_uart0 *uart = (void *)guart;
20016b08:	fdc42783          	lw	a5,-36(s0)
20016b0c:	fef42623          	sw	a5,-20(s0)
/home/jw/Desktop/sifive-standalone-project/freedom-metal/src/drivers/sifive_uart0.c:133
    return uart->baud_rate;
20016b10:	fec42783          	lw	a5,-20(s0)
20016b14:	43dc                	lw	a5,4(a5)
/home/jw/Desktop/sifive-standalone-project/freedom-metal/src/drivers/sifive_uart0.c:134
}
20016b16:	853e                	mv	a0,a5
20016b18:	5432                	lw	s0,44(sp)
20016b1a:	6145                	addi	sp,sp,48
20016b1c:	8082                	ret

20016b1e <__metal_driver_sifive_uart0_set_baud_rate>:
__metal_driver_sifive_uart0_set_baud_rate():
/home/jw/Desktop/sifive-standalone-project/freedom-metal/src/drivers/sifive_uart0.c:137

int __metal_driver_sifive_uart0_set_baud_rate(struct metal_uart *guart,
                                              int baud_rate) {
20016b1e:	7179                	addi	sp,sp,-48
20016b20:	d606                	sw	ra,44(sp)
20016b22:	d422                	sw	s0,40(sp)
20016b24:	1800                	addi	s0,sp,48
20016b26:	fca42e23          	sw	a0,-36(s0)
20016b2a:	fcb42c23          	sw	a1,-40(s0)
/home/jw/Desktop/sifive-standalone-project/freedom-metal/src/drivers/sifive_uart0.c:138
    struct __metal_driver_sifive_uart0 *uart = (void *)guart;
20016b2e:	fdc42783          	lw	a5,-36(s0)
20016b32:	fef42623          	sw	a5,-20(s0)
/home/jw/Desktop/sifive-standalone-project/freedom-metal/src/drivers/sifive_uart0.c:139
    long control_base = __metal_driver_sifive_uart0_control_base(guart);
20016b36:	fdc42503          	lw	a0,-36(s0)
20016b3a:	b1dff0ef          	jal	ra,20016656 <__metal_driver_sifive_uart0_control_base>
20016b3e:	87aa                	mv	a5,a0
20016b40:	fef42423          	sw	a5,-24(s0)
/home/jw/Desktop/sifive-standalone-project/freedom-metal/src/drivers/sifive_uart0.c:140
    struct metal_clock *clock = __metal_driver_sifive_uart0_clock(guart);
20016b44:	fdc42503          	lw	a0,-36(s0)
20016b48:	bd3ff0ef          	jal	ra,2001671a <__metal_driver_sifive_uart0_clock>
20016b4c:	fea42223          	sw	a0,-28(s0)
/home/jw/Desktop/sifive-standalone-project/freedom-metal/src/drivers/sifive_uart0.c:142

    uart->baud_rate = baud_rate;
20016b50:	fd842703          	lw	a4,-40(s0)
20016b54:	fec42783          	lw	a5,-20(s0)
20016b58:	c3d8                	sw	a4,4(a5)
/home/jw/Desktop/sifive-standalone-project/freedom-metal/src/drivers/sifive_uart0.c:144

    if (clock != NULL) {
20016b5a:	fe442783          	lw	a5,-28(s0)
20016b5e:	cbb1                	beqz	a5,20016bb2 <__metal_driver_sifive_uart0_set_baud_rate+0x94>
/home/jw/Desktop/sifive-standalone-project/freedom-metal/src/drivers/sifive_uart0.c:145
        long clock_rate = clock->vtable->get_rate_hz(clock);
20016b60:	fe442783          	lw	a5,-28(s0)
20016b64:	439c                	lw	a5,0(a5)
20016b66:	439c                	lw	a5,0(a5)
20016b68:	fe442503          	lw	a0,-28(s0)
20016b6c:	9782                	jalr	a5
20016b6e:	fea42023          	sw	a0,-32(s0)
/home/jw/Desktop/sifive-standalone-project/freedom-metal/src/drivers/sifive_uart0.c:146
        UART_REGW(METAL_SIFIVE_UART0_DIV) = clock_rate / baud_rate - 1;
20016b72:	fe042703          	lw	a4,-32(s0)
20016b76:	fd842783          	lw	a5,-40(s0)
20016b7a:	02f747b3          	div	a5,a4,a5
20016b7e:	fff78713          	addi	a4,a5,-1 # 6ffff <__heap_size+0x6f7ff>
20016b82:	fe842783          	lw	a5,-24(s0)
20016b86:	07e1                	addi	a5,a5,24
20016b88:	c398                	sw	a4,0(a5)
/home/jw/Desktop/sifive-standalone-project/freedom-metal/src/drivers/sifive_uart0.c:147
        UART_REGW(METAL_SIFIVE_UART0_TXCTRL) |= UART_TXEN;
20016b8a:	fe842783          	lw	a5,-24(s0)
20016b8e:	07a1                	addi	a5,a5,8
20016b90:	439c                	lw	a5,0(a5)
20016b92:	fe842703          	lw	a4,-24(s0)
20016b96:	0721                	addi	a4,a4,8
20016b98:	0017e793          	ori	a5,a5,1
20016b9c:	c31c                	sw	a5,0(a4)
/home/jw/Desktop/sifive-standalone-project/freedom-metal/src/drivers/sifive_uart0.c:148
        UART_REGW(METAL_SIFIVE_UART0_RXCTRL) |= UART_RXEN;
20016b9e:	fe842783          	lw	a5,-24(s0)
20016ba2:	07b1                	addi	a5,a5,12
20016ba4:	439c                	lw	a5,0(a5)
20016ba6:	fe842703          	lw	a4,-24(s0)
20016baa:	0731                	addi	a4,a4,12
20016bac:	0017e793          	ori	a5,a5,1
20016bb0:	c31c                	sw	a5,0(a4)
/home/jw/Desktop/sifive-standalone-project/freedom-metal/src/drivers/sifive_uart0.c:150
    }
    return 0;
20016bb2:	4781                	li	a5,0
/home/jw/Desktop/sifive-standalone-project/freedom-metal/src/drivers/sifive_uart0.c:151
}
20016bb4:	853e                	mv	a0,a5
20016bb6:	50b2                	lw	ra,44(sp)
20016bb8:	5422                	lw	s0,40(sp)
20016bba:	6145                	addi	sp,sp,48
20016bbc:	8082                	ret

20016bbe <pre_rate_change_callback_func>:
pre_rate_change_callback_func():
/home/jw/Desktop/sifive-standalone-project/freedom-metal/src/drivers/sifive_uart0.c:153

static void pre_rate_change_callback_func(void *priv) {
20016bbe:	7139                	addi	sp,sp,-64
20016bc0:	de06                	sw	ra,60(sp)
20016bc2:	dc22                	sw	s0,56(sp)
20016bc4:	0080                	addi	s0,sp,64
20016bc6:	fca42623          	sw	a0,-52(s0)
/home/jw/Desktop/sifive-standalone-project/freedom-metal/src/drivers/sifive_uart0.c:154
    struct __metal_driver_sifive_uart0 *uart = priv;
20016bca:	fcc42783          	lw	a5,-52(s0)
20016bce:	fef42623          	sw	a5,-20(s0)
/home/jw/Desktop/sifive-standalone-project/freedom-metal/src/drivers/sifive_uart0.c:156
    long control_base =
        __metal_driver_sifive_uart0_control_base((struct metal_uart *)priv);
20016bd2:	fcc42503          	lw	a0,-52(s0)
20016bd6:	a81ff0ef          	jal	ra,20016656 <__metal_driver_sifive_uart0_control_base>
20016bda:	87aa                	mv	a5,a0
/home/jw/Desktop/sifive-standalone-project/freedom-metal/src/drivers/sifive_uart0.c:155
    long control_base =
20016bdc:	fef42423          	sw	a5,-24(s0)
/home/jw/Desktop/sifive-standalone-project/freedom-metal/src/drivers/sifive_uart0.c:158
    struct metal_clock *clock =
        __metal_driver_sifive_uart0_clock((struct metal_uart *)priv);
20016be0:	fcc42503          	lw	a0,-52(s0)
20016be4:	b37ff0ef          	jal	ra,2001671a <__metal_driver_sifive_uart0_clock>
20016be8:	fea42223          	sw	a0,-28(s0)
/home/jw/Desktop/sifive-standalone-project/freedom-metal/src/drivers/sifive_uart0.c:163

    /* Detect when the TXDATA is empty by setting the transmit watermark count
     * to one and waiting until an interrupt is pending */

    UART_REGW(METAL_SIFIVE_UART0_TXCTRL) &= ~(UART_TXCNT(0x7));
20016bec:	fe842783          	lw	a5,-24(s0)
20016bf0:	07a1                	addi	a5,a5,8
20016bf2:	4398                	lw	a4,0(a5)
20016bf4:	fe842783          	lw	a5,-24(s0)
20016bf8:	07a1                	addi	a5,a5,8
20016bfa:	86be                	mv	a3,a5
20016bfc:	fff907b7          	lui	a5,0xfff90
20016c00:	17fd                	addi	a5,a5,-1
20016c02:	8ff9                	and	a5,a5,a4
20016c04:	c29c                	sw	a5,0(a3)
/home/jw/Desktop/sifive-standalone-project/freedom-metal/src/drivers/sifive_uart0.c:164
    UART_REGW(METAL_SIFIVE_UART0_TXCTRL) |= UART_TXCNT(1);
20016c06:	fe842783          	lw	a5,-24(s0)
20016c0a:	07a1                	addi	a5,a5,8
20016c0c:	4398                	lw	a4,0(a5)
20016c0e:	fe842783          	lw	a5,-24(s0)
20016c12:	07a1                	addi	a5,a5,8
20016c14:	86be                	mv	a3,a5
20016c16:	67c1                	lui	a5,0x10
20016c18:	8fd9                	or	a5,a5,a4
20016c1a:	c29c                	sw	a5,0(a3)
/home/jw/Desktop/sifive-standalone-project/freedom-metal/src/drivers/sifive_uart0.c:166

    while ((UART_REGW(METAL_SIFIVE_UART0_IP) & UART_TXWM) == 0)
20016c1c:	0001                	nop
/home/jw/Desktop/sifive-standalone-project/freedom-metal/src/drivers/sifive_uart0.c:166 (discriminator 1)
20016c1e:	fe842783          	lw	a5,-24(s0)
20016c22:	07d1                	addi	a5,a5,20
20016c24:	439c                	lw	a5,0(a5)
20016c26:	8b85                	andi	a5,a5,1
20016c28:	dbfd                	beqz	a5,20016c1e <pre_rate_change_callback_func+0x60>
/home/jw/Desktop/sifive-standalone-project/freedom-metal/src/drivers/sifive_uart0.c:174
    /* When the TXDATA clears, the UART is still shifting out the last byte.
     * Calculate the time we must drain to finish transmitting and then wait
     * that long. */

    long bits_per_symbol =
        (UART_REGW(METAL_SIFIVE_UART0_TXCTRL) & (1 << 1)) ? 9 : 10;
20016c2a:	fe842783          	lw	a5,-24(s0)
20016c2e:	07a1                	addi	a5,a5,8
20016c30:	439c                	lw	a5,0(a5)
20016c32:	8b89                	andi	a5,a5,2
20016c34:	c399                	beqz	a5,20016c3a <pre_rate_change_callback_func+0x7c>
/home/jw/Desktop/sifive-standalone-project/freedom-metal/src/drivers/sifive_uart0.c:174 (discriminator 1)
20016c36:	47a5                	li	a5,9
20016c38:	a011                	j	20016c3c <pre_rate_change_callback_func+0x7e>
/home/jw/Desktop/sifive-standalone-project/freedom-metal/src/drivers/sifive_uart0.c:174 (discriminator 2)
20016c3a:	47a9                	li	a5,10
/home/jw/Desktop/sifive-standalone-project/freedom-metal/src/drivers/sifive_uart0.c:173
    long bits_per_symbol =
20016c3c:	fef42023          	sw	a5,-32(s0)
/home/jw/Desktop/sifive-standalone-project/freedom-metal/src/drivers/sifive_uart0.c:175
    long clk_freq = clock->vtable->get_rate_hz(clock);
20016c40:	fe442783          	lw	a5,-28(s0)
20016c44:	439c                	lw	a5,0(a5)
20016c46:	439c                	lw	a5,0(a5)
20016c48:	fe442503          	lw	a0,-28(s0)
20016c4c:	9782                	jalr	a5
20016c4e:	fca42e23          	sw	a0,-36(s0)
/home/jw/Desktop/sifive-standalone-project/freedom-metal/src/drivers/sifive_uart0.c:176
    long cycles_to_wait = bits_per_symbol * clk_freq / uart->baud_rate;
20016c52:	fe042703          	lw	a4,-32(s0)
20016c56:	fdc42783          	lw	a5,-36(s0)
20016c5a:	02f707b3          	mul	a5,a4,a5
20016c5e:	873e                	mv	a4,a5
20016c60:	fec42783          	lw	a5,-20(s0)
20016c64:	43dc                	lw	a5,4(a5)
20016c66:	02f757b3          	divu	a5,a4,a5
20016c6a:	fcf42c23          	sw	a5,-40(s0)
/home/jw/Desktop/sifive-standalone-project/freedom-metal/src/drivers/sifive_uart0.c:178

    for (volatile long x = 0; x < cycles_to_wait; x++)
20016c6e:	fc042a23          	sw	zero,-44(s0)
20016c72:	a039                	j	20016c80 <pre_rate_change_callback_func+0xc2>
/home/jw/Desktop/sifive-standalone-project/freedom-metal/src/drivers/sifive_uart0.c:179 (discriminator 3)
        __asm__("nop");
20016c74:	0001                	nop
/home/jw/Desktop/sifive-standalone-project/freedom-metal/src/drivers/sifive_uart0.c:178 (discriminator 3)
    for (volatile long x = 0; x < cycles_to_wait; x++)
20016c76:	fd442783          	lw	a5,-44(s0)
20016c7a:	0785                	addi	a5,a5,1
20016c7c:	fcf42a23          	sw	a5,-44(s0)
/home/jw/Desktop/sifive-standalone-project/freedom-metal/src/drivers/sifive_uart0.c:178 (discriminator 1)
20016c80:	fd442783          	lw	a5,-44(s0)
20016c84:	fd842703          	lw	a4,-40(s0)
20016c88:	fee7c6e3          	blt	a5,a4,20016c74 <pre_rate_change_callback_func+0xb6>
/home/jw/Desktop/sifive-standalone-project/freedom-metal/src/drivers/sifive_uart0.c:180
}
20016c8c:	0001                	nop
20016c8e:	0001                	nop
20016c90:	50f2                	lw	ra,60(sp)
20016c92:	5462                	lw	s0,56(sp)
20016c94:	6121                	addi	sp,sp,64
20016c96:	8082                	ret

20016c98 <post_rate_change_callback_func>:
post_rate_change_callback_func():
/home/jw/Desktop/sifive-standalone-project/freedom-metal/src/drivers/sifive_uart0.c:182

static void post_rate_change_callback_func(void *priv) {
20016c98:	7179                	addi	sp,sp,-48
20016c9a:	d606                	sw	ra,44(sp)
20016c9c:	d422                	sw	s0,40(sp)
20016c9e:	1800                	addi	s0,sp,48
20016ca0:	fca42e23          	sw	a0,-36(s0)
/home/jw/Desktop/sifive-standalone-project/freedom-metal/src/drivers/sifive_uart0.c:183
    struct __metal_driver_sifive_uart0 *uart = priv;
20016ca4:	fdc42783          	lw	a5,-36(s0)
20016ca8:	fef42623          	sw	a5,-20(s0)
/home/jw/Desktop/sifive-standalone-project/freedom-metal/src/drivers/sifive_uart0.c:184
    metal_uart_set_baud_rate(&uart->uart, uart->baud_rate);
20016cac:	fec42703          	lw	a4,-20(s0)
20016cb0:	fec42783          	lw	a5,-20(s0)
20016cb4:	43dc                	lw	a5,4(a5)
20016cb6:	85be                	mv	a1,a5
20016cb8:	853a                	mv	a0,a4
20016cba:	bcdfb0ef          	jal	ra,20012886 <metal_uart_set_baud_rate>
/home/jw/Desktop/sifive-standalone-project/freedom-metal/src/drivers/sifive_uart0.c:185
}
20016cbe:	0001                	nop
20016cc0:	50b2                	lw	ra,44(sp)
20016cc2:	5422                	lw	s0,40(sp)
20016cc4:	6145                	addi	sp,sp,48
20016cc6:	8082                	ret

20016cc8 <__metal_driver_sifive_uart0_init>:
__metal_driver_sifive_uart0_init():
/home/jw/Desktop/sifive-standalone-project/freedom-metal/src/drivers/sifive_uart0.c:187

void __metal_driver_sifive_uart0_init(struct metal_uart *guart, int baud_rate) {
20016cc8:	7139                	addi	sp,sp,-64
20016cca:	de06                	sw	ra,60(sp)
20016ccc:	dc22                	sw	s0,56(sp)
20016cce:	0080                	addi	s0,sp,64
20016cd0:	fca42623          	sw	a0,-52(s0)
20016cd4:	fcb42423          	sw	a1,-56(s0)
/home/jw/Desktop/sifive-standalone-project/freedom-metal/src/drivers/sifive_uart0.c:188
    struct __metal_driver_sifive_uart0 *uart = (void *)(guart);
20016cd8:	fcc42783          	lw	a5,-52(s0)
20016cdc:	fef42623          	sw	a5,-20(s0)
/home/jw/Desktop/sifive-standalone-project/freedom-metal/src/drivers/sifive_uart0.c:189
    struct metal_clock *clock = __metal_driver_sifive_uart0_clock(guart);
20016ce0:	fcc42503          	lw	a0,-52(s0)
20016ce4:	a37ff0ef          	jal	ra,2001671a <__metal_driver_sifive_uart0_clock>
20016ce8:	fea42423          	sw	a0,-24(s0)
/home/jw/Desktop/sifive-standalone-project/freedom-metal/src/drivers/sifive_uart0.c:191
    struct __metal_driver_sifive_gpio0 *pinmux =
        __metal_driver_sifive_uart0_pinmux(guart);
20016cec:	fcc42503          	lw	a0,-52(s0)
20016cf0:	a73ff0ef          	jal	ra,20016762 <__metal_driver_sifive_uart0_pinmux>
20016cf4:	fea42223          	sw	a0,-28(s0)
/home/jw/Desktop/sifive-standalone-project/freedom-metal/src/drivers/sifive_uart0.c:193

    if (clock != NULL) {
20016cf8:	fe842783          	lw	a5,-24(s0)
20016cfc:	c7b9                	beqz	a5,20016d4a <__metal_driver_sifive_uart0_init+0x82>
/home/jw/Desktop/sifive-standalone-project/freedom-metal/src/drivers/sifive_uart0.c:194
        uart->pre_rate_change_callback.callback =
20016cfe:	fec42783          	lw	a5,-20(s0)
20016d02:	20017737          	lui	a4,0x20017
20016d06:	bbe70713          	addi	a4,a4,-1090 # 20016bbe <pre_rate_change_callback_func>
20016d0a:	c798                	sw	a4,8(a5)
/home/jw/Desktop/sifive-standalone-project/freedom-metal/src/drivers/sifive_uart0.c:196
            &pre_rate_change_callback_func;
        uart->pre_rate_change_callback.priv = guart;
20016d0c:	fec42783          	lw	a5,-20(s0)
20016d10:	fcc42703          	lw	a4,-52(s0)
20016d14:	c7d8                	sw	a4,12(a5)
/home/jw/Desktop/sifive-standalone-project/freedom-metal/src/drivers/sifive_uart0.c:197
        metal_clock_register_pre_rate_change_callback(
20016d16:	fec42783          	lw	a5,-20(s0)
20016d1a:	07a1                	addi	a5,a5,8
20016d1c:	85be                	mv	a1,a5
20016d1e:	fe842503          	lw	a0,-24(s0)
20016d22:	2241                	jal	20016ea2 <metal_clock_register_pre_rate_change_callback>
/home/jw/Desktop/sifive-standalone-project/freedom-metal/src/drivers/sifive_uart0.c:200
            clock, &(uart->pre_rate_change_callback));

        uart->post_rate_change_callback.callback =
20016d24:	fec42783          	lw	a5,-20(s0)
20016d28:	20017737          	lui	a4,0x20017
20016d2c:	c9870713          	addi	a4,a4,-872 # 20016c98 <post_rate_change_callback_func>
20016d30:	cbd8                	sw	a4,20(a5)
/home/jw/Desktop/sifive-standalone-project/freedom-metal/src/drivers/sifive_uart0.c:202
            &post_rate_change_callback_func;
        uart->post_rate_change_callback.priv = guart;
20016d32:	fec42783          	lw	a5,-20(s0)
20016d36:	fcc42703          	lw	a4,-52(s0)
20016d3a:	cf98                	sw	a4,24(a5)
/home/jw/Desktop/sifive-standalone-project/freedom-metal/src/drivers/sifive_uart0.c:203
        metal_clock_register_post_rate_change_callback(
20016d3c:	fec42783          	lw	a5,-20(s0)
20016d40:	07d1                	addi	a5,a5,20
20016d42:	85be                	mv	a1,a5
20016d44:	fe842503          	lw	a0,-24(s0)
20016d48:	2271                	jal	20016ed4 <metal_clock_register_post_rate_change_callback>
/home/jw/Desktop/sifive-standalone-project/freedom-metal/src/drivers/sifive_uart0.c:207
            clock, &(uart->post_rate_change_callback));
    }

    metal_uart_set_baud_rate(&(uart->uart), baud_rate);
20016d4a:	fec42783          	lw	a5,-20(s0)
20016d4e:	fc842583          	lw	a1,-56(s0)
20016d52:	853e                	mv	a0,a5
20016d54:	b33fb0ef          	jal	ra,20012886 <metal_uart_set_baud_rate>
/home/jw/Desktop/sifive-standalone-project/freedom-metal/src/drivers/sifive_uart0.c:209

    if (pinmux != NULL) {
20016d58:	fe442783          	lw	a5,-28(s0)
20016d5c:	cb95                	beqz	a5,20016d90 <__metal_driver_sifive_uart0_init+0xc8>
/home/jw/Desktop/sifive-standalone-project/freedom-metal/src/drivers/sifive_uart0.c:211
        long pinmux_output_selector =
            __metal_driver_sifive_uart0_pinmux_output_selector(guart);
20016d5e:	fcc42503          	lw	a0,-52(s0)
20016d62:	a41ff0ef          	jal	ra,200167a2 <__metal_driver_sifive_uart0_pinmux_output_selector>
20016d66:	87aa                	mv	a5,a0
/home/jw/Desktop/sifive-standalone-project/freedom-metal/src/drivers/sifive_uart0.c:210
        long pinmux_output_selector =
20016d68:	fef42023          	sw	a5,-32(s0)
/home/jw/Desktop/sifive-standalone-project/freedom-metal/src/drivers/sifive_uart0.c:213
        long pinmux_source_selector =
            __metal_driver_sifive_uart0_pinmux_source_selector(guart);
20016d6c:	fcc42503          	lw	a0,-52(s0)
20016d70:	a6fff0ef          	jal	ra,200167de <__metal_driver_sifive_uart0_pinmux_source_selector>
20016d74:	87aa                	mv	a5,a0
/home/jw/Desktop/sifive-standalone-project/freedom-metal/src/drivers/sifive_uart0.c:212
        long pinmux_source_selector =
20016d76:	fcf42e23          	sw	a5,-36(s0)
/home/jw/Desktop/sifive-standalone-project/freedom-metal/src/drivers/sifive_uart0.c:214
        pinmux->gpio.vtable->enable_io((struct metal_gpio *)pinmux,
20016d7a:	fe442783          	lw	a5,-28(s0)
20016d7e:	439c                	lw	a5,0(a5)
20016d80:	53dc                	lw	a5,36(a5)
20016d82:	fdc42603          	lw	a2,-36(s0)
20016d86:	fe042583          	lw	a1,-32(s0)
20016d8a:	fe442503          	lw	a0,-28(s0)
20016d8e:	9782                	jalr	a5
/home/jw/Desktop/sifive-standalone-project/freedom-metal/src/drivers/sifive_uart0.c:218
                                       pinmux_output_selector,
                                       pinmux_source_selector);
    }
}
20016d90:	0001                	nop
20016d92:	50f2                	lw	ra,60(sp)
20016d94:	5462                	lw	s0,56(sp)
20016d96:	6121                	addi	sp,sp,64
20016d98:	8082                	ret

20016d9a <_metal_clock_call_all_callbacks>:
_metal_clock_call_all_callbacks():
/home/jw/Desktop/sifive-standalone-project/freedom-metal/metal/clock.h:50

/*!
 * @brief Call all callbacks in the linked list, if any are registered
 */
__inline__ void
_metal_clock_call_all_callbacks(const metal_clock_callback *const list) {
20016d9a:	7179                	addi	sp,sp,-48
20016d9c:	d606                	sw	ra,44(sp)
20016d9e:	d422                	sw	s0,40(sp)
20016da0:	1800                	addi	s0,sp,48
20016da2:	fca42e23          	sw	a0,-36(s0)
/home/jw/Desktop/sifive-standalone-project/freedom-metal/metal/clock.h:51
    const metal_clock_callback *current = list;
20016da6:	fdc42783          	lw	a5,-36(s0)
20016daa:	fef42623          	sw	a5,-20(s0)
/home/jw/Desktop/sifive-standalone-project/freedom-metal/metal/clock.h:52
    while (current) {
20016dae:	a831                	j	20016dca <_metal_clock_call_all_callbacks+0x30>
/home/jw/Desktop/sifive-standalone-project/freedom-metal/metal/clock.h:53
        current->callback(current->priv);
20016db0:	fec42783          	lw	a5,-20(s0)
20016db4:	4398                	lw	a4,0(a5)
20016db6:	fec42783          	lw	a5,-20(s0)
20016dba:	43dc                	lw	a5,4(a5)
20016dbc:	853e                	mv	a0,a5
20016dbe:	9702                	jalr	a4
/home/jw/Desktop/sifive-standalone-project/freedom-metal/metal/clock.h:54
        current = current->_next;
20016dc0:	fec42783          	lw	a5,-20(s0)
20016dc4:	479c                	lw	a5,8(a5)
20016dc6:	fef42623          	sw	a5,-20(s0)
/home/jw/Desktop/sifive-standalone-project/freedom-metal/metal/clock.h:52
    while (current) {
20016dca:	fec42783          	lw	a5,-20(s0)
20016dce:	f3ed                	bnez	a5,20016db0 <_metal_clock_call_all_callbacks+0x16>
/home/jw/Desktop/sifive-standalone-project/freedom-metal/metal/clock.h:56
    }
}
20016dd0:	0001                	nop
20016dd2:	0001                	nop
20016dd4:	50b2                	lw	ra,44(sp)
20016dd6:	5422                	lw	s0,40(sp)
20016dd8:	6145                	addi	sp,sp,48
20016dda:	8082                	ret

20016ddc <_metal_clock_append_to_callbacks>:
_metal_clock_append_to_callbacks():
/home/jw/Desktop/sifive-standalone-project/freedom-metal/metal/clock.h:63
/*!
 * @brief Append a callback to the linked list and return the head of the list
 */
__inline__ metal_clock_callback *
_metal_clock_append_to_callbacks(metal_clock_callback *list,
                                 metal_clock_callback *const cb) {
20016ddc:	7179                	addi	sp,sp,-48
20016dde:	d622                	sw	s0,44(sp)
20016de0:	1800                	addi	s0,sp,48
20016de2:	fca42e23          	sw	a0,-36(s0)
20016de6:	fcb42c23          	sw	a1,-40(s0)
/home/jw/Desktop/sifive-standalone-project/freedom-metal/metal/clock.h:64
    cb->_next = NULL;
20016dea:	fd842783          	lw	a5,-40(s0)
20016dee:	0007a423          	sw	zero,8(a5) # 10008 <__heap_size+0xf808>
/home/jw/Desktop/sifive-standalone-project/freedom-metal/metal/clock.h:66

    if (!list) {
20016df2:	fdc42783          	lw	a5,-36(s0)
20016df6:	e781                	bnez	a5,20016dfe <_metal_clock_append_to_callbacks+0x22>
/home/jw/Desktop/sifive-standalone-project/freedom-metal/metal/clock.h:67
        return cb;
20016df8:	fd842783          	lw	a5,-40(s0)
20016dfc:	a035                	j	20016e28 <_metal_clock_append_to_callbacks+0x4c>
/home/jw/Desktop/sifive-standalone-project/freedom-metal/metal/clock.h:70
    }

    metal_clock_callback *current = list;
20016dfe:	fdc42783          	lw	a5,-36(s0)
20016e02:	fef42623          	sw	a5,-20(s0)
/home/jw/Desktop/sifive-standalone-project/freedom-metal/metal/clock.h:72

    while ((current->_next) != NULL) {
20016e06:	a031                	j	20016e12 <_metal_clock_append_to_callbacks+0x36>
/home/jw/Desktop/sifive-standalone-project/freedom-metal/metal/clock.h:73
        current = current->_next;
20016e08:	fec42783          	lw	a5,-20(s0)
20016e0c:	479c                	lw	a5,8(a5)
20016e0e:	fef42623          	sw	a5,-20(s0)
/home/jw/Desktop/sifive-standalone-project/freedom-metal/metal/clock.h:72
    while ((current->_next) != NULL) {
20016e12:	fec42783          	lw	a5,-20(s0)
20016e16:	479c                	lw	a5,8(a5)
20016e18:	fbe5                	bnez	a5,20016e08 <_metal_clock_append_to_callbacks+0x2c>
/home/jw/Desktop/sifive-standalone-project/freedom-metal/metal/clock.h:76
    }

    current->_next = cb;
20016e1a:	fec42783          	lw	a5,-20(s0)
20016e1e:	fd842703          	lw	a4,-40(s0)
20016e22:	c798                	sw	a4,8(a5)
/home/jw/Desktop/sifive-standalone-project/freedom-metal/metal/clock.h:78

    return list;
20016e24:	fdc42783          	lw	a5,-36(s0)
/home/jw/Desktop/sifive-standalone-project/freedom-metal/metal/clock.h:79
}
20016e28:	853e                	mv	a0,a5
20016e2a:	5432                	lw	s0,44(sp)
20016e2c:	6145                	addi	sp,sp,48
20016e2e:	8082                	ret

20016e30 <metal_clock_get_rate_hz>:
metal_clock_get_rate_hz():
/home/jw/Desktop/sifive-standalone-project/freedom-metal/metal/clock.h:110
 * @brief Returns the current rate of the given clock
 *
 * @param clk The handle for the clock
 * @return The current rate of the clock in Hz
 */
__inline__ long metal_clock_get_rate_hz(const struct metal_clock *clk) {
20016e30:	1101                	addi	sp,sp,-32
20016e32:	ce06                	sw	ra,28(sp)
20016e34:	cc22                	sw	s0,24(sp)
20016e36:	1000                	addi	s0,sp,32
20016e38:	fea42623          	sw	a0,-20(s0)
/home/jw/Desktop/sifive-standalone-project/freedom-metal/metal/clock.h:111
    return clk->vtable->get_rate_hz(clk);
20016e3c:	fec42783          	lw	a5,-20(s0)
20016e40:	439c                	lw	a5,0(a5)
20016e42:	439c                	lw	a5,0(a5)
20016e44:	fec42503          	lw	a0,-20(s0)
20016e48:	9782                	jalr	a5
20016e4a:	87aa                	mv	a5,a0
/home/jw/Desktop/sifive-standalone-project/freedom-metal/metal/clock.h:112
}
20016e4c:	853e                	mv	a0,a5
20016e4e:	40f2                	lw	ra,28(sp)
20016e50:	4462                	lw	s0,24(sp)
20016e52:	6105                	addi	sp,sp,32
20016e54:	8082                	ret

20016e56 <metal_clock_set_rate_hz>:
metal_clock_set_rate_hz():
/home/jw/Desktop/sifive-standalone-project/freedom-metal/metal/clock.h:128
 * could be anything!
 *
 * Prior to and after the rate change of the clock, this will call the
 * registered pre- and post-rate change callbacks.
 */
__inline__ long metal_clock_set_rate_hz(struct metal_clock *clk, long hz) {
20016e56:	7179                	addi	sp,sp,-48
20016e58:	d606                	sw	ra,44(sp)
20016e5a:	d422                	sw	s0,40(sp)
20016e5c:	1800                	addi	s0,sp,48
20016e5e:	fca42e23          	sw	a0,-36(s0)
20016e62:	fcb42c23          	sw	a1,-40(s0)
/home/jw/Desktop/sifive-standalone-project/freedom-metal/metal/clock.h:129
    _metal_clock_call_all_callbacks(clk->_pre_rate_change_callback);
20016e66:	fdc42783          	lw	a5,-36(s0)
20016e6a:	43dc                	lw	a5,4(a5)
20016e6c:	853e                	mv	a0,a5
20016e6e:	f2dff0ef          	jal	ra,20016d9a <_metal_clock_call_all_callbacks>
/home/jw/Desktop/sifive-standalone-project/freedom-metal/metal/clock.h:131

    long out = clk->vtable->set_rate_hz(clk, hz);
20016e72:	fdc42783          	lw	a5,-36(s0)
20016e76:	439c                	lw	a5,0(a5)
20016e78:	43dc                	lw	a5,4(a5)
20016e7a:	fd842583          	lw	a1,-40(s0)
20016e7e:	fdc42503          	lw	a0,-36(s0)
20016e82:	9782                	jalr	a5
20016e84:	fea42623          	sw	a0,-20(s0)
/home/jw/Desktop/sifive-standalone-project/freedom-metal/metal/clock.h:133

    _metal_clock_call_all_callbacks(clk->_post_rate_change_callback);
20016e88:	fdc42783          	lw	a5,-36(s0)
20016e8c:	479c                	lw	a5,8(a5)
20016e8e:	853e                	mv	a0,a5
20016e90:	f0bff0ef          	jal	ra,20016d9a <_metal_clock_call_all_callbacks>
/home/jw/Desktop/sifive-standalone-project/freedom-metal/metal/clock.h:135

    return out;
20016e94:	fec42783          	lw	a5,-20(s0)
/home/jw/Desktop/sifive-standalone-project/freedom-metal/metal/clock.h:136
}
20016e98:	853e                	mv	a0,a5
20016e9a:	50b2                	lw	ra,44(sp)
20016e9c:	5422                	lw	s0,40(sp)
20016e9e:	6145                	addi	sp,sp,48
20016ea0:	8082                	ret

20016ea2 <metal_clock_register_pre_rate_change_callback>:
metal_clock_register_pre_rate_change_callback():
/home/jw/Desktop/sifive-standalone-project/freedom-metal/metal/clock.h:146
 * @param clk The handle for the clock
 * @param cb The callback to be registered
 */
__inline__ void
metal_clock_register_pre_rate_change_callback(struct metal_clock *clk,
                                              metal_clock_callback *cb) {
20016ea2:	1101                	addi	sp,sp,-32
20016ea4:	ce06                	sw	ra,28(sp)
20016ea6:	cc22                	sw	s0,24(sp)
20016ea8:	1000                	addi	s0,sp,32
20016eaa:	fea42623          	sw	a0,-20(s0)
20016eae:	feb42423          	sw	a1,-24(s0)
/home/jw/Desktop/sifive-standalone-project/freedom-metal/metal/clock.h:148
    clk->_pre_rate_change_callback =
        _metal_clock_append_to_callbacks(clk->_pre_rate_change_callback, cb);
20016eb2:	fec42783          	lw	a5,-20(s0)
20016eb6:	43dc                	lw	a5,4(a5)
20016eb8:	fe842583          	lw	a1,-24(s0)
20016ebc:	853e                	mv	a0,a5
20016ebe:	f1fff0ef          	jal	ra,20016ddc <_metal_clock_append_to_callbacks>
20016ec2:	872a                	mv	a4,a0
/home/jw/Desktop/sifive-standalone-project/freedom-metal/metal/clock.h:147
    clk->_pre_rate_change_callback =
20016ec4:	fec42783          	lw	a5,-20(s0)
20016ec8:	c3d8                	sw	a4,4(a5)
/home/jw/Desktop/sifive-standalone-project/freedom-metal/metal/clock.h:149
}
20016eca:	0001                	nop
20016ecc:	40f2                	lw	ra,28(sp)
20016ece:	4462                	lw	s0,24(sp)
20016ed0:	6105                	addi	sp,sp,32
20016ed2:	8082                	ret

20016ed4 <metal_clock_register_post_rate_change_callback>:
metal_clock_register_post_rate_change_callback():
/home/jw/Desktop/sifive-standalone-project/freedom-metal/metal/clock.h:159
 * @param clk The handle for the clock
 * @param cb The callback to be registered
 */
__inline__ void
metal_clock_register_post_rate_change_callback(struct metal_clock *clk,
                                               metal_clock_callback *cb) {
20016ed4:	1101                	addi	sp,sp,-32
20016ed6:	ce06                	sw	ra,28(sp)
20016ed8:	cc22                	sw	s0,24(sp)
20016eda:	1000                	addi	s0,sp,32
20016edc:	fea42623          	sw	a0,-20(s0)
20016ee0:	feb42423          	sw	a1,-24(s0)
/home/jw/Desktop/sifive-standalone-project/freedom-metal/metal/clock.h:161
    clk->_post_rate_change_callback =
        _metal_clock_append_to_callbacks(clk->_post_rate_change_callback, cb);
20016ee4:	fec42783          	lw	a5,-20(s0)
20016ee8:	479c                	lw	a5,8(a5)
20016eea:	fe842583          	lw	a1,-24(s0)
20016eee:	853e                	mv	a0,a5
20016ef0:	eedff0ef          	jal	ra,20016ddc <_metal_clock_append_to_callbacks>
20016ef4:	872a                	mv	a4,a0
/home/jw/Desktop/sifive-standalone-project/freedom-metal/metal/clock.h:160
    clk->_post_rate_change_callback =
20016ef6:	fec42783          	lw	a5,-20(s0)
20016efa:	c798                	sw	a4,8(a5)
/home/jw/Desktop/sifive-standalone-project/freedom-metal/metal/clock.h:162
}
20016efc:	0001                	nop
20016efe:	40f2                	lw	ra,28(sp)
20016f00:	4462                	lw	s0,24(sp)
20016f02:	6105                	addi	sp,sp,32
20016f04:	8082                	ret

20016f06 <metal_cpu_interrupt_controller>:
metal_cpu_interrupt_controller():
/home/jw/Desktop/sifive-standalone-project/freedom-metal/metal/cpu.h:224
 *
 * @param cpu The CPU device handle
 * @return The handle for the CPU interrupt controller
 */
__inline__ struct metal_interrupt *
metal_cpu_interrupt_controller(struct metal_cpu *cpu) {
20016f06:	1101                	addi	sp,sp,-32
20016f08:	ce06                	sw	ra,28(sp)
20016f0a:	cc22                	sw	s0,24(sp)
20016f0c:	1000                	addi	s0,sp,32
20016f0e:	fea42623          	sw	a0,-20(s0)
/home/jw/Desktop/sifive-standalone-project/freedom-metal/metal/cpu.h:225
    return cpu->vtable->controller_interrupt(cpu);
20016f12:	fec42783          	lw	a5,-20(s0)
20016f16:	439c                	lw	a5,0(a5)
20016f18:	57dc                	lw	a5,44(a5)
20016f1a:	fec42503          	lw	a0,-20(s0)
20016f1e:	9782                	jalr	a5
20016f20:	87aa                	mv	a5,a0
/home/jw/Desktop/sifive-standalone-project/freedom-metal/metal/cpu.h:226
}
20016f22:	853e                	mv	a0,a5
20016f24:	40f2                	lw	ra,28(sp)
20016f26:	4462                	lw	s0,24(sp)
20016f28:	6105                	addi	sp,sp,32
20016f2a:	8082                	ret

20016f2c <metal_cpu_get>:
metal_cpu_get():
/home/jw/Desktop/sifive-standalone-project/freedom-metal/src/cpu.c:7
/* SPDX-License-Identifier: Apache-2.0 */

#include <metal/cpu.h>
#include <metal/machine.h>

struct metal_cpu *metal_cpu_get(unsigned int hartid) {
20016f2c:	1101                	addi	sp,sp,-32
20016f2e:	ce22                	sw	s0,28(sp)
20016f30:	1000                	addi	s0,sp,32
20016f32:	fea42623          	sw	a0,-20(s0)
/home/jw/Desktop/sifive-standalone-project/freedom-metal/src/cpu.c:8
    if (hartid < __METAL_DT_MAX_HARTS) {
20016f36:	fec42783          	lw	a5,-20(s0)
20016f3a:	eb99                	bnez	a5,20016f50 <metal_cpu_get+0x24>
/home/jw/Desktop/sifive-standalone-project/freedom-metal/src/cpu.c:9
        return (struct metal_cpu *)__metal_cpu_table[hartid];
20016f3c:	800017b7          	lui	a5,0x80001
20016f40:	fec42703          	lw	a4,-20(s0)
20016f44:	070a                	slli	a4,a4,0x2
20016f46:	aa878793          	addi	a5,a5,-1368 # 80000aa8 <metal_segment_heap_target_end+0xfffff338>
20016f4a:	97ba                	add	a5,a5,a4
20016f4c:	439c                	lw	a5,0(a5)
20016f4e:	a011                	j	20016f52 <metal_cpu_get+0x26>
/home/jw/Desktop/sifive-standalone-project/freedom-metal/src/cpu.c:11
    }
    return NULL;
20016f50:	4781                	li	a5,0
/home/jw/Desktop/sifive-standalone-project/freedom-metal/src/cpu.c:12
}
20016f52:	853e                	mv	a0,a5
20016f54:	4472                	lw	s0,28(sp)
20016f56:	6105                	addi	sp,sp,32
20016f58:	8082                	ret

20016f5a <metal_cpu_get_current_hartid>:
metal_cpu_get_current_hartid():
/home/jw/Desktop/sifive-standalone-project/freedom-metal/src/cpu.c:14

int metal_cpu_get_current_hartid() {
20016f5a:	1101                	addi	sp,sp,-32
20016f5c:	ce22                	sw	s0,28(sp)
20016f5e:	1000                	addi	s0,sp,32
/home/jw/Desktop/sifive-standalone-project/freedom-metal/src/cpu.c:17
#ifdef __riscv
    int mhartid;
    __asm__ volatile("csrr %0, mhartid" : "=r"(mhartid));
20016f60:	f14027f3          	csrr	a5,mhartid
20016f64:	fef42623          	sw	a5,-20(s0)
/home/jw/Desktop/sifive-standalone-project/freedom-metal/src/cpu.c:18
    return mhartid;
20016f68:	fec42783          	lw	a5,-20(s0)
/home/jw/Desktop/sifive-standalone-project/freedom-metal/src/cpu.c:20
#endif
}
20016f6c:	853e                	mv	a0,a5
20016f6e:	4472                	lw	s0,28(sp)
20016f70:	6105                	addi	sp,sp,32
20016f72:	8082                	ret

20016f74 <metal_shutdown>:
metal_shutdown():
/home/jw/Desktop/sifive-standalone-project/freedom-metal/src/shutdown.c:17
    __metal_shutdown_exit(__METAL_DT_SHUTDOWN_HANDLE, code);
}
#else
#pragma message(                                                               \
    "There is no defined shutdown mechanism, metal_shutdown() will spin.")
void metal_shutdown(int code) {
20016f74:	1101                	addi	sp,sp,-32
20016f76:	ce22                	sw	s0,28(sp)
20016f78:	1000                	addi	s0,sp,32
20016f7a:	fea42623          	sw	a0,-20(s0)
/home/jw/Desktop/sifive-standalone-project/freedom-metal/src/shutdown.c:19 (discriminator 1)
    while (1) {
        __asm__ volatile("nop");
20016f7e:	0001                	nop
20016f80:	bffd                	j	20016f7e <metal_shutdown+0xa>
	...

20017000 <__metal_vector_table>:
IRQ_0():
/home/jw/Desktop/sifive-standalone-project/freedom-metal/src/vector.S:76
#endif
.option norvc
.global __metal_vector_table
__metal_vector_table:
IRQ_0:
        j metal_interrupt_vector_handler
20017000:	a1cfc06f          	j	2001321c <metal_interrupt_vector_handler>

20017004 <IRQ_1>:
IRQ_1():
/home/jw/Desktop/sifive-standalone-project/freedom-metal/src/vector.S:78
IRQ_1:
        j metal_interrupt_vector_handler
20017004:	a18fc06f          	j	2001321c <metal_interrupt_vector_handler>

20017008 <IRQ_2>:
IRQ_2():
/home/jw/Desktop/sifive-standalone-project/freedom-metal/src/vector.S:80
IRQ_2:
        j metal_interrupt_vector_handler
20017008:	a14fc06f          	j	2001321c <metal_interrupt_vector_handler>

2001700c <IRQ_3>:
IRQ_3():
/home/jw/Desktop/sifive-standalone-project/freedom-metal/src/vector.S:82
IRQ_3:
        j metal_software_interrupt_vector_handler
2001700c:	a3efc06f          	j	2001324a <metal_software_interrupt_vector_handler>

20017010 <IRQ_4>:
IRQ_4():
/home/jw/Desktop/sifive-standalone-project/freedom-metal/src/vector.S:84
IRQ_4:
        j metal_interrupt_vector_handler
20017010:	a0cfc06f          	j	2001321c <metal_interrupt_vector_handler>

20017014 <IRQ_5>:
IRQ_5():
/home/jw/Desktop/sifive-standalone-project/freedom-metal/src/vector.S:86
IRQ_5:
        j metal_interrupt_vector_handler
20017014:	a08fc06f          	j	2001321c <metal_interrupt_vector_handler>

20017018 <IRQ_6>:
IRQ_6():
/home/jw/Desktop/sifive-standalone-project/freedom-metal/src/vector.S:88
IRQ_6:
        j metal_interrupt_vector_handler
20017018:	a04fc06f          	j	2001321c <metal_interrupt_vector_handler>

2001701c <IRQ_7>:
IRQ_7():
/home/jw/Desktop/sifive-standalone-project/freedom-metal/src/vector.S:90
IRQ_7:
        j metal_timer_interrupt_vector_handler
2001701c:	b28fc06f          	j	20013344 <metal_timer_interrupt_vector_handler>

20017020 <IRQ_8>:
IRQ_8():
/home/jw/Desktop/sifive-standalone-project/freedom-metal/src/vector.S:92
IRQ_8:
        j metal_interrupt_vector_handler
20017020:	9fcfc06f          	j	2001321c <metal_interrupt_vector_handler>

20017024 <IRQ_9>:
IRQ_9():
/home/jw/Desktop/sifive-standalone-project/freedom-metal/src/vector.S:94
IRQ_9:
        j metal_interrupt_vector_handler
20017024:	9f8fc06f          	j	2001321c <metal_interrupt_vector_handler>

20017028 <IRQ_10>:
IRQ_10():
/home/jw/Desktop/sifive-standalone-project/freedom-metal/src/vector.S:96
IRQ_10:
        j metal_interrupt_vector_handler
20017028:	9f4fc06f          	j	2001321c <metal_interrupt_vector_handler>

2001702c <IRQ_11>:
IRQ_11():
/home/jw/Desktop/sifive-standalone-project/freedom-metal/src/vector.S:98
IRQ_11:
        j metal_interrupt_vector_handler
2001702c:	9f0fc06f          	j	2001321c <metal_interrupt_vector_handler>

20017030 <IRQ_12>:
IRQ_12():
/home/jw/Desktop/sifive-standalone-project/freedom-metal/src/vector.S:100
IRQ_12:
        j metal_interrupt_vector_handler
20017030:	9ecfc06f          	j	2001321c <metal_interrupt_vector_handler>

20017034 <IRQ_13>:
IRQ_13():
/home/jw/Desktop/sifive-standalone-project/freedom-metal/src/vector.S:102
IRQ_13:
        j metal_interrupt_vector_handler
20017034:	9e8fc06f          	j	2001321c <metal_interrupt_vector_handler>

20017038 <IRQ_14>:
IRQ_14():
/home/jw/Desktop/sifive-standalone-project/freedom-metal/src/vector.S:104
IRQ_14:
        j metal_interrupt_vector_handler
20017038:	9e4fc06f          	j	2001321c <metal_interrupt_vector_handler>

2001703c <IRQ_15>:
IRQ_15():
/home/jw/Desktop/sifive-standalone-project/freedom-metal/src/vector.S:106
IRQ_15:
        j metal_interrupt_vector_handler
2001703c:	9e0fc06f          	j	2001321c <metal_interrupt_vector_handler>

20017040 <IRQ_LC0>:
IRQ_LC0():
/home/jw/Desktop/sifive-standalone-project/freedom-metal/src/vector.S:108
IRQ_LC0:
        j metal_lc0_interrupt_vector_handler
20017040:	e38fc06f          	j	20013678 <metal_lc0_interrupt_vector_handler>

20017044 <IRQ_LC1>:
IRQ_LC1():
/home/jw/Desktop/sifive-standalone-project/freedom-metal/src/vector.S:110
IRQ_LC1:
        j metal_lc1_interrupt_vector_handler
20017044:	ecafc06f          	j	2001370e <metal_lc1_interrupt_vector_handler>

20017048 <IRQ_LC2>:
IRQ_LC2():
/home/jw/Desktop/sifive-standalone-project/freedom-metal/src/vector.S:112
IRQ_LC2:
        j metal_lc2_interrupt_vector_handler
20017048:	f5cfc06f          	j	200137a4 <metal_lc2_interrupt_vector_handler>

2001704c <IRQ_LC3>:
IRQ_LC3():
/home/jw/Desktop/sifive-standalone-project/freedom-metal/src/vector.S:114
IRQ_LC3:
        j metal_lc3_interrupt_vector_handler
2001704c:	feefc06f          	j	2001383a <metal_lc3_interrupt_vector_handler>

20017050 <IRQ_LC4>:
IRQ_LC4():
/home/jw/Desktop/sifive-standalone-project/freedom-metal/src/vector.S:116
IRQ_LC4:
        j metal_lc4_interrupt_vector_handler
20017050:	881fc06f          	j	200138d0 <metal_lc4_interrupt_vector_handler>

20017054 <IRQ_LC5>:
IRQ_LC5():
/home/jw/Desktop/sifive-standalone-project/freedom-metal/src/vector.S:118
IRQ_LC5:
        j metal_lc5_interrupt_vector_handler
20017054:	913fc06f          	j	20013966 <metal_lc5_interrupt_vector_handler>

20017058 <IRQ_LC6>:
IRQ_LC6():
/home/jw/Desktop/sifive-standalone-project/freedom-metal/src/vector.S:120
IRQ_LC6:
        j metal_lc6_interrupt_vector_handler
20017058:	9a5fc06f          	j	200139fc <metal_lc6_interrupt_vector_handler>

2001705c <IRQ_LC7>:
IRQ_LC7():
/home/jw/Desktop/sifive-standalone-project/freedom-metal/src/vector.S:122
IRQ_LC7:
        j metal_lc7_interrupt_vector_handler
2001705c:	a37fc06f          	j	20013a92 <metal_lc7_interrupt_vector_handler>

20017060 <IRQ_LC8>:
IRQ_LC8():
/home/jw/Desktop/sifive-standalone-project/freedom-metal/src/vector.S:124
IRQ_LC8:
        j metal_lc8_interrupt_vector_handler
20017060:	ac9fc06f          	j	20013b28 <metal_lc8_interrupt_vector_handler>

20017064 <IRQ_LC9>:
IRQ_LC9():
/home/jw/Desktop/sifive-standalone-project/freedom-metal/src/vector.S:126
IRQ_LC9:
        j metal_lc9_interrupt_vector_handler
20017064:	b5bfc06f          	j	20013bbe <metal_lc9_interrupt_vector_handler>

20017068 <IRQ_LC10>:
IRQ_LC10():
/home/jw/Desktop/sifive-standalone-project/freedom-metal/src/vector.S:128
IRQ_LC10:
        j metal_lc10_interrupt_vector_handler
20017068:	bedfc06f          	j	20013c54 <metal_lc10_interrupt_vector_handler>

2001706c <IRQ_LC11>:
IRQ_LC11():
/home/jw/Desktop/sifive-standalone-project/freedom-metal/src/vector.S:130
IRQ_LC11:
        j metal_lc11_interrupt_vector_handler
2001706c:	c7ffc06f          	j	20013cea <metal_lc11_interrupt_vector_handler>

20017070 <IRQ_LC12>:
IRQ_LC12():
/home/jw/Desktop/sifive-standalone-project/freedom-metal/src/vector.S:132
IRQ_LC12:
        j metal_lc12_interrupt_vector_handler
20017070:	d11fc06f          	j	20013d80 <metal_lc12_interrupt_vector_handler>

20017074 <IRQ_LC13>:
IRQ_LC13():
/home/jw/Desktop/sifive-standalone-project/freedom-metal/src/vector.S:134
IRQ_LC13:
        j metal_lc13_interrupt_vector_handler
20017074:	da3fc06f          	j	20013e16 <metal_lc13_interrupt_vector_handler>

20017078 <IRQ_LC14>:
IRQ_LC14():
/home/jw/Desktop/sifive-standalone-project/freedom-metal/src/vector.S:136
IRQ_LC14:
        j metal_lc14_interrupt_vector_handler
20017078:	e35fc06f          	j	20013eac <metal_lc14_interrupt_vector_handler>

2001707c <IRQ_LC15>:
IRQ_LC15():
/home/jw/Desktop/sifive-standalone-project/freedom-metal/src/vector.S:138
IRQ_LC15:
        j metal_lc15_interrupt_vector_handler
2001707c:	ec7fc06f          	j	20013f42 <metal_lc15_interrupt_vector_handler>

20017080 <__metal_driver_fixed_clock_rate>:
__metal_driver_fixed_clock_rate():
/home/jw/Desktop/sifive-standalone-project/bsp/build/debug/./metal/machine.h:208
{
20017080:	1101                	addi	sp,sp,-32
20017082:	ce22                	sw	s0,28(sp)
20017084:	1000                	addi	s0,sp,32
20017086:	fea42623          	sw	a0,-20(s0)
/home/jw/Desktop/sifive-standalone-project/bsp/build/debug/./metal/machine.h:209
	if ((uintptr_t)clock == (uintptr_t)&__metal_dt_clock_0) {
2001708a:	fec42703          	lw	a4,-20(s0)
2001708e:	800007b7          	lui	a5,0x80000
20017092:	06078793          	addi	a5,a5,96 # 80000060 <metal_segment_heap_target_end+0xffffe8f0>
20017096:	00f71763          	bne	a4,a5,200170a4 <__metal_driver_fixed_clock_rate+0x24>
/home/jw/Desktop/sifive-standalone-project/bsp/build/debug/./metal/machine.h:210
		return METAL_FIXED_CLOCK_0_CLOCK_0_CLOCK_FREQUENCY;
2001709a:	00f427b7          	lui	a5,0xf42
2001709e:	40078793          	addi	a5,a5,1024 # f42400 <__heap_size+0xf41c00>
200170a2:	a099                	j	200170e8 <__metal_driver_fixed_clock_rate+0x68>
/home/jw/Desktop/sifive-standalone-project/bsp/build/debug/./metal/machine.h:212
	else if ((uintptr_t)clock == (uintptr_t)&__metal_dt_clock_2) {
200170a4:	fec42703          	lw	a4,-20(s0)
200170a8:	800007b7          	lui	a5,0x80000
200170ac:	06c78793          	addi	a5,a5,108 # 8000006c <metal_segment_heap_target_end+0xffffe8fc>
200170b0:	00f71763          	bne	a4,a5,200170be <__metal_driver_fixed_clock_rate+0x3e>
/home/jw/Desktop/sifive-standalone-project/bsp/build/debug/./metal/machine.h:213
		return METAL_FIXED_CLOCK_2_CLOCK_2_CLOCK_FREQUENCY;
200170b4:	044aa7b7          	lui	a5,0x44aa
200170b8:	20078793          	addi	a5,a5,512 # 44aa200 <__heap_size+0x44a9a00>
200170bc:	a035                	j	200170e8 <__metal_driver_fixed_clock_rate+0x68>
/home/jw/Desktop/sifive-standalone-project/bsp/build/debug/./metal/machine.h:215
	else if ((uintptr_t)clock == (uintptr_t)&__metal_dt_clock_5) {
200170be:	fec42703          	lw	a4,-20(s0)
200170c2:	800007b7          	lui	a5,0x80000
200170c6:	07878793          	addi	a5,a5,120 # 80000078 <metal_segment_heap_target_end+0xffffe908>
200170ca:	00f71463          	bne	a4,a5,200170d2 <__metal_driver_fixed_clock_rate+0x52>
/home/jw/Desktop/sifive-standalone-project/bsp/build/debug/./metal/machine.h:216
		return METAL_FIXED_CLOCK_5_CLOCK_5_CLOCK_FREQUENCY;
200170ce:	67a1                	lui	a5,0x8
200170d0:	a821                	j	200170e8 <__metal_driver_fixed_clock_rate+0x68>
/home/jw/Desktop/sifive-standalone-project/bsp/build/debug/./metal/machine.h:218
	else if ((uintptr_t)clock == (uintptr_t)&__metal_dt_clock_6) {
200170d2:	fec42703          	lw	a4,-20(s0)
200170d6:	800007b7          	lui	a5,0x80000
200170da:	08478793          	addi	a5,a5,132 # 80000084 <metal_segment_heap_target_end+0xffffe914>
200170de:	00f71463          	bne	a4,a5,200170e6 <__metal_driver_fixed_clock_rate+0x66>
/home/jw/Desktop/sifive-standalone-project/bsp/build/debug/./metal/machine.h:219
		return METAL_FIXED_CLOCK_6_CLOCK_6_CLOCK_FREQUENCY;
200170e2:	67a1                	lui	a5,0x8
200170e4:	a011                	j	200170e8 <__metal_driver_fixed_clock_rate+0x68>
/home/jw/Desktop/sifive-standalone-project/bsp/build/debug/./metal/machine.h:222
		return 0;
200170e6:	4781                	li	a5,0
/home/jw/Desktop/sifive-standalone-project/bsp/build/debug/./metal/machine.h:224
}
200170e8:	853e                	mv	a0,a5
200170ea:	4472                	lw	s0,28(sp)
200170ec:	6105                	addi	sp,sp,32
200170ee:	8082                	ret

200170f0 <__metal_driver_fixed_clock_get_rate_hz>:
__metal_driver_fixed_clock_get_rate_hz():
/home/jw/Desktop/sifive-standalone-project/freedom-metal/src/drivers/fixed-clock.c:12

#include <metal/drivers/fixed-clock.h>
#include <metal/machine.h>
#include <stddef.h>

long __metal_driver_fixed_clock_get_rate_hz(const struct metal_clock *gclk) {
200170f0:	1101                	addi	sp,sp,-32
200170f2:	ce06                	sw	ra,28(sp)
200170f4:	cc22                	sw	s0,24(sp)
200170f6:	1000                	addi	s0,sp,32
200170f8:	fea42623          	sw	a0,-20(s0)
/home/jw/Desktop/sifive-standalone-project/freedom-metal/src/drivers/fixed-clock.c:13
    return __metal_driver_fixed_clock_rate(gclk);
200170fc:	fec42503          	lw	a0,-20(s0)
20017100:	3741                	jal	20017080 <__metal_driver_fixed_clock_rate>
20017102:	87aa                	mv	a5,a0
/home/jw/Desktop/sifive-standalone-project/freedom-metal/src/drivers/fixed-clock.c:14
}
20017104:	853e                	mv	a0,a5
20017106:	40f2                	lw	ra,28(sp)
20017108:	4462                	lw	s0,24(sp)
2001710a:	6105                	addi	sp,sp,32
2001710c:	8082                	ret

2001710e <__metal_driver_fixed_clock_set_rate_hz>:
__metal_driver_fixed_clock_set_rate_hz():
/home/jw/Desktop/sifive-standalone-project/freedom-metal/src/drivers/fixed-clock.c:17

long __metal_driver_fixed_clock_set_rate_hz(struct metal_clock *gclk,
                                            long target_hz) {
2001710e:	1101                	addi	sp,sp,-32
20017110:	ce06                	sw	ra,28(sp)
20017112:	cc22                	sw	s0,24(sp)
20017114:	1000                	addi	s0,sp,32
20017116:	fea42623          	sw	a0,-20(s0)
2001711a:	feb42423          	sw	a1,-24(s0)
/home/jw/Desktop/sifive-standalone-project/freedom-metal/src/drivers/fixed-clock.c:18
    return __metal_driver_fixed_clock_get_rate_hz(gclk);
2001711e:	fec42503          	lw	a0,-20(s0)
20017122:	37f9                	jal	200170f0 <__metal_driver_fixed_clock_get_rate_hz>
20017124:	87aa                	mv	a5,a0
/home/jw/Desktop/sifive-standalone-project/freedom-metal/src/drivers/fixed-clock.c:19
}
20017126:	853e                	mv	a0,a5
20017128:	40f2                	lw	ra,28(sp)
2001712a:	4462                	lw	s0,24(sp)
2001712c:	6105                	addi	sp,sp,32
2001712e:	8082                	ret

20017130 <_exit>:
_exit():
/home/jw/Desktop/sifive-standalone-project/freedom-metal/gloss/sys_exit.c:3
#include <metal/shutdown.h>

void _exit(int exit_status) {
20017130:	1101                	addi	sp,sp,-32
20017132:	ce06                	sw	ra,28(sp)
20017134:	cc22                	sw	s0,24(sp)
20017136:	1000                	addi	s0,sp,32
20017138:	fea42623          	sw	a0,-20(s0)
/home/jw/Desktop/sifive-standalone-project/freedom-metal/gloss/sys_exit.c:4
    metal_shutdown(exit_status);
2001713c:	fec42503          	lw	a0,-20(s0)
20017140:	e35ff0ef          	jal	ra,20016f74 <metal_shutdown>
